ARM GAS  /tmp/ccsH6HZr.s 			page 1


   1              		.cpu cortex-m4
   2              		.arch armv7e-m
   3              		.fpu fpv4-sp-d16
   4              		.eabi_attribute 27, 1
   5              		.eabi_attribute 28, 1
   6              		.eabi_attribute 20, 1
   7              		.eabi_attribute 21, 1
   8              		.eabi_attribute 23, 3
   9              		.eabi_attribute 24, 1
  10              		.eabi_attribute 25, 1
  11              		.eabi_attribute 26, 1
  12              		.eabi_attribute 30, 1
  13              		.eabi_attribute 34, 1
  14              		.eabi_attribute 18, 4
  15              		.file	"stm32f4xx_cryp_aes.c"
  16              		.text
  17              	.Ltext0:
  18              		.cfi_sections	.debug_frame
  19              		.file 1 "./Library/stm32f4xx_cryp_aes.c"
  20              		.section	.text.CRYP_AES_ECB,"ax",%progbits
  21              		.align	1
  22              		.global	CRYP_AES_ECB
  23              		.syntax unified
  24              		.thumb
  25              		.thumb_func
  27              	CRYP_AES_ECB:
  28              	.LVL0:
  29              	.LFB123:
   1:./Library/stm32f4xx_cryp_aes.c **** /**
   2:./Library/stm32f4xx_cryp_aes.c ****   ******************************************************************************
   3:./Library/stm32f4xx_cryp_aes.c ****   * @file    stm32f4xx_cryp_aes.c
   4:./Library/stm32f4xx_cryp_aes.c ****   * @author  MCD Application Team
   5:./Library/stm32f4xx_cryp_aes.c ****   * @version V1.8.1
   6:./Library/stm32f4xx_cryp_aes.c ****   * @date    27-January-2022
   7:./Library/stm32f4xx_cryp_aes.c ****   * @brief   This file provides high level functions to encrypt and decrypt an 
   8:./Library/stm32f4xx_cryp_aes.c ****   *          input message using AES in ECB/CBC/CTR/GCM/CCM modes.
   9:./Library/stm32f4xx_cryp_aes.c ****   *          It uses the stm32f4xx_cryp.c/.h drivers to access the STM32F4xx CRYP
  10:./Library/stm32f4xx_cryp_aes.c ****   *          peripheral.
  11:./Library/stm32f4xx_cryp_aes.c ****   *          AES-ECB/CBC/CTR/GCM/CCM modes are available on STM32F437x Devices.
  12:./Library/stm32f4xx_cryp_aes.c ****   *          For STM32F41xx Devices, only AES-ECB/CBC/CTR modes are available.
  13:./Library/stm32f4xx_cryp_aes.c ****   *
  14:./Library/stm32f4xx_cryp_aes.c **** @verbatim
  15:./Library/stm32f4xx_cryp_aes.c ****  ===================================================================
  16:./Library/stm32f4xx_cryp_aes.c ****                   ##### How to use this driver #####
  17:./Library/stm32f4xx_cryp_aes.c ****  ===================================================================
  18:./Library/stm32f4xx_cryp_aes.c ****  [..]
  19:./Library/stm32f4xx_cryp_aes.c ****    (#) Enable The CRYP controller clock using 
  20:./Library/stm32f4xx_cryp_aes.c ****       RCC_AHB2PeriphClockCmd(RCC_AHB2Periph_CRYP, ENABLE); function.
  21:./Library/stm32f4xx_cryp_aes.c ****   
  22:./Library/stm32f4xx_cryp_aes.c ****    (#) Encrypt and decrypt using AES in ECB Mode using CRYP_AES_ECB() function.
  23:./Library/stm32f4xx_cryp_aes.c ****   
  24:./Library/stm32f4xx_cryp_aes.c ****    (#) Encrypt and decrypt using AES in CBC Mode using CRYP_AES_CBC() function.
  25:./Library/stm32f4xx_cryp_aes.c ****   
  26:./Library/stm32f4xx_cryp_aes.c ****    (#) Encrypt and decrypt using AES in CTR Mode using CRYP_AES_CTR() function.
  27:./Library/stm32f4xx_cryp_aes.c **** 
  28:./Library/stm32f4xx_cryp_aes.c ****    (#) Encrypt and decrypt using AES in GCM Mode using CRYP_AES_GCM() function.
  29:./Library/stm32f4xx_cryp_aes.c ****    
ARM GAS  /tmp/ccsH6HZr.s 			page 2


  30:./Library/stm32f4xx_cryp_aes.c ****    (#) Encrypt and decrypt using AES in CCM Mode using CRYP_AES_CCM() function.
  31:./Library/stm32f4xx_cryp_aes.c ****      
  32:./Library/stm32f4xx_cryp_aes.c **** @endverbatim
  33:./Library/stm32f4xx_cryp_aes.c ****   *
  34:./Library/stm32f4xx_cryp_aes.c ****   ******************************************************************************
  35:./Library/stm32f4xx_cryp_aes.c ****   * @attention
  36:./Library/stm32f4xx_cryp_aes.c ****   *
  37:./Library/stm32f4xx_cryp_aes.c ****   * Copyright (c) 2016 STMicroelectronics.
  38:./Library/stm32f4xx_cryp_aes.c ****   * All rights reserved.
  39:./Library/stm32f4xx_cryp_aes.c ****   *
  40:./Library/stm32f4xx_cryp_aes.c ****   * This software is licensed under terms that can be found in the LICENSE file
  41:./Library/stm32f4xx_cryp_aes.c ****   * in the root directory of this software component.
  42:./Library/stm32f4xx_cryp_aes.c ****   * If no LICENSE file comes with this software, it is provided AS-IS.
  43:./Library/stm32f4xx_cryp_aes.c ****   *
  44:./Library/stm32f4xx_cryp_aes.c ****   ******************************************************************************
  45:./Library/stm32f4xx_cryp_aes.c ****   */
  46:./Library/stm32f4xx_cryp_aes.c **** 
  47:./Library/stm32f4xx_cryp_aes.c **** /* Includes ------------------------------------------------------------------*/
  48:./Library/stm32f4xx_cryp_aes.c **** #include "stm32f4xx_cryp.h"
  49:./Library/stm32f4xx_cryp_aes.c **** 
  50:./Library/stm32f4xx_cryp_aes.c **** /** @addtogroup STM32F4xx_StdPeriph_Driver
  51:./Library/stm32f4xx_cryp_aes.c ****   * @{
  52:./Library/stm32f4xx_cryp_aes.c ****   */
  53:./Library/stm32f4xx_cryp_aes.c **** 
  54:./Library/stm32f4xx_cryp_aes.c **** /** @defgroup CRYP 
  55:./Library/stm32f4xx_cryp_aes.c ****   * @brief CRYP driver modules
  56:./Library/stm32f4xx_cryp_aes.c ****   * @{
  57:./Library/stm32f4xx_cryp_aes.c ****   */
  58:./Library/stm32f4xx_cryp_aes.c **** 
  59:./Library/stm32f4xx_cryp_aes.c **** /* Private typedef -----------------------------------------------------------*/
  60:./Library/stm32f4xx_cryp_aes.c **** /* Private define ------------------------------------------------------------*/
  61:./Library/stm32f4xx_cryp_aes.c **** #define AESBUSY_TIMEOUT    ((uint32_t) 0x00010000)
  62:./Library/stm32f4xx_cryp_aes.c **** 
  63:./Library/stm32f4xx_cryp_aes.c **** /* Private macro -------------------------------------------------------------*/
  64:./Library/stm32f4xx_cryp_aes.c **** /* Private variables ---------------------------------------------------------*/
  65:./Library/stm32f4xx_cryp_aes.c **** /* Private function prototypes -----------------------------------------------*/
  66:./Library/stm32f4xx_cryp_aes.c **** /* Private functions ---------------------------------------------------------*/
  67:./Library/stm32f4xx_cryp_aes.c **** 
  68:./Library/stm32f4xx_cryp_aes.c **** /** @defgroup CRYP_Private_Functions
  69:./Library/stm32f4xx_cryp_aes.c ****   * @{
  70:./Library/stm32f4xx_cryp_aes.c ****   */ 
  71:./Library/stm32f4xx_cryp_aes.c **** 
  72:./Library/stm32f4xx_cryp_aes.c **** /** @defgroup CRYP_Group6 High Level AES functions
  73:./Library/stm32f4xx_cryp_aes.c ****  *  @brief   High Level AES functions 
  74:./Library/stm32f4xx_cryp_aes.c ****  *
  75:./Library/stm32f4xx_cryp_aes.c **** @verbatim   
  76:./Library/stm32f4xx_cryp_aes.c ****  ===============================================================================
  77:./Library/stm32f4xx_cryp_aes.c ****                        ##### High Level AES functions #####
  78:./Library/stm32f4xx_cryp_aes.c ****  ===============================================================================
  79:./Library/stm32f4xx_cryp_aes.c **** 
  80:./Library/stm32f4xx_cryp_aes.c **** @endverbatim
  81:./Library/stm32f4xx_cryp_aes.c ****   * @{
  82:./Library/stm32f4xx_cryp_aes.c ****   */
  83:./Library/stm32f4xx_cryp_aes.c **** 
  84:./Library/stm32f4xx_cryp_aes.c **** /**
  85:./Library/stm32f4xx_cryp_aes.c ****   * @brief  Encrypt and decrypt using AES in ECB Mode
  86:./Library/stm32f4xx_cryp_aes.c ****   * @param  Mode: encryption or decryption Mode.
ARM GAS  /tmp/ccsH6HZr.s 			page 3


  87:./Library/stm32f4xx_cryp_aes.c ****   *          This parameter can be one of the following values:
  88:./Library/stm32f4xx_cryp_aes.c ****   *            @arg MODE_ENCRYPT: Encryption
  89:./Library/stm32f4xx_cryp_aes.c ****   *            @arg MODE_DECRYPT: Decryption
  90:./Library/stm32f4xx_cryp_aes.c ****   * @param  Key: Key used for AES algorithm.
  91:./Library/stm32f4xx_cryp_aes.c ****   * @param  Keysize: length of the Key, must be a 128, 192 or 256.
  92:./Library/stm32f4xx_cryp_aes.c ****   * @param  Input: pointer to the Input buffer.
  93:./Library/stm32f4xx_cryp_aes.c ****   * @param  Ilength: length of the Input buffer, must be a multiple of 16.
  94:./Library/stm32f4xx_cryp_aes.c ****   * @param  Output: pointer to the returned buffer.
  95:./Library/stm32f4xx_cryp_aes.c ****   * @retval An ErrorStatus enumeration value:
  96:./Library/stm32f4xx_cryp_aes.c ****   *          - SUCCESS: Operation done
  97:./Library/stm32f4xx_cryp_aes.c ****   *          - ERROR: Operation failed
  98:./Library/stm32f4xx_cryp_aes.c ****   */
  99:./Library/stm32f4xx_cryp_aes.c **** ErrorStatus CRYP_AES_ECB(uint8_t Mode, uint8_t* Key, uint16_t Keysize,
 100:./Library/stm32f4xx_cryp_aes.c ****                          uint8_t* Input, uint32_t Ilength, uint8_t* Output)
 101:./Library/stm32f4xx_cryp_aes.c **** {
  30              		.loc 1 101 1 view -0
  31              		.cfi_startproc
  32              		@ args = 8, pretend = 0, frame = 56
  33              		@ frame_needed = 0, uses_anonymous_args = 0
  34              		.loc 1 101 1 is_stmt 0 view .LVU1
  35 0000 2DE9F043 		push	{r4, r5, r6, r7, r8, r9, lr}
  36              	.LCFI0:
  37              		.cfi_def_cfa_offset 28
  38              		.cfi_offset 4, -28
  39              		.cfi_offset 5, -24
  40              		.cfi_offset 6, -20
  41              		.cfi_offset 7, -16
  42              		.cfi_offset 8, -12
  43              		.cfi_offset 9, -8
  44              		.cfi_offset 14, -4
  45 0004 8FB0     		sub	sp, sp, #60
  46              	.LCFI1:
  47              		.cfi_def_cfa_offset 88
  48 0006 0646     		mov	r6, r0
  49 0008 0D46     		mov	r5, r1
  50 000a 9146     		mov	r9, r2
  51 000c DDF85880 		ldr	r8, [sp, #88]
 102:./Library/stm32f4xx_cryp_aes.c ****   CRYP_InitTypeDef AES_CRYP_InitStructure;
  52              		.loc 1 102 3 is_stmt 1 view .LVU2
 103:./Library/stm32f4xx_cryp_aes.c ****   CRYP_KeyInitTypeDef AES_CRYP_KeyInitStructure;
  53              		.loc 1 103 3 view .LVU3
 104:./Library/stm32f4xx_cryp_aes.c ****   __IO uint32_t counter = 0;
  54              		.loc 1 104 3 view .LVU4
  55              		.loc 1 104 17 is_stmt 0 view .LVU5
  56 0010 0022     		movs	r2, #0
  57              	.LVL1:
  58              		.loc 1 104 17 view .LVU6
  59 0012 0192     		str	r2, [sp, #4]
 105:./Library/stm32f4xx_cryp_aes.c ****   uint32_t busystatus = 0;
  60              		.loc 1 105 3 is_stmt 1 view .LVU7
  61              	.LVL2:
 106:./Library/stm32f4xx_cryp_aes.c ****   ErrorStatus status = SUCCESS;
  62              		.loc 1 106 3 view .LVU8
 107:./Library/stm32f4xx_cryp_aes.c ****   uint32_t keyaddr    = (uint32_t)Key;
  63              		.loc 1 107 3 view .LVU9
 108:./Library/stm32f4xx_cryp_aes.c ****   uint32_t inputaddr  = (uint32_t)Input;
  64              		.loc 1 108 3 view .LVU10
ARM GAS  /tmp/ccsH6HZr.s 			page 4


  65              		.loc 1 108 12 is_stmt 0 view .LVU11
  66 0014 1C46     		mov	r4, r3
  67              	.LVL3:
 109:./Library/stm32f4xx_cryp_aes.c ****   uint32_t outputaddr = (uint32_t)Output;
  68              		.loc 1 109 3 is_stmt 1 view .LVU12
  69              		.loc 1 109 12 is_stmt 0 view .LVU13
  70 0016 179F     		ldr	r7, [sp, #92]
  71              	.LVL4:
 110:./Library/stm32f4xx_cryp_aes.c ****   uint32_t i = 0;
  72              		.loc 1 110 3 is_stmt 1 view .LVU14
 111:./Library/stm32f4xx_cryp_aes.c **** 
 112:./Library/stm32f4xx_cryp_aes.c ****   /* Crypto structures initialisation*/
 113:./Library/stm32f4xx_cryp_aes.c ****   CRYP_KeyStructInit(&AES_CRYP_KeyInitStructure);
  73              		.loc 1 113 3 view .LVU15
  74 0018 02A8     		add	r0, sp, #8
  75              	.LVL5:
  76              		.loc 1 113 3 is_stmt 0 view .LVU16
  77 001a FFF7FEFF 		bl	CRYP_KeyStructInit
  78              	.LVL6:
 114:./Library/stm32f4xx_cryp_aes.c **** 
 115:./Library/stm32f4xx_cryp_aes.c ****   switch(Keysize)
  79              		.loc 1 115 3 is_stmt 1 view .LVU17
  80 001e B9F1C00F 		cmp	r9, #192
  81 0022 39D0     		beq	.L2
  82 0024 B9F5807F 		cmp	r9, #256
  83 0028 4CD0     		beq	.L3
  84 002a B9F1800F 		cmp	r9, #128
  85 002e 24D0     		beq	.L18
  86              	.LVL7:
  87              	.L4:
 116:./Library/stm32f4xx_cryp_aes.c ****   {
 117:./Library/stm32f4xx_cryp_aes.c ****     case 128:
 118:./Library/stm32f4xx_cryp_aes.c ****     AES_CRYP_InitStructure.CRYP_KeySize = CRYP_KeySize_128b;
 119:./Library/stm32f4xx_cryp_aes.c ****     AES_CRYP_KeyInitStructure.CRYP_Key2Left = __REV(*(uint32_t*)(keyaddr));
 120:./Library/stm32f4xx_cryp_aes.c ****     keyaddr+=4;
 121:./Library/stm32f4xx_cryp_aes.c ****     AES_CRYP_KeyInitStructure.CRYP_Key2Right= __REV(*(uint32_t*)(keyaddr));
 122:./Library/stm32f4xx_cryp_aes.c ****     keyaddr+=4;
 123:./Library/stm32f4xx_cryp_aes.c ****     AES_CRYP_KeyInitStructure.CRYP_Key3Left = __REV(*(uint32_t*)(keyaddr));
 124:./Library/stm32f4xx_cryp_aes.c ****     keyaddr+=4;
 125:./Library/stm32f4xx_cryp_aes.c ****     AES_CRYP_KeyInitStructure.CRYP_Key3Right= __REV(*(uint32_t*)(keyaddr));
 126:./Library/stm32f4xx_cryp_aes.c ****     break;
 127:./Library/stm32f4xx_cryp_aes.c ****     case 192:
 128:./Library/stm32f4xx_cryp_aes.c ****     AES_CRYP_InitStructure.CRYP_KeySize  = CRYP_KeySize_192b;
 129:./Library/stm32f4xx_cryp_aes.c ****     AES_CRYP_KeyInitStructure.CRYP_Key1Left = __REV(*(uint32_t*)(keyaddr));
 130:./Library/stm32f4xx_cryp_aes.c ****     keyaddr+=4;
 131:./Library/stm32f4xx_cryp_aes.c ****     AES_CRYP_KeyInitStructure.CRYP_Key1Right= __REV(*(uint32_t*)(keyaddr));
 132:./Library/stm32f4xx_cryp_aes.c ****     keyaddr+=4;
 133:./Library/stm32f4xx_cryp_aes.c ****     AES_CRYP_KeyInitStructure.CRYP_Key2Left = __REV(*(uint32_t*)(keyaddr));
 134:./Library/stm32f4xx_cryp_aes.c ****     keyaddr+=4;
 135:./Library/stm32f4xx_cryp_aes.c ****     AES_CRYP_KeyInitStructure.CRYP_Key2Right= __REV(*(uint32_t*)(keyaddr));
 136:./Library/stm32f4xx_cryp_aes.c ****     keyaddr+=4;
 137:./Library/stm32f4xx_cryp_aes.c ****     AES_CRYP_KeyInitStructure.CRYP_Key3Left = __REV(*(uint32_t*)(keyaddr));
 138:./Library/stm32f4xx_cryp_aes.c ****     keyaddr+=4;
 139:./Library/stm32f4xx_cryp_aes.c ****     AES_CRYP_KeyInitStructure.CRYP_Key3Right= __REV(*(uint32_t*)(keyaddr));
 140:./Library/stm32f4xx_cryp_aes.c ****     break;
 141:./Library/stm32f4xx_cryp_aes.c ****     case 256:
 142:./Library/stm32f4xx_cryp_aes.c ****     AES_CRYP_InitStructure.CRYP_KeySize  = CRYP_KeySize_256b;
ARM GAS  /tmp/ccsH6HZr.s 			page 5


 143:./Library/stm32f4xx_cryp_aes.c ****     AES_CRYP_KeyInitStructure.CRYP_Key0Left = __REV(*(uint32_t*)(keyaddr));
 144:./Library/stm32f4xx_cryp_aes.c ****     keyaddr+=4;
 145:./Library/stm32f4xx_cryp_aes.c ****     AES_CRYP_KeyInitStructure.CRYP_Key0Right= __REV(*(uint32_t*)(keyaddr));
 146:./Library/stm32f4xx_cryp_aes.c ****     keyaddr+=4;
 147:./Library/stm32f4xx_cryp_aes.c ****     AES_CRYP_KeyInitStructure.CRYP_Key1Left = __REV(*(uint32_t*)(keyaddr));
 148:./Library/stm32f4xx_cryp_aes.c ****     keyaddr+=4;
 149:./Library/stm32f4xx_cryp_aes.c ****     AES_CRYP_KeyInitStructure.CRYP_Key1Right= __REV(*(uint32_t*)(keyaddr));
 150:./Library/stm32f4xx_cryp_aes.c ****     keyaddr+=4;
 151:./Library/stm32f4xx_cryp_aes.c ****     AES_CRYP_KeyInitStructure.CRYP_Key2Left = __REV(*(uint32_t*)(keyaddr));
 152:./Library/stm32f4xx_cryp_aes.c ****     keyaddr+=4;
 153:./Library/stm32f4xx_cryp_aes.c ****     AES_CRYP_KeyInitStructure.CRYP_Key2Right= __REV(*(uint32_t*)(keyaddr));
 154:./Library/stm32f4xx_cryp_aes.c ****     keyaddr+=4;
 155:./Library/stm32f4xx_cryp_aes.c ****     AES_CRYP_KeyInitStructure.CRYP_Key3Left = __REV(*(uint32_t*)(keyaddr));
 156:./Library/stm32f4xx_cryp_aes.c ****     keyaddr+=4;
 157:./Library/stm32f4xx_cryp_aes.c ****     AES_CRYP_KeyInitStructure.CRYP_Key3Right= __REV(*(uint32_t*)(keyaddr));
 158:./Library/stm32f4xx_cryp_aes.c ****     break;
 159:./Library/stm32f4xx_cryp_aes.c ****     default:
 160:./Library/stm32f4xx_cryp_aes.c ****     break;
 161:./Library/stm32f4xx_cryp_aes.c ****   }
 162:./Library/stm32f4xx_cryp_aes.c **** 
 163:./Library/stm32f4xx_cryp_aes.c ****   /*------------------ AES Decryption ------------------*/
 164:./Library/stm32f4xx_cryp_aes.c ****   if(Mode == MODE_DECRYPT) /* AES decryption */
  88              		.loc 1 164 3 view .LVU18
  89              		.loc 1 164 5 is_stmt 0 view .LVU19
  90 0030 002E     		cmp	r6, #0
  91 0032 63D1     		bne	.L5
 165:./Library/stm32f4xx_cryp_aes.c ****   {
 166:./Library/stm32f4xx_cryp_aes.c ****     /* Flush IN/OUT FIFOs */
 167:./Library/stm32f4xx_cryp_aes.c ****     CRYP_FIFOFlush();
  92              		.loc 1 167 5 is_stmt 1 view .LVU20
  93 0034 FFF7FEFF 		bl	CRYP_FIFOFlush
  94              	.LVL8:
 168:./Library/stm32f4xx_cryp_aes.c **** 
 169:./Library/stm32f4xx_cryp_aes.c ****     /* Crypto Init for Key preparation for decryption process */
 170:./Library/stm32f4xx_cryp_aes.c ****     AES_CRYP_InitStructure.CRYP_AlgoDir = CRYP_AlgoDir_Decrypt;
  95              		.loc 1 170 5 view .LVU21
  96              		.loc 1 170 41 is_stmt 0 view .LVU22
  97 0038 0423     		movs	r3, #4
  98 003a 0A93     		str	r3, [sp, #40]
 171:./Library/stm32f4xx_cryp_aes.c ****     AES_CRYP_InitStructure.CRYP_AlgoMode = CRYP_AlgoMode_AES_Key;
  99              		.loc 1 171 5 is_stmt 1 view .LVU23
 100              		.loc 1 171 42 is_stmt 0 view .LVU24
 101 003c 3823     		movs	r3, #56
 102 003e 0B93     		str	r3, [sp, #44]
 172:./Library/stm32f4xx_cryp_aes.c ****     AES_CRYP_InitStructure.CRYP_DataType = CRYP_DataType_32b;
 103              		.loc 1 172 5 is_stmt 1 view .LVU25
 104              		.loc 1 172 42 is_stmt 0 view .LVU26
 105 0040 0023     		movs	r3, #0
 106 0042 0C93     		str	r3, [sp, #48]
 173:./Library/stm32f4xx_cryp_aes.c ****     CRYP_Init(&AES_CRYP_InitStructure);
 107              		.loc 1 173 5 is_stmt 1 view .LVU27
 108 0044 0AA8     		add	r0, sp, #40
 109 0046 FFF7FEFF 		bl	CRYP_Init
 110              	.LVL9:
 174:./Library/stm32f4xx_cryp_aes.c **** 
 175:./Library/stm32f4xx_cryp_aes.c ****     /* Key Initialisation */
 176:./Library/stm32f4xx_cryp_aes.c ****     CRYP_KeyInit(&AES_CRYP_KeyInitStructure);
ARM GAS  /tmp/ccsH6HZr.s 			page 6


 111              		.loc 1 176 5 view .LVU28
 112 004a 02A8     		add	r0, sp, #8
 113 004c FFF7FEFF 		bl	CRYP_KeyInit
 114              	.LVL10:
 177:./Library/stm32f4xx_cryp_aes.c **** 
 178:./Library/stm32f4xx_cryp_aes.c ****     /* Enable Crypto processor */
 179:./Library/stm32f4xx_cryp_aes.c ****     CRYP_Cmd(ENABLE);
 115              		.loc 1 179 5 view .LVU29
 116 0050 0120     		movs	r0, #1
 117 0052 FFF7FEFF 		bl	CRYP_Cmd
 118              	.LVL11:
 119              	.L7:
 180:./Library/stm32f4xx_cryp_aes.c **** 
 181:./Library/stm32f4xx_cryp_aes.c ****     /* wait until the Busy flag is RESET */
 182:./Library/stm32f4xx_cryp_aes.c ****     do
 120              		.loc 1 182 5 discriminator 2 view .LVU30
 183:./Library/stm32f4xx_cryp_aes.c ****     {
 184:./Library/stm32f4xx_cryp_aes.c ****       busystatus = CRYP_GetFlagStatus(CRYP_FLAG_BUSY);
 121              		.loc 1 184 7 discriminator 2 view .LVU31
 122              		.loc 1 184 20 is_stmt 0 discriminator 2 view .LVU32
 123 0056 1020     		movs	r0, #16
 124 0058 FFF7FEFF 		bl	CRYP_GetFlagStatus
 125              	.LVL12:
 185:./Library/stm32f4xx_cryp_aes.c ****       counter++;
 126              		.loc 1 185 7 is_stmt 1 discriminator 2 view .LVU33
 127              		.loc 1 185 14 is_stmt 0 discriminator 2 view .LVU34
 128 005c 019B     		ldr	r3, [sp, #4]
 129 005e 0133     		adds	r3, r3, #1
 130 0060 0193     		str	r3, [sp, #4]
 186:./Library/stm32f4xx_cryp_aes.c ****     }while ((counter != AESBUSY_TIMEOUT) && (busystatus != RESET));
 131              		.loc 1 186 42 is_stmt 1 discriminator 2 view .LVU35
 132              		.loc 1 186 22 is_stmt 0 discriminator 2 view .LVU36
 133 0062 019B     		ldr	r3, [sp, #4]
 134              		.loc 1 186 42 discriminator 2 view .LVU37
 135 0064 B3F5803F 		cmp	r3, #65536
 136 0068 01D0     		beq	.L6
 137              		.loc 1 186 42 discriminator 1 view .LVU38
 138 006a 0028     		cmp	r0, #0
 139 006c F3D1     		bne	.L7
 140              	.L6:
 187:./Library/stm32f4xx_cryp_aes.c **** 
 188:./Library/stm32f4xx_cryp_aes.c ****     if (busystatus != RESET)
 141              		.loc 1 188 5 is_stmt 1 view .LVU39
 142              		.loc 1 188 8 is_stmt 0 view .LVU40
 143 006e 0028     		cmp	r0, #0
 144 0070 4AD1     		bne	.L8
 189:./Library/stm32f4xx_cryp_aes.c ****    {
 190:./Library/stm32f4xx_cryp_aes.c ****        status = ERROR;
 191:./Library/stm32f4xx_cryp_aes.c ****     }
 192:./Library/stm32f4xx_cryp_aes.c ****     else
 193:./Library/stm32f4xx_cryp_aes.c ****     {
 194:./Library/stm32f4xx_cryp_aes.c ****       /* Crypto Init for decryption process */  
 195:./Library/stm32f4xx_cryp_aes.c ****       AES_CRYP_InitStructure.CRYP_AlgoDir = CRYP_AlgoDir_Decrypt;
 145              		.loc 1 195 7 is_stmt 1 view .LVU41
 146              		.loc 1 195 43 is_stmt 0 view .LVU42
 147 0072 0423     		movs	r3, #4
 148 0074 0A93     		str	r3, [sp, #40]
ARM GAS  /tmp/ccsH6HZr.s 			page 7


 106:./Library/stm32f4xx_cryp_aes.c ****   uint32_t keyaddr    = (uint32_t)Key;
 149              		.loc 1 106 15 view .LVU43
 150 0076 0126     		movs	r6, #1
 151 0078 46E0     		b	.L8
 152              	.LVL13:
 153              	.L18:
 118:./Library/stm32f4xx_cryp_aes.c ****     AES_CRYP_KeyInitStructure.CRYP_Key2Left = __REV(*(uint32_t*)(keyaddr));
 154              		.loc 1 118 5 is_stmt 1 view .LVU44
 118:./Library/stm32f4xx_cryp_aes.c ****     AES_CRYP_KeyInitStructure.CRYP_Key2Left = __REV(*(uint32_t*)(keyaddr));
 155              		.loc 1 118 41 is_stmt 0 view .LVU45
 156 007a 0023     		movs	r3, #0
 157 007c 0D93     		str	r3, [sp, #52]
 119:./Library/stm32f4xx_cryp_aes.c ****     keyaddr+=4;
 158              		.loc 1 119 5 is_stmt 1 view .LVU46
 119:./Library/stm32f4xx_cryp_aes.c ****     keyaddr+=4;
 159              		.loc 1 119 47 is_stmt 0 view .LVU47
 160 007e 2B68     		ldr	r3, [r5]
 161              	.LVL14:
 162              	.LBB230:
 163              	.LBI230:
 164              		.file 2 "./CORE/core_cmInstr.h"
   1:./CORE/core_cmInstr.h **** /**************************************************************************//**
   2:./CORE/core_cmInstr.h ****  * @file     core_cmInstr.h
   3:./CORE/core_cmInstr.h ****  * @brief    CMSIS Cortex-M Core Instruction Access Header File
   4:./CORE/core_cmInstr.h ****  * @version  V4.10
   5:./CORE/core_cmInstr.h ****  * @date     18. March 2015
   6:./CORE/core_cmInstr.h ****  *
   7:./CORE/core_cmInstr.h ****  * @note
   8:./CORE/core_cmInstr.h ****  *
   9:./CORE/core_cmInstr.h ****  ******************************************************************************/
  10:./CORE/core_cmInstr.h **** /* Copyright (c) 2009 - 2014 ARM LIMITED
  11:./CORE/core_cmInstr.h **** 
  12:./CORE/core_cmInstr.h ****    All rights reserved.
  13:./CORE/core_cmInstr.h ****    Redistribution and use in source and binary forms, with or without
  14:./CORE/core_cmInstr.h ****    modification, are permitted provided that the following conditions are met:
  15:./CORE/core_cmInstr.h ****    - Redistributions of source code must retain the above copyright
  16:./CORE/core_cmInstr.h ****      notice, this list of conditions and the following disclaimer.
  17:./CORE/core_cmInstr.h ****    - Redistributions in binary form must reproduce the above copyright
  18:./CORE/core_cmInstr.h ****      notice, this list of conditions and the following disclaimer in the
  19:./CORE/core_cmInstr.h ****      documentation and/or other materials provided with the distribution.
  20:./CORE/core_cmInstr.h ****    - Neither the name of ARM nor the names of its contributors may be used
  21:./CORE/core_cmInstr.h ****      to endorse or promote products derived from this software without
  22:./CORE/core_cmInstr.h ****      specific prior written permission.
  23:./CORE/core_cmInstr.h ****    *
  24:./CORE/core_cmInstr.h ****    THIS SOFTWARE IS PROVIDED BY THE COPYRIGHT HOLDERS AND CONTRIBUTORS "AS IS"
  25:./CORE/core_cmInstr.h ****    AND ANY EXPRESS OR IMPLIED WARRANTIES, INCLUDING, BUT NOT LIMITED TO, THE
  26:./CORE/core_cmInstr.h ****    IMPLIED WARRANTIES OF MERCHANTABILITY AND FITNESS FOR A PARTICULAR PURPOSE
  27:./CORE/core_cmInstr.h ****    ARE DISCLAIMED. IN NO EVENT SHALL COPYRIGHT HOLDERS AND CONTRIBUTORS BE
  28:./CORE/core_cmInstr.h ****    LIABLE FOR ANY DIRECT, INDIRECT, INCIDENTAL, SPECIAL, EXEMPLARY, OR
  29:./CORE/core_cmInstr.h ****    CONSEQUENTIAL DAMAGES (INCLUDING, BUT NOT LIMITED TO, PROCUREMENT OF
  30:./CORE/core_cmInstr.h ****    SUBSTITUTE GOODS OR SERVICES; LOSS OF USE, DATA, OR PROFITS; OR BUSINESS
  31:./CORE/core_cmInstr.h ****    INTERRUPTION) HOWEVER CAUSED AND ON ANY THEORY OF LIABILITY, WHETHER IN
  32:./CORE/core_cmInstr.h ****    CONTRACT, STRICT LIABILITY, OR TORT (INCLUDING NEGLIGENCE OR OTHERWISE)
  33:./CORE/core_cmInstr.h ****    ARISING IN ANY WAY OUT OF THE USE OF THIS SOFTWARE, EVEN IF ADVISED OF THE
  34:./CORE/core_cmInstr.h ****    POSSIBILITY OF SUCH DAMAGE.
  35:./CORE/core_cmInstr.h ****    ---------------------------------------------------------------------------*/
  36:./CORE/core_cmInstr.h **** 
ARM GAS  /tmp/ccsH6HZr.s 			page 8


  37:./CORE/core_cmInstr.h **** 
  38:./CORE/core_cmInstr.h **** #ifndef __CORE_CMINSTR_H
  39:./CORE/core_cmInstr.h **** #define __CORE_CMINSTR_H
  40:./CORE/core_cmInstr.h **** 
  41:./CORE/core_cmInstr.h **** 
  42:./CORE/core_cmInstr.h **** /* ##########################  Core Instruction Access  ######################### */
  43:./CORE/core_cmInstr.h **** /** \defgroup CMSIS_Core_InstructionInterface CMSIS Core Instruction Interface
  44:./CORE/core_cmInstr.h ****   Access to dedicated instructions
  45:./CORE/core_cmInstr.h ****   @{
  46:./CORE/core_cmInstr.h **** */
  47:./CORE/core_cmInstr.h **** 
  48:./CORE/core_cmInstr.h **** #if   defined ( __CC_ARM ) /*------------------RealView Compiler -----------------*/
  49:./CORE/core_cmInstr.h **** /* ARM armcc specific functions */
  50:./CORE/core_cmInstr.h **** 
  51:./CORE/core_cmInstr.h **** #if (__ARMCC_VERSION < 400677)
  52:./CORE/core_cmInstr.h ****   #error "Please use ARM Compiler Toolchain V4.0.677 or later!"
  53:./CORE/core_cmInstr.h **** #endif
  54:./CORE/core_cmInstr.h **** 
  55:./CORE/core_cmInstr.h **** 
  56:./CORE/core_cmInstr.h **** /** \brief  No Operation
  57:./CORE/core_cmInstr.h **** 
  58:./CORE/core_cmInstr.h ****     No Operation does nothing. This instruction can be used for code alignment purposes.
  59:./CORE/core_cmInstr.h ****  */
  60:./CORE/core_cmInstr.h **** #define __NOP                             __nop
  61:./CORE/core_cmInstr.h **** 
  62:./CORE/core_cmInstr.h **** 
  63:./CORE/core_cmInstr.h **** /** \brief  Wait For Interrupt
  64:./CORE/core_cmInstr.h **** 
  65:./CORE/core_cmInstr.h ****     Wait For Interrupt is a hint instruction that suspends execution
  66:./CORE/core_cmInstr.h ****     until one of a number of events occurs.
  67:./CORE/core_cmInstr.h ****  */
  68:./CORE/core_cmInstr.h **** #define __WFI                             __wfi
  69:./CORE/core_cmInstr.h **** 
  70:./CORE/core_cmInstr.h **** 
  71:./CORE/core_cmInstr.h **** /** \brief  Wait For Event
  72:./CORE/core_cmInstr.h **** 
  73:./CORE/core_cmInstr.h ****     Wait For Event is a hint instruction that permits the processor to enter
  74:./CORE/core_cmInstr.h ****     a low-power state until one of a number of events occurs.
  75:./CORE/core_cmInstr.h ****  */
  76:./CORE/core_cmInstr.h **** #define __WFE                             __wfe
  77:./CORE/core_cmInstr.h **** 
  78:./CORE/core_cmInstr.h **** 
  79:./CORE/core_cmInstr.h **** /** \brief  Send Event
  80:./CORE/core_cmInstr.h **** 
  81:./CORE/core_cmInstr.h ****     Send Event is a hint instruction. It causes an event to be signaled to the CPU.
  82:./CORE/core_cmInstr.h ****  */
  83:./CORE/core_cmInstr.h **** #define __SEV                             __sev
  84:./CORE/core_cmInstr.h **** 
  85:./CORE/core_cmInstr.h **** 
  86:./CORE/core_cmInstr.h **** /** \brief  Instruction Synchronization Barrier
  87:./CORE/core_cmInstr.h **** 
  88:./CORE/core_cmInstr.h ****     Instruction Synchronization Barrier flushes the pipeline in the processor,
  89:./CORE/core_cmInstr.h ****     so that all instructions following the ISB are fetched from cache or
  90:./CORE/core_cmInstr.h ****     memory, after the instruction has been completed.
  91:./CORE/core_cmInstr.h ****  */
  92:./CORE/core_cmInstr.h **** #define __ISB() do {\
  93:./CORE/core_cmInstr.h ****                    __schedule_barrier();\
ARM GAS  /tmp/ccsH6HZr.s 			page 9


  94:./CORE/core_cmInstr.h ****                    __isb(0xF);\
  95:./CORE/core_cmInstr.h ****                    __schedule_barrier();\
  96:./CORE/core_cmInstr.h ****                 } while (0)
  97:./CORE/core_cmInstr.h **** 
  98:./CORE/core_cmInstr.h **** /** \brief  Data Synchronization Barrier
  99:./CORE/core_cmInstr.h **** 
 100:./CORE/core_cmInstr.h ****     This function acts as a special kind of Data Memory Barrier.
 101:./CORE/core_cmInstr.h ****     It completes when all explicit memory accesses before this instruction complete.
 102:./CORE/core_cmInstr.h ****  */
 103:./CORE/core_cmInstr.h **** #define __DSB() do {\
 104:./CORE/core_cmInstr.h ****                    __schedule_barrier();\
 105:./CORE/core_cmInstr.h ****                    __dsb(0xF);\
 106:./CORE/core_cmInstr.h ****                    __schedule_barrier();\
 107:./CORE/core_cmInstr.h ****                 } while (0)
 108:./CORE/core_cmInstr.h **** 
 109:./CORE/core_cmInstr.h **** /** \brief  Data Memory Barrier
 110:./CORE/core_cmInstr.h **** 
 111:./CORE/core_cmInstr.h ****     This function ensures the apparent order of the explicit memory operations before
 112:./CORE/core_cmInstr.h ****     and after the instruction, without ensuring their completion.
 113:./CORE/core_cmInstr.h ****  */
 114:./CORE/core_cmInstr.h **** #define __DMB() do {\
 115:./CORE/core_cmInstr.h ****                    __schedule_barrier();\
 116:./CORE/core_cmInstr.h ****                    __dmb(0xF);\
 117:./CORE/core_cmInstr.h ****                    __schedule_barrier();\
 118:./CORE/core_cmInstr.h ****                 } while (0)
 119:./CORE/core_cmInstr.h **** 
 120:./CORE/core_cmInstr.h **** /** \brief  Reverse byte order (32 bit)
 121:./CORE/core_cmInstr.h **** 
 122:./CORE/core_cmInstr.h ****     This function reverses the byte order in integer value.
 123:./CORE/core_cmInstr.h **** 
 124:./CORE/core_cmInstr.h ****     \param [in]    value  Value to reverse
 125:./CORE/core_cmInstr.h ****     \return               Reversed value
 126:./CORE/core_cmInstr.h ****  */
 127:./CORE/core_cmInstr.h **** #define __REV                             __rev
 128:./CORE/core_cmInstr.h **** 
 129:./CORE/core_cmInstr.h **** 
 130:./CORE/core_cmInstr.h **** /** \brief  Reverse byte order (16 bit)
 131:./CORE/core_cmInstr.h **** 
 132:./CORE/core_cmInstr.h ****     This function reverses the byte order in two unsigned short values.
 133:./CORE/core_cmInstr.h **** 
 134:./CORE/core_cmInstr.h ****     \param [in]    value  Value to reverse
 135:./CORE/core_cmInstr.h ****     \return               Reversed value
 136:./CORE/core_cmInstr.h ****  */
 137:./CORE/core_cmInstr.h **** #ifndef __NO_EMBEDDED_ASM
 138:./CORE/core_cmInstr.h **** __attribute__((section(".rev16_text"))) __STATIC_INLINE __ASM uint32_t __REV16(uint32_t value)
 139:./CORE/core_cmInstr.h **** {
 140:./CORE/core_cmInstr.h ****   rev16 r0, r0
 141:./CORE/core_cmInstr.h ****   bx lr
 142:./CORE/core_cmInstr.h **** }
 143:./CORE/core_cmInstr.h **** #endif
 144:./CORE/core_cmInstr.h **** 
 145:./CORE/core_cmInstr.h **** /** \brief  Reverse byte order in signed short value
 146:./CORE/core_cmInstr.h **** 
 147:./CORE/core_cmInstr.h ****     This function reverses the byte order in a signed short value with sign extension to integer.
 148:./CORE/core_cmInstr.h **** 
 149:./CORE/core_cmInstr.h ****     \param [in]    value  Value to reverse
 150:./CORE/core_cmInstr.h ****     \return               Reversed value
ARM GAS  /tmp/ccsH6HZr.s 			page 10


 151:./CORE/core_cmInstr.h ****  */
 152:./CORE/core_cmInstr.h **** #ifndef __NO_EMBEDDED_ASM
 153:./CORE/core_cmInstr.h **** __attribute__((section(".revsh_text"))) __STATIC_INLINE __ASM int32_t __REVSH(int32_t value)
 154:./CORE/core_cmInstr.h **** {
 155:./CORE/core_cmInstr.h ****   revsh r0, r0
 156:./CORE/core_cmInstr.h ****   bx lr
 157:./CORE/core_cmInstr.h **** }
 158:./CORE/core_cmInstr.h **** #endif
 159:./CORE/core_cmInstr.h **** 
 160:./CORE/core_cmInstr.h **** 
 161:./CORE/core_cmInstr.h **** /** \brief  Rotate Right in unsigned value (32 bit)
 162:./CORE/core_cmInstr.h **** 
 163:./CORE/core_cmInstr.h ****     This function Rotate Right (immediate) provides the value of the contents of a register rotated
 164:./CORE/core_cmInstr.h **** 
 165:./CORE/core_cmInstr.h ****     \param [in]    value  Value to rotate
 166:./CORE/core_cmInstr.h ****     \param [in]    value  Number of Bits to rotate
 167:./CORE/core_cmInstr.h ****     \return               Rotated value
 168:./CORE/core_cmInstr.h ****  */
 169:./CORE/core_cmInstr.h **** #define __ROR                             __ror
 170:./CORE/core_cmInstr.h **** 
 171:./CORE/core_cmInstr.h **** 
 172:./CORE/core_cmInstr.h **** /** \brief  Breakpoint
 173:./CORE/core_cmInstr.h **** 
 174:./CORE/core_cmInstr.h ****     This function causes the processor to enter Debug state.
 175:./CORE/core_cmInstr.h ****     Debug tools can use this to investigate system state when the instruction at a particular addre
 176:./CORE/core_cmInstr.h **** 
 177:./CORE/core_cmInstr.h ****     \param [in]    value  is ignored by the processor.
 178:./CORE/core_cmInstr.h ****                    If required, a debugger can use it to store additional information about the bre
 179:./CORE/core_cmInstr.h ****  */
 180:./CORE/core_cmInstr.h **** #define __BKPT(value)                       __breakpoint(value)
 181:./CORE/core_cmInstr.h **** 
 182:./CORE/core_cmInstr.h **** 
 183:./CORE/core_cmInstr.h **** /** \brief  Reverse bit order of value
 184:./CORE/core_cmInstr.h **** 
 185:./CORE/core_cmInstr.h ****     This function reverses the bit order of the given value.
 186:./CORE/core_cmInstr.h **** 
 187:./CORE/core_cmInstr.h ****     \param [in]    value  Value to reverse
 188:./CORE/core_cmInstr.h ****     \return               Reversed value
 189:./CORE/core_cmInstr.h ****  */
 190:./CORE/core_cmInstr.h **** #if       (__CORTEX_M >= 0x03) || (__CORTEX_SC >= 300)
 191:./CORE/core_cmInstr.h ****   #define __RBIT                          __rbit
 192:./CORE/core_cmInstr.h **** #else
 193:./CORE/core_cmInstr.h **** __attribute__((always_inline)) __STATIC_INLINE uint32_t __RBIT(uint32_t value)
 194:./CORE/core_cmInstr.h **** {
 195:./CORE/core_cmInstr.h ****   uint32_t result;
 196:./CORE/core_cmInstr.h ****   int32_t s = 4 /*sizeof(v)*/ * 8 - 1; // extra shift needed at end
 197:./CORE/core_cmInstr.h **** 
 198:./CORE/core_cmInstr.h ****   result = value;                      // r will be reversed bits of v; first get LSB of v
 199:./CORE/core_cmInstr.h ****   for (value >>= 1; value; value >>= 1)
 200:./CORE/core_cmInstr.h ****   {
 201:./CORE/core_cmInstr.h ****     result <<= 1;
 202:./CORE/core_cmInstr.h ****     result |= value & 1;
 203:./CORE/core_cmInstr.h ****     s--;
 204:./CORE/core_cmInstr.h ****   }
 205:./CORE/core_cmInstr.h ****   result <<= s;                       // shift when v's highest bits are zero
 206:./CORE/core_cmInstr.h ****   return(result);
 207:./CORE/core_cmInstr.h **** }
ARM GAS  /tmp/ccsH6HZr.s 			page 11


 208:./CORE/core_cmInstr.h **** #endif
 209:./CORE/core_cmInstr.h **** 
 210:./CORE/core_cmInstr.h **** 
 211:./CORE/core_cmInstr.h **** /** \brief  Count leading zeros
 212:./CORE/core_cmInstr.h **** 
 213:./CORE/core_cmInstr.h ****     This function counts the number of leading zeros of a data value.
 214:./CORE/core_cmInstr.h **** 
 215:./CORE/core_cmInstr.h ****     \param [in]  value  Value to count the leading zeros
 216:./CORE/core_cmInstr.h ****     \return             number of leading zeros in value
 217:./CORE/core_cmInstr.h ****  */
 218:./CORE/core_cmInstr.h **** #define __CLZ                             __clz
 219:./CORE/core_cmInstr.h **** 
 220:./CORE/core_cmInstr.h **** 
 221:./CORE/core_cmInstr.h **** #if       (__CORTEX_M >= 0x03) || (__CORTEX_SC >= 300)
 222:./CORE/core_cmInstr.h **** 
 223:./CORE/core_cmInstr.h **** /** \brief  LDR Exclusive (8 bit)
 224:./CORE/core_cmInstr.h **** 
 225:./CORE/core_cmInstr.h ****     This function executes a exclusive LDR instruction for 8 bit value.
 226:./CORE/core_cmInstr.h **** 
 227:./CORE/core_cmInstr.h ****     \param [in]    ptr  Pointer to data
 228:./CORE/core_cmInstr.h ****     \return             value of type uint8_t at (*ptr)
 229:./CORE/core_cmInstr.h ****  */
 230:./CORE/core_cmInstr.h **** #define __LDREXB(ptr)                     ((uint8_t ) __ldrex(ptr))
 231:./CORE/core_cmInstr.h **** 
 232:./CORE/core_cmInstr.h **** 
 233:./CORE/core_cmInstr.h **** /** \brief  LDR Exclusive (16 bit)
 234:./CORE/core_cmInstr.h **** 
 235:./CORE/core_cmInstr.h ****     This function executes a exclusive LDR instruction for 16 bit values.
 236:./CORE/core_cmInstr.h **** 
 237:./CORE/core_cmInstr.h ****     \param [in]    ptr  Pointer to data
 238:./CORE/core_cmInstr.h ****     \return        value of type uint16_t at (*ptr)
 239:./CORE/core_cmInstr.h ****  */
 240:./CORE/core_cmInstr.h **** #define __LDREXH(ptr)                     ((uint16_t) __ldrex(ptr))
 241:./CORE/core_cmInstr.h **** 
 242:./CORE/core_cmInstr.h **** 
 243:./CORE/core_cmInstr.h **** /** \brief  LDR Exclusive (32 bit)
 244:./CORE/core_cmInstr.h **** 
 245:./CORE/core_cmInstr.h ****     This function executes a exclusive LDR instruction for 32 bit values.
 246:./CORE/core_cmInstr.h **** 
 247:./CORE/core_cmInstr.h ****     \param [in]    ptr  Pointer to data
 248:./CORE/core_cmInstr.h ****     \return        value of type uint32_t at (*ptr)
 249:./CORE/core_cmInstr.h ****  */
 250:./CORE/core_cmInstr.h **** #define __LDREXW(ptr)                     ((uint32_t ) __ldrex(ptr))
 251:./CORE/core_cmInstr.h **** 
 252:./CORE/core_cmInstr.h **** 
 253:./CORE/core_cmInstr.h **** /** \brief  STR Exclusive (8 bit)
 254:./CORE/core_cmInstr.h **** 
 255:./CORE/core_cmInstr.h ****     This function executes a exclusive STR instruction for 8 bit values.
 256:./CORE/core_cmInstr.h **** 
 257:./CORE/core_cmInstr.h ****     \param [in]  value  Value to store
 258:./CORE/core_cmInstr.h ****     \param [in]    ptr  Pointer to location
 259:./CORE/core_cmInstr.h ****     \return          0  Function succeeded
 260:./CORE/core_cmInstr.h ****     \return          1  Function failed
 261:./CORE/core_cmInstr.h ****  */
 262:./CORE/core_cmInstr.h **** #define __STREXB(value, ptr)              __strex(value, ptr)
 263:./CORE/core_cmInstr.h **** 
 264:./CORE/core_cmInstr.h **** 
ARM GAS  /tmp/ccsH6HZr.s 			page 12


 265:./CORE/core_cmInstr.h **** /** \brief  STR Exclusive (16 bit)
 266:./CORE/core_cmInstr.h **** 
 267:./CORE/core_cmInstr.h ****     This function executes a exclusive STR instruction for 16 bit values.
 268:./CORE/core_cmInstr.h **** 
 269:./CORE/core_cmInstr.h ****     \param [in]  value  Value to store
 270:./CORE/core_cmInstr.h ****     \param [in]    ptr  Pointer to location
 271:./CORE/core_cmInstr.h ****     \return          0  Function succeeded
 272:./CORE/core_cmInstr.h ****     \return          1  Function failed
 273:./CORE/core_cmInstr.h ****  */
 274:./CORE/core_cmInstr.h **** #define __STREXH(value, ptr)              __strex(value, ptr)
 275:./CORE/core_cmInstr.h **** 
 276:./CORE/core_cmInstr.h **** 
 277:./CORE/core_cmInstr.h **** /** \brief  STR Exclusive (32 bit)
 278:./CORE/core_cmInstr.h **** 
 279:./CORE/core_cmInstr.h ****     This function executes a exclusive STR instruction for 32 bit values.
 280:./CORE/core_cmInstr.h **** 
 281:./CORE/core_cmInstr.h ****     \param [in]  value  Value to store
 282:./CORE/core_cmInstr.h ****     \param [in]    ptr  Pointer to location
 283:./CORE/core_cmInstr.h ****     \return          0  Function succeeded
 284:./CORE/core_cmInstr.h ****     \return          1  Function failed
 285:./CORE/core_cmInstr.h ****  */
 286:./CORE/core_cmInstr.h **** #define __STREXW(value, ptr)              __strex(value, ptr)
 287:./CORE/core_cmInstr.h **** 
 288:./CORE/core_cmInstr.h **** 
 289:./CORE/core_cmInstr.h **** /** \brief  Remove the exclusive lock
 290:./CORE/core_cmInstr.h **** 
 291:./CORE/core_cmInstr.h ****     This function removes the exclusive lock which is created by LDREX.
 292:./CORE/core_cmInstr.h **** 
 293:./CORE/core_cmInstr.h ****  */
 294:./CORE/core_cmInstr.h **** #define __CLREX                           __clrex
 295:./CORE/core_cmInstr.h **** 
 296:./CORE/core_cmInstr.h **** 
 297:./CORE/core_cmInstr.h **** /** \brief  Signed Saturate
 298:./CORE/core_cmInstr.h **** 
 299:./CORE/core_cmInstr.h ****     This function saturates a signed value.
 300:./CORE/core_cmInstr.h **** 
 301:./CORE/core_cmInstr.h ****     \param [in]  value  Value to be saturated
 302:./CORE/core_cmInstr.h ****     \param [in]    sat  Bit position to saturate to (1..32)
 303:./CORE/core_cmInstr.h ****     \return             Saturated value
 304:./CORE/core_cmInstr.h ****  */
 305:./CORE/core_cmInstr.h **** #define __SSAT                            __ssat
 306:./CORE/core_cmInstr.h **** 
 307:./CORE/core_cmInstr.h **** 
 308:./CORE/core_cmInstr.h **** /** \brief  Unsigned Saturate
 309:./CORE/core_cmInstr.h **** 
 310:./CORE/core_cmInstr.h ****     This function saturates an unsigned value.
 311:./CORE/core_cmInstr.h **** 
 312:./CORE/core_cmInstr.h ****     \param [in]  value  Value to be saturated
 313:./CORE/core_cmInstr.h ****     \param [in]    sat  Bit position to saturate to (0..31)
 314:./CORE/core_cmInstr.h ****     \return             Saturated value
 315:./CORE/core_cmInstr.h ****  */
 316:./CORE/core_cmInstr.h **** #define __USAT                            __usat
 317:./CORE/core_cmInstr.h **** 
 318:./CORE/core_cmInstr.h **** 
 319:./CORE/core_cmInstr.h **** /** \brief  Rotate Right with Extend (32 bit)
 320:./CORE/core_cmInstr.h **** 
 321:./CORE/core_cmInstr.h ****     This function moves each bit of a bitstring right by one bit.
ARM GAS  /tmp/ccsH6HZr.s 			page 13


 322:./CORE/core_cmInstr.h ****     The carry input is shifted in at the left end of the bitstring.
 323:./CORE/core_cmInstr.h **** 
 324:./CORE/core_cmInstr.h ****     \param [in]    value  Value to rotate
 325:./CORE/core_cmInstr.h ****     \return               Rotated value
 326:./CORE/core_cmInstr.h ****  */
 327:./CORE/core_cmInstr.h **** #ifndef __NO_EMBEDDED_ASM
 328:./CORE/core_cmInstr.h **** __attribute__((section(".rrx_text"))) __STATIC_INLINE __ASM uint32_t __RRX(uint32_t value)
 329:./CORE/core_cmInstr.h **** {
 330:./CORE/core_cmInstr.h ****   rrx r0, r0
 331:./CORE/core_cmInstr.h ****   bx lr
 332:./CORE/core_cmInstr.h **** }
 333:./CORE/core_cmInstr.h **** #endif
 334:./CORE/core_cmInstr.h **** 
 335:./CORE/core_cmInstr.h **** 
 336:./CORE/core_cmInstr.h **** /** \brief  LDRT Unprivileged (8 bit)
 337:./CORE/core_cmInstr.h **** 
 338:./CORE/core_cmInstr.h ****     This function executes a Unprivileged LDRT instruction for 8 bit value.
 339:./CORE/core_cmInstr.h **** 
 340:./CORE/core_cmInstr.h ****     \param [in]    ptr  Pointer to data
 341:./CORE/core_cmInstr.h ****     \return             value of type uint8_t at (*ptr)
 342:./CORE/core_cmInstr.h ****  */
 343:./CORE/core_cmInstr.h **** #define __LDRBT(ptr)                      ((uint8_t )  __ldrt(ptr))
 344:./CORE/core_cmInstr.h **** 
 345:./CORE/core_cmInstr.h **** 
 346:./CORE/core_cmInstr.h **** /** \brief  LDRT Unprivileged (16 bit)
 347:./CORE/core_cmInstr.h **** 
 348:./CORE/core_cmInstr.h ****     This function executes a Unprivileged LDRT instruction for 16 bit values.
 349:./CORE/core_cmInstr.h **** 
 350:./CORE/core_cmInstr.h ****     \param [in]    ptr  Pointer to data
 351:./CORE/core_cmInstr.h ****     \return        value of type uint16_t at (*ptr)
 352:./CORE/core_cmInstr.h ****  */
 353:./CORE/core_cmInstr.h **** #define __LDRHT(ptr)                      ((uint16_t)  __ldrt(ptr))
 354:./CORE/core_cmInstr.h **** 
 355:./CORE/core_cmInstr.h **** 
 356:./CORE/core_cmInstr.h **** /** \brief  LDRT Unprivileged (32 bit)
 357:./CORE/core_cmInstr.h **** 
 358:./CORE/core_cmInstr.h ****     This function executes a Unprivileged LDRT instruction for 32 bit values.
 359:./CORE/core_cmInstr.h **** 
 360:./CORE/core_cmInstr.h ****     \param [in]    ptr  Pointer to data
 361:./CORE/core_cmInstr.h ****     \return        value of type uint32_t at (*ptr)
 362:./CORE/core_cmInstr.h ****  */
 363:./CORE/core_cmInstr.h **** #define __LDRT(ptr)                       ((uint32_t ) __ldrt(ptr))
 364:./CORE/core_cmInstr.h **** 
 365:./CORE/core_cmInstr.h **** 
 366:./CORE/core_cmInstr.h **** /** \brief  STRT Unprivileged (8 bit)
 367:./CORE/core_cmInstr.h **** 
 368:./CORE/core_cmInstr.h ****     This function executes a Unprivileged STRT instruction for 8 bit values.
 369:./CORE/core_cmInstr.h **** 
 370:./CORE/core_cmInstr.h ****     \param [in]  value  Value to store
 371:./CORE/core_cmInstr.h ****     \param [in]    ptr  Pointer to location
 372:./CORE/core_cmInstr.h ****  */
 373:./CORE/core_cmInstr.h **** #define __STRBT(value, ptr)               __strt(value, ptr)
 374:./CORE/core_cmInstr.h **** 
 375:./CORE/core_cmInstr.h **** 
 376:./CORE/core_cmInstr.h **** /** \brief  STRT Unprivileged (16 bit)
 377:./CORE/core_cmInstr.h **** 
 378:./CORE/core_cmInstr.h ****     This function executes a Unprivileged STRT instruction for 16 bit values.
ARM GAS  /tmp/ccsH6HZr.s 			page 14


 379:./CORE/core_cmInstr.h **** 
 380:./CORE/core_cmInstr.h ****     \param [in]  value  Value to store
 381:./CORE/core_cmInstr.h ****     \param [in]    ptr  Pointer to location
 382:./CORE/core_cmInstr.h ****  */
 383:./CORE/core_cmInstr.h **** #define __STRHT(value, ptr)               __strt(value, ptr)
 384:./CORE/core_cmInstr.h **** 
 385:./CORE/core_cmInstr.h **** 
 386:./CORE/core_cmInstr.h **** /** \brief  STRT Unprivileged (32 bit)
 387:./CORE/core_cmInstr.h **** 
 388:./CORE/core_cmInstr.h ****     This function executes a Unprivileged STRT instruction for 32 bit values.
 389:./CORE/core_cmInstr.h **** 
 390:./CORE/core_cmInstr.h ****     \param [in]  value  Value to store
 391:./CORE/core_cmInstr.h ****     \param [in]    ptr  Pointer to location
 392:./CORE/core_cmInstr.h ****  */
 393:./CORE/core_cmInstr.h **** #define __STRT(value, ptr)                __strt(value, ptr)
 394:./CORE/core_cmInstr.h **** 
 395:./CORE/core_cmInstr.h **** #endif /* (__CORTEX_M >= 0x03) || (__CORTEX_SC >= 300) */
 396:./CORE/core_cmInstr.h **** 
 397:./CORE/core_cmInstr.h **** 
 398:./CORE/core_cmInstr.h **** #elif defined ( __GNUC__ ) /*------------------ GNU Compiler ---------------------*/
 399:./CORE/core_cmInstr.h **** /* GNU gcc specific functions */
 400:./CORE/core_cmInstr.h **** 
 401:./CORE/core_cmInstr.h **** /* Define macros for porting to both thumb1 and thumb2.
 402:./CORE/core_cmInstr.h ****  * For thumb1, use low register (r0-r7), specified by constrant "l"
 403:./CORE/core_cmInstr.h ****  * Otherwise, use general registers, specified by constrant "r" */
 404:./CORE/core_cmInstr.h **** #if defined (__thumb__) && !defined (__thumb2__)
 405:./CORE/core_cmInstr.h **** #define __CMSIS_GCC_OUT_REG(r) "=l" (r)
 406:./CORE/core_cmInstr.h **** #define __CMSIS_GCC_USE_REG(r) "l" (r)
 407:./CORE/core_cmInstr.h **** #else
 408:./CORE/core_cmInstr.h **** #define __CMSIS_GCC_OUT_REG(r) "=r" (r)
 409:./CORE/core_cmInstr.h **** #define __CMSIS_GCC_USE_REG(r) "r" (r)
 410:./CORE/core_cmInstr.h **** #endif
 411:./CORE/core_cmInstr.h **** 
 412:./CORE/core_cmInstr.h **** /** \brief  No Operation
 413:./CORE/core_cmInstr.h **** 
 414:./CORE/core_cmInstr.h ****     No Operation does nothing. This instruction can be used for code alignment purposes.
 415:./CORE/core_cmInstr.h ****  */
 416:./CORE/core_cmInstr.h **** __attribute__((always_inline)) __STATIC_INLINE void __NOP(void)
 417:./CORE/core_cmInstr.h **** {
 418:./CORE/core_cmInstr.h ****   __ASM volatile ("nop");
 419:./CORE/core_cmInstr.h **** }
 420:./CORE/core_cmInstr.h **** 
 421:./CORE/core_cmInstr.h **** 
 422:./CORE/core_cmInstr.h **** /** \brief  Wait For Interrupt
 423:./CORE/core_cmInstr.h **** 
 424:./CORE/core_cmInstr.h ****     Wait For Interrupt is a hint instruction that suspends execution
 425:./CORE/core_cmInstr.h ****     until one of a number of events occurs.
 426:./CORE/core_cmInstr.h ****  */
 427:./CORE/core_cmInstr.h **** __attribute__((always_inline)) __STATIC_INLINE void __WFI(void)
 428:./CORE/core_cmInstr.h **** {
 429:./CORE/core_cmInstr.h ****   __ASM volatile ("wfi");
 430:./CORE/core_cmInstr.h **** }
 431:./CORE/core_cmInstr.h **** 
 432:./CORE/core_cmInstr.h **** 
 433:./CORE/core_cmInstr.h **** /** \brief  Wait For Event
 434:./CORE/core_cmInstr.h **** 
 435:./CORE/core_cmInstr.h ****     Wait For Event is a hint instruction that permits the processor to enter
ARM GAS  /tmp/ccsH6HZr.s 			page 15


 436:./CORE/core_cmInstr.h ****     a low-power state until one of a number of events occurs.
 437:./CORE/core_cmInstr.h ****  */
 438:./CORE/core_cmInstr.h **** __attribute__((always_inline)) __STATIC_INLINE void __WFE(void)
 439:./CORE/core_cmInstr.h **** {
 440:./CORE/core_cmInstr.h ****   __ASM volatile ("wfe");
 441:./CORE/core_cmInstr.h **** }
 442:./CORE/core_cmInstr.h **** 
 443:./CORE/core_cmInstr.h **** 
 444:./CORE/core_cmInstr.h **** /** \brief  Send Event
 445:./CORE/core_cmInstr.h **** 
 446:./CORE/core_cmInstr.h ****     Send Event is a hint instruction. It causes an event to be signaled to the CPU.
 447:./CORE/core_cmInstr.h ****  */
 448:./CORE/core_cmInstr.h **** __attribute__((always_inline)) __STATIC_INLINE void __SEV(void)
 449:./CORE/core_cmInstr.h **** {
 450:./CORE/core_cmInstr.h ****   __ASM volatile ("sev");
 451:./CORE/core_cmInstr.h **** }
 452:./CORE/core_cmInstr.h **** 
 453:./CORE/core_cmInstr.h **** 
 454:./CORE/core_cmInstr.h **** /** \brief  Instruction Synchronization Barrier
 455:./CORE/core_cmInstr.h **** 
 456:./CORE/core_cmInstr.h ****     Instruction Synchronization Barrier flushes the pipeline in the processor,
 457:./CORE/core_cmInstr.h ****     so that all instructions following the ISB are fetched from cache or
 458:./CORE/core_cmInstr.h ****     memory, after the instruction has been completed.
 459:./CORE/core_cmInstr.h ****  */
 460:./CORE/core_cmInstr.h **** __attribute__((always_inline)) __STATIC_INLINE void __ISB(void)
 461:./CORE/core_cmInstr.h **** {
 462:./CORE/core_cmInstr.h ****   __ASM volatile ("isb 0xF":::"memory");
 463:./CORE/core_cmInstr.h **** }
 464:./CORE/core_cmInstr.h **** 
 465:./CORE/core_cmInstr.h **** 
 466:./CORE/core_cmInstr.h **** /** \brief  Data Synchronization Barrier
 467:./CORE/core_cmInstr.h **** 
 468:./CORE/core_cmInstr.h ****     This function acts as a special kind of Data Memory Barrier.
 469:./CORE/core_cmInstr.h ****     It completes when all explicit memory accesses before this instruction complete.
 470:./CORE/core_cmInstr.h ****  */
 471:./CORE/core_cmInstr.h **** __attribute__((always_inline)) __STATIC_INLINE void __DSB(void)
 472:./CORE/core_cmInstr.h **** {
 473:./CORE/core_cmInstr.h ****   __ASM volatile ("dsb 0xF":::"memory");
 474:./CORE/core_cmInstr.h **** }
 475:./CORE/core_cmInstr.h **** 
 476:./CORE/core_cmInstr.h **** 
 477:./CORE/core_cmInstr.h **** /** \brief  Data Memory Barrier
 478:./CORE/core_cmInstr.h **** 
 479:./CORE/core_cmInstr.h ****     This function ensures the apparent order of the explicit memory operations before
 480:./CORE/core_cmInstr.h ****     and after the instruction, without ensuring their completion.
 481:./CORE/core_cmInstr.h ****  */
 482:./CORE/core_cmInstr.h **** __attribute__((always_inline)) __STATIC_INLINE void __DMB(void)
 483:./CORE/core_cmInstr.h **** {
 484:./CORE/core_cmInstr.h ****   __ASM volatile ("dmb 0xF":::"memory");
 485:./CORE/core_cmInstr.h **** }
 486:./CORE/core_cmInstr.h **** 
 487:./CORE/core_cmInstr.h **** 
 488:./CORE/core_cmInstr.h **** /** \brief  Reverse byte order (32 bit)
 489:./CORE/core_cmInstr.h **** 
 490:./CORE/core_cmInstr.h ****     This function reverses the byte order in integer value.
 491:./CORE/core_cmInstr.h **** 
 492:./CORE/core_cmInstr.h ****     \param [in]    value  Value to reverse
ARM GAS  /tmp/ccsH6HZr.s 			page 16


 493:./CORE/core_cmInstr.h ****     \return               Reversed value
 494:./CORE/core_cmInstr.h ****  */
 495:./CORE/core_cmInstr.h **** __attribute__((always_inline)) __STATIC_INLINE uint32_t __REV(uint32_t value)
 165              		.loc 2 495 57 is_stmt 1 view .LVU48
 166              	.LBB231:
 496:./CORE/core_cmInstr.h **** {
 497:./CORE/core_cmInstr.h **** #if (__GNUC__ > 4) || (__GNUC__ == 4 && __GNUC_MINOR__ >= 5)
 498:./CORE/core_cmInstr.h ****   return __builtin_bswap32(value);
 167              		.loc 2 498 3 view .LVU49
 168              		.loc 2 498 10 is_stmt 0 view .LVU50
 169 0080 1BBA     		rev	r3, r3
 170              	.LVL15:
 171              		.loc 2 498 10 view .LVU51
 172              	.LBE231:
 173              	.LBE230:
 119:./Library/stm32f4xx_cryp_aes.c ****     keyaddr+=4;
 174              		.loc 1 119 45 view .LVU52
 175 0082 0693     		str	r3, [sp, #24]
 120:./Library/stm32f4xx_cryp_aes.c ****     AES_CRYP_KeyInitStructure.CRYP_Key2Right= __REV(*(uint32_t*)(keyaddr));
 176              		.loc 1 120 5 is_stmt 1 view .LVU53
 177              	.LVL16:
 121:./Library/stm32f4xx_cryp_aes.c ****     keyaddr+=4;
 178              		.loc 1 121 5 view .LVU54
 121:./Library/stm32f4xx_cryp_aes.c ****     keyaddr+=4;
 179              		.loc 1 121 47 is_stmt 0 view .LVU55
 180 0084 6B68     		ldr	r3, [r5, #4]
 181              	.LVL17:
 182              	.LBB232:
 183              	.LBI232:
 495:./CORE/core_cmInstr.h **** {
 184              		.loc 2 495 57 is_stmt 1 view .LVU56
 185              	.LBB233:
 186              		.loc 2 498 3 view .LVU57
 187              		.loc 2 498 10 is_stmt 0 view .LVU58
 188 0086 1BBA     		rev	r3, r3
 189              	.LVL18:
 190              		.loc 2 498 10 view .LVU59
 191              	.LBE233:
 192              	.LBE232:
 121:./Library/stm32f4xx_cryp_aes.c ****     keyaddr+=4;
 193              		.loc 1 121 45 view .LVU60
 194 0088 0793     		str	r3, [sp, #28]
 122:./Library/stm32f4xx_cryp_aes.c ****     AES_CRYP_KeyInitStructure.CRYP_Key3Left = __REV(*(uint32_t*)(keyaddr));
 195              		.loc 1 122 5 is_stmt 1 view .LVU61
 196              	.LVL19:
 123:./Library/stm32f4xx_cryp_aes.c ****     keyaddr+=4;
 197              		.loc 1 123 5 view .LVU62
 123:./Library/stm32f4xx_cryp_aes.c ****     keyaddr+=4;
 198              		.loc 1 123 47 is_stmt 0 view .LVU63
 199 008a AB68     		ldr	r3, [r5, #8]
 200              	.LVL20:
 201              	.LBB234:
 202              	.LBI234:
 495:./CORE/core_cmInstr.h **** {
 203              		.loc 2 495 57 is_stmt 1 view .LVU64
 204              	.LBB235:
 205              		.loc 2 498 3 view .LVU65
ARM GAS  /tmp/ccsH6HZr.s 			page 17


 206              		.loc 2 498 10 is_stmt 0 view .LVU66
 207 008c 1BBA     		rev	r3, r3
 208              	.LVL21:
 209              		.loc 2 498 10 view .LVU67
 210              	.LBE235:
 211              	.LBE234:
 123:./Library/stm32f4xx_cryp_aes.c ****     keyaddr+=4;
 212              		.loc 1 123 45 view .LVU68
 213 008e 0893     		str	r3, [sp, #32]
 124:./Library/stm32f4xx_cryp_aes.c ****     AES_CRYP_KeyInitStructure.CRYP_Key3Right= __REV(*(uint32_t*)(keyaddr));
 214              		.loc 1 124 5 is_stmt 1 view .LVU69
 215              	.LVL22:
 125:./Library/stm32f4xx_cryp_aes.c ****     break;
 216              		.loc 1 125 5 view .LVU70
 125:./Library/stm32f4xx_cryp_aes.c ****     break;
 217              		.loc 1 125 47 is_stmt 0 view .LVU71
 218 0090 EB68     		ldr	r3, [r5, #12]
 219              	.LVL23:
 220              	.LBB236:
 221              	.LBI236:
 495:./CORE/core_cmInstr.h **** {
 222              		.loc 2 495 57 is_stmt 1 view .LVU72
 223              	.LBB237:
 224              		.loc 2 498 3 view .LVU73
 225              		.loc 2 498 10 is_stmt 0 view .LVU74
 226 0092 1BBA     		rev	r3, r3
 227              	.LVL24:
 228              		.loc 2 498 10 view .LVU75
 229              	.LBE237:
 230              	.LBE236:
 125:./Library/stm32f4xx_cryp_aes.c ****     break;
 231              		.loc 1 125 45 view .LVU76
 232 0094 0993     		str	r3, [sp, #36]
 126:./Library/stm32f4xx_cryp_aes.c ****     case 192:
 233              		.loc 1 126 5 is_stmt 1 view .LVU77
 234 0096 CBE7     		b	.L4
 235              	.LVL25:
 236              	.L2:
 128:./Library/stm32f4xx_cryp_aes.c ****     AES_CRYP_KeyInitStructure.CRYP_Key1Left = __REV(*(uint32_t*)(keyaddr));
 237              		.loc 1 128 5 view .LVU78
 128:./Library/stm32f4xx_cryp_aes.c ****     AES_CRYP_KeyInitStructure.CRYP_Key1Left = __REV(*(uint32_t*)(keyaddr));
 238              		.loc 1 128 42 is_stmt 0 view .LVU79
 239 0098 4FF48073 		mov	r3, #256
 240 009c 0D93     		str	r3, [sp, #52]
 129:./Library/stm32f4xx_cryp_aes.c ****     keyaddr+=4;
 241              		.loc 1 129 5 is_stmt 1 view .LVU80
 129:./Library/stm32f4xx_cryp_aes.c ****     keyaddr+=4;
 242              		.loc 1 129 47 is_stmt 0 view .LVU81
 243 009e 2B68     		ldr	r3, [r5]
 244              	.LVL26:
 245              	.LBB238:
 246              	.LBI238:
 495:./CORE/core_cmInstr.h **** {
 247              		.loc 2 495 57 is_stmt 1 view .LVU82
 248              	.LBB239:
 249              		.loc 2 498 3 view .LVU83
 250              		.loc 2 498 10 is_stmt 0 view .LVU84
ARM GAS  /tmp/ccsH6HZr.s 			page 18


 251 00a0 1BBA     		rev	r3, r3
 252              	.LVL27:
 253              		.loc 2 498 10 view .LVU85
 254              	.LBE239:
 255              	.LBE238:
 129:./Library/stm32f4xx_cryp_aes.c ****     keyaddr+=4;
 256              		.loc 1 129 45 view .LVU86
 257 00a2 0493     		str	r3, [sp, #16]
 130:./Library/stm32f4xx_cryp_aes.c ****     AES_CRYP_KeyInitStructure.CRYP_Key1Right= __REV(*(uint32_t*)(keyaddr));
 258              		.loc 1 130 5 is_stmt 1 view .LVU87
 259              	.LVL28:
 131:./Library/stm32f4xx_cryp_aes.c ****     keyaddr+=4;
 260              		.loc 1 131 5 view .LVU88
 131:./Library/stm32f4xx_cryp_aes.c ****     keyaddr+=4;
 261              		.loc 1 131 47 is_stmt 0 view .LVU89
 262 00a4 6B68     		ldr	r3, [r5, #4]
 263              	.LVL29:
 264              	.LBB240:
 265              	.LBI240:
 495:./CORE/core_cmInstr.h **** {
 266              		.loc 2 495 57 is_stmt 1 view .LVU90
 267              	.LBB241:
 268              		.loc 2 498 3 view .LVU91
 269              		.loc 2 498 10 is_stmt 0 view .LVU92
 270 00a6 1BBA     		rev	r3, r3
 271              	.LVL30:
 272              		.loc 2 498 10 view .LVU93
 273              	.LBE241:
 274              	.LBE240:
 131:./Library/stm32f4xx_cryp_aes.c ****     keyaddr+=4;
 275              		.loc 1 131 45 view .LVU94
 276 00a8 0593     		str	r3, [sp, #20]
 132:./Library/stm32f4xx_cryp_aes.c ****     AES_CRYP_KeyInitStructure.CRYP_Key2Left = __REV(*(uint32_t*)(keyaddr));
 277              		.loc 1 132 5 is_stmt 1 view .LVU95
 278              	.LVL31:
 133:./Library/stm32f4xx_cryp_aes.c ****     keyaddr+=4;
 279              		.loc 1 133 5 view .LVU96
 133:./Library/stm32f4xx_cryp_aes.c ****     keyaddr+=4;
 280              		.loc 1 133 47 is_stmt 0 view .LVU97
 281 00aa AB68     		ldr	r3, [r5, #8]
 282              	.LVL32:
 283              	.LBB242:
 284              	.LBI242:
 495:./CORE/core_cmInstr.h **** {
 285              		.loc 2 495 57 is_stmt 1 view .LVU98
 286              	.LBB243:
 287              		.loc 2 498 3 view .LVU99
 288              		.loc 2 498 10 is_stmt 0 view .LVU100
 289 00ac 1BBA     		rev	r3, r3
 290              	.LVL33:
 291              		.loc 2 498 10 view .LVU101
 292              	.LBE243:
 293              	.LBE242:
 133:./Library/stm32f4xx_cryp_aes.c ****     keyaddr+=4;
 294              		.loc 1 133 45 view .LVU102
 295 00ae 0693     		str	r3, [sp, #24]
 134:./Library/stm32f4xx_cryp_aes.c ****     AES_CRYP_KeyInitStructure.CRYP_Key2Right= __REV(*(uint32_t*)(keyaddr));
ARM GAS  /tmp/ccsH6HZr.s 			page 19


 296              		.loc 1 134 5 is_stmt 1 view .LVU103
 297              	.LVL34:
 135:./Library/stm32f4xx_cryp_aes.c ****     keyaddr+=4;
 298              		.loc 1 135 5 view .LVU104
 135:./Library/stm32f4xx_cryp_aes.c ****     keyaddr+=4;
 299              		.loc 1 135 47 is_stmt 0 view .LVU105
 300 00b0 EB68     		ldr	r3, [r5, #12]
 301              	.LVL35:
 302              	.LBB244:
 303              	.LBI244:
 495:./CORE/core_cmInstr.h **** {
 304              		.loc 2 495 57 is_stmt 1 view .LVU106
 305              	.LBB245:
 306              		.loc 2 498 3 view .LVU107
 307              		.loc 2 498 10 is_stmt 0 view .LVU108
 308 00b2 1BBA     		rev	r3, r3
 309              	.LVL36:
 310              		.loc 2 498 10 view .LVU109
 311              	.LBE245:
 312              	.LBE244:
 135:./Library/stm32f4xx_cryp_aes.c ****     keyaddr+=4;
 313              		.loc 1 135 45 view .LVU110
 314 00b4 0793     		str	r3, [sp, #28]
 136:./Library/stm32f4xx_cryp_aes.c ****     AES_CRYP_KeyInitStructure.CRYP_Key3Left = __REV(*(uint32_t*)(keyaddr));
 315              		.loc 1 136 5 is_stmt 1 view .LVU111
 316              	.LVL37:
 137:./Library/stm32f4xx_cryp_aes.c ****     keyaddr+=4;
 317              		.loc 1 137 5 view .LVU112
 137:./Library/stm32f4xx_cryp_aes.c ****     keyaddr+=4;
 318              		.loc 1 137 47 is_stmt 0 view .LVU113
 319 00b6 2B69     		ldr	r3, [r5, #16]
 320              	.LVL38:
 321              	.LBB246:
 322              	.LBI246:
 495:./CORE/core_cmInstr.h **** {
 323              		.loc 2 495 57 is_stmt 1 view .LVU114
 324              	.LBB247:
 325              		.loc 2 498 3 view .LVU115
 326              		.loc 2 498 10 is_stmt 0 view .LVU116
 327 00b8 1BBA     		rev	r3, r3
 328              	.LVL39:
 329              		.loc 2 498 10 view .LVU117
 330              	.LBE247:
 331              	.LBE246:
 137:./Library/stm32f4xx_cryp_aes.c ****     keyaddr+=4;
 332              		.loc 1 137 45 view .LVU118
 333 00ba 0893     		str	r3, [sp, #32]
 138:./Library/stm32f4xx_cryp_aes.c ****     AES_CRYP_KeyInitStructure.CRYP_Key3Right= __REV(*(uint32_t*)(keyaddr));
 334              		.loc 1 138 5 is_stmt 1 view .LVU119
 335              	.LVL40:
 139:./Library/stm32f4xx_cryp_aes.c ****     break;
 336              		.loc 1 139 5 view .LVU120
 139:./Library/stm32f4xx_cryp_aes.c ****     break;
 337              		.loc 1 139 47 is_stmt 0 view .LVU121
 338 00bc 6B69     		ldr	r3, [r5, #20]
 339              	.LVL41:
 340              	.LBB248:
ARM GAS  /tmp/ccsH6HZr.s 			page 20


 341              	.LBI248:
 495:./CORE/core_cmInstr.h **** {
 342              		.loc 2 495 57 is_stmt 1 view .LVU122
 343              	.LBB249:
 344              		.loc 2 498 3 view .LVU123
 345              		.loc 2 498 10 is_stmt 0 view .LVU124
 346 00be 1BBA     		rev	r3, r3
 347              	.LVL42:
 348              		.loc 2 498 10 view .LVU125
 349              	.LBE249:
 350              	.LBE248:
 139:./Library/stm32f4xx_cryp_aes.c ****     break;
 351              		.loc 1 139 45 view .LVU126
 352 00c0 0993     		str	r3, [sp, #36]
 140:./Library/stm32f4xx_cryp_aes.c ****     case 256:
 353              		.loc 1 140 5 is_stmt 1 view .LVU127
 354 00c2 B5E7     		b	.L4
 355              	.LVL43:
 356              	.L3:
 142:./Library/stm32f4xx_cryp_aes.c ****     AES_CRYP_KeyInitStructure.CRYP_Key0Left = __REV(*(uint32_t*)(keyaddr));
 357              		.loc 1 142 5 view .LVU128
 142:./Library/stm32f4xx_cryp_aes.c ****     AES_CRYP_KeyInitStructure.CRYP_Key0Left = __REV(*(uint32_t*)(keyaddr));
 358              		.loc 1 142 42 is_stmt 0 view .LVU129
 359 00c4 4FF40073 		mov	r3, #512
 360 00c8 0D93     		str	r3, [sp, #52]
 143:./Library/stm32f4xx_cryp_aes.c ****     keyaddr+=4;
 361              		.loc 1 143 5 is_stmt 1 view .LVU130
 143:./Library/stm32f4xx_cryp_aes.c ****     keyaddr+=4;
 362              		.loc 1 143 47 is_stmt 0 view .LVU131
 363 00ca 2B68     		ldr	r3, [r5]
 364              	.LVL44:
 365              	.LBB250:
 366              	.LBI250:
 495:./CORE/core_cmInstr.h **** {
 367              		.loc 2 495 57 is_stmt 1 view .LVU132
 368              	.LBB251:
 369              		.loc 2 498 3 view .LVU133
 370              		.loc 2 498 10 is_stmt 0 view .LVU134
 371 00cc 1BBA     		rev	r3, r3
 372              	.LVL45:
 373              		.loc 2 498 10 view .LVU135
 374              	.LBE251:
 375              	.LBE250:
 143:./Library/stm32f4xx_cryp_aes.c ****     keyaddr+=4;
 376              		.loc 1 143 45 view .LVU136
 377 00ce 0293     		str	r3, [sp, #8]
 144:./Library/stm32f4xx_cryp_aes.c ****     AES_CRYP_KeyInitStructure.CRYP_Key0Right= __REV(*(uint32_t*)(keyaddr));
 378              		.loc 1 144 5 is_stmt 1 view .LVU137
 379              	.LVL46:
 145:./Library/stm32f4xx_cryp_aes.c ****     keyaddr+=4;
 380              		.loc 1 145 5 view .LVU138
 145:./Library/stm32f4xx_cryp_aes.c ****     keyaddr+=4;
 381              		.loc 1 145 47 is_stmt 0 view .LVU139
 382 00d0 6B68     		ldr	r3, [r5, #4]
 383              	.LVL47:
 384              	.LBB252:
 385              	.LBI252:
ARM GAS  /tmp/ccsH6HZr.s 			page 21


 495:./CORE/core_cmInstr.h **** {
 386              		.loc 2 495 57 is_stmt 1 view .LVU140
 387              	.LBB253:
 388              		.loc 2 498 3 view .LVU141
 389              		.loc 2 498 10 is_stmt 0 view .LVU142
 390 00d2 1BBA     		rev	r3, r3
 391              	.LVL48:
 392              		.loc 2 498 10 view .LVU143
 393              	.LBE253:
 394              	.LBE252:
 145:./Library/stm32f4xx_cryp_aes.c ****     keyaddr+=4;
 395              		.loc 1 145 45 view .LVU144
 396 00d4 0393     		str	r3, [sp, #12]
 146:./Library/stm32f4xx_cryp_aes.c ****     AES_CRYP_KeyInitStructure.CRYP_Key1Left = __REV(*(uint32_t*)(keyaddr));
 397              		.loc 1 146 5 is_stmt 1 view .LVU145
 398              	.LVL49:
 147:./Library/stm32f4xx_cryp_aes.c ****     keyaddr+=4;
 399              		.loc 1 147 5 view .LVU146
 147:./Library/stm32f4xx_cryp_aes.c ****     keyaddr+=4;
 400              		.loc 1 147 47 is_stmt 0 view .LVU147
 401 00d6 AB68     		ldr	r3, [r5, #8]
 402              	.LVL50:
 403              	.LBB254:
 404              	.LBI254:
 495:./CORE/core_cmInstr.h **** {
 405              		.loc 2 495 57 is_stmt 1 view .LVU148
 406              	.LBB255:
 407              		.loc 2 498 3 view .LVU149
 408              		.loc 2 498 10 is_stmt 0 view .LVU150
 409 00d8 1BBA     		rev	r3, r3
 410              	.LVL51:
 411              		.loc 2 498 10 view .LVU151
 412              	.LBE255:
 413              	.LBE254:
 147:./Library/stm32f4xx_cryp_aes.c ****     keyaddr+=4;
 414              		.loc 1 147 45 view .LVU152
 415 00da 0493     		str	r3, [sp, #16]
 148:./Library/stm32f4xx_cryp_aes.c ****     AES_CRYP_KeyInitStructure.CRYP_Key1Right= __REV(*(uint32_t*)(keyaddr));
 416              		.loc 1 148 5 is_stmt 1 view .LVU153
 417              	.LVL52:
 149:./Library/stm32f4xx_cryp_aes.c ****     keyaddr+=4;
 418              		.loc 1 149 5 view .LVU154
 149:./Library/stm32f4xx_cryp_aes.c ****     keyaddr+=4;
 419              		.loc 1 149 47 is_stmt 0 view .LVU155
 420 00dc EB68     		ldr	r3, [r5, #12]
 421              	.LVL53:
 422              	.LBB256:
 423              	.LBI256:
 495:./CORE/core_cmInstr.h **** {
 424              		.loc 2 495 57 is_stmt 1 view .LVU156
 425              	.LBB257:
 426              		.loc 2 498 3 view .LVU157
 427              		.loc 2 498 10 is_stmt 0 view .LVU158
 428 00de 1BBA     		rev	r3, r3
 429              	.LVL54:
 430              		.loc 2 498 10 view .LVU159
 431              	.LBE257:
ARM GAS  /tmp/ccsH6HZr.s 			page 22


 432              	.LBE256:
 149:./Library/stm32f4xx_cryp_aes.c ****     keyaddr+=4;
 433              		.loc 1 149 45 view .LVU160
 434 00e0 0593     		str	r3, [sp, #20]
 150:./Library/stm32f4xx_cryp_aes.c ****     AES_CRYP_KeyInitStructure.CRYP_Key2Left = __REV(*(uint32_t*)(keyaddr));
 435              		.loc 1 150 5 is_stmt 1 view .LVU161
 436              	.LVL55:
 151:./Library/stm32f4xx_cryp_aes.c ****     keyaddr+=4;
 437              		.loc 1 151 5 view .LVU162
 151:./Library/stm32f4xx_cryp_aes.c ****     keyaddr+=4;
 438              		.loc 1 151 47 is_stmt 0 view .LVU163
 439 00e2 2B69     		ldr	r3, [r5, #16]
 440              	.LVL56:
 441              	.LBB258:
 442              	.LBI258:
 495:./CORE/core_cmInstr.h **** {
 443              		.loc 2 495 57 is_stmt 1 view .LVU164
 444              	.LBB259:
 445              		.loc 2 498 3 view .LVU165
 446              		.loc 2 498 10 is_stmt 0 view .LVU166
 447 00e4 1BBA     		rev	r3, r3
 448              	.LVL57:
 449              		.loc 2 498 10 view .LVU167
 450              	.LBE259:
 451              	.LBE258:
 151:./Library/stm32f4xx_cryp_aes.c ****     keyaddr+=4;
 452              		.loc 1 151 45 view .LVU168
 453 00e6 0693     		str	r3, [sp, #24]
 152:./Library/stm32f4xx_cryp_aes.c ****     AES_CRYP_KeyInitStructure.CRYP_Key2Right= __REV(*(uint32_t*)(keyaddr));
 454              		.loc 1 152 5 is_stmt 1 view .LVU169
 455              	.LVL58:
 153:./Library/stm32f4xx_cryp_aes.c ****     keyaddr+=4;
 456              		.loc 1 153 5 view .LVU170
 153:./Library/stm32f4xx_cryp_aes.c ****     keyaddr+=4;
 457              		.loc 1 153 47 is_stmt 0 view .LVU171
 458 00e8 6B69     		ldr	r3, [r5, #20]
 459              	.LVL59:
 460              	.LBB260:
 461              	.LBI260:
 495:./CORE/core_cmInstr.h **** {
 462              		.loc 2 495 57 is_stmt 1 view .LVU172
 463              	.LBB261:
 464              		.loc 2 498 3 view .LVU173
 465              		.loc 2 498 10 is_stmt 0 view .LVU174
 466 00ea 1BBA     		rev	r3, r3
 467              	.LVL60:
 468              		.loc 2 498 10 view .LVU175
 469              	.LBE261:
 470              	.LBE260:
 153:./Library/stm32f4xx_cryp_aes.c ****     keyaddr+=4;
 471              		.loc 1 153 45 view .LVU176
 472 00ec 0793     		str	r3, [sp, #28]
 154:./Library/stm32f4xx_cryp_aes.c ****     AES_CRYP_KeyInitStructure.CRYP_Key3Left = __REV(*(uint32_t*)(keyaddr));
 473              		.loc 1 154 5 is_stmt 1 view .LVU177
 474              	.LVL61:
 155:./Library/stm32f4xx_cryp_aes.c ****     keyaddr+=4;
 475              		.loc 1 155 5 view .LVU178
ARM GAS  /tmp/ccsH6HZr.s 			page 23


 155:./Library/stm32f4xx_cryp_aes.c ****     keyaddr+=4;
 476              		.loc 1 155 47 is_stmt 0 view .LVU179
 477 00ee AB69     		ldr	r3, [r5, #24]
 478              	.LVL62:
 479              	.LBB262:
 480              	.LBI262:
 495:./CORE/core_cmInstr.h **** {
 481              		.loc 2 495 57 is_stmt 1 view .LVU180
 482              	.LBB263:
 483              		.loc 2 498 3 view .LVU181
 484              		.loc 2 498 10 is_stmt 0 view .LVU182
 485 00f0 1BBA     		rev	r3, r3
 486              	.LVL63:
 487              		.loc 2 498 10 view .LVU183
 488              	.LBE263:
 489              	.LBE262:
 155:./Library/stm32f4xx_cryp_aes.c ****     keyaddr+=4;
 490              		.loc 1 155 45 view .LVU184
 491 00f2 0893     		str	r3, [sp, #32]
 156:./Library/stm32f4xx_cryp_aes.c ****     AES_CRYP_KeyInitStructure.CRYP_Key3Right= __REV(*(uint32_t*)(keyaddr));
 492              		.loc 1 156 5 is_stmt 1 view .LVU185
 493              	.LVL64:
 157:./Library/stm32f4xx_cryp_aes.c ****     break;
 494              		.loc 1 157 5 view .LVU186
 157:./Library/stm32f4xx_cryp_aes.c ****     break;
 495              		.loc 1 157 47 is_stmt 0 view .LVU187
 496 00f4 EB69     		ldr	r3, [r5, #28]
 497              	.LVL65:
 498              	.LBB264:
 499              	.LBI264:
 495:./CORE/core_cmInstr.h **** {
 500              		.loc 2 495 57 is_stmt 1 view .LVU188
 501              	.LBB265:
 502              		.loc 2 498 3 view .LVU189
 503              		.loc 2 498 10 is_stmt 0 view .LVU190
 504 00f6 1BBA     		rev	r3, r3
 505              	.LVL66:
 506              		.loc 2 498 10 view .LVU191
 507              	.LBE265:
 508              	.LBE264:
 157:./Library/stm32f4xx_cryp_aes.c ****     break;
 509              		.loc 1 157 45 view .LVU192
 510 00f8 0993     		str	r3, [sp, #36]
 158:./Library/stm32f4xx_cryp_aes.c ****     default:
 511              		.loc 1 158 5 is_stmt 1 view .LVU193
 512 00fa 99E7     		b	.L4
 513              	.LVL67:
 514              	.L5:
 196:./Library/stm32f4xx_cryp_aes.c ****     }
 197:./Library/stm32f4xx_cryp_aes.c ****   }
 198:./Library/stm32f4xx_cryp_aes.c ****   /*------------------ AES Encryption ------------------*/
 199:./Library/stm32f4xx_cryp_aes.c ****   else /* AES encryption */
 200:./Library/stm32f4xx_cryp_aes.c ****   {
 201:./Library/stm32f4xx_cryp_aes.c **** 
 202:./Library/stm32f4xx_cryp_aes.c ****     CRYP_KeyInit(&AES_CRYP_KeyInitStructure);
 515              		.loc 1 202 5 view .LVU194
 516 00fc 02A8     		add	r0, sp, #8
ARM GAS  /tmp/ccsH6HZr.s 			page 24


 517 00fe FFF7FEFF 		bl	CRYP_KeyInit
 518              	.LVL68:
 203:./Library/stm32f4xx_cryp_aes.c **** 
 204:./Library/stm32f4xx_cryp_aes.c ****     /* Crypto Init for Encryption process */
 205:./Library/stm32f4xx_cryp_aes.c ****     AES_CRYP_InitStructure.CRYP_AlgoDir  = CRYP_AlgoDir_Encrypt;
 519              		.loc 1 205 5 view .LVU195
 520              		.loc 1 205 42 is_stmt 0 view .LVU196
 521 0102 0023     		movs	r3, #0
 522 0104 0A93     		str	r3, [sp, #40]
 106:./Library/stm32f4xx_cryp_aes.c ****   uint32_t keyaddr    = (uint32_t)Key;
 523              		.loc 1 106 15 view .LVU197
 524 0106 0126     		movs	r6, #1
 525              	.LVL69:
 526              	.L8:
 206:./Library/stm32f4xx_cryp_aes.c ****   }
 207:./Library/stm32f4xx_cryp_aes.c **** 
 208:./Library/stm32f4xx_cryp_aes.c ****   AES_CRYP_InitStructure.CRYP_AlgoMode = CRYP_AlgoMode_AES_ECB;
 527              		.loc 1 208 3 is_stmt 1 view .LVU198
 528              		.loc 1 208 40 is_stmt 0 view .LVU199
 529 0108 2023     		movs	r3, #32
 530 010a 0B93     		str	r3, [sp, #44]
 209:./Library/stm32f4xx_cryp_aes.c ****   AES_CRYP_InitStructure.CRYP_DataType = CRYP_DataType_8b;
 531              		.loc 1 209 3 is_stmt 1 view .LVU200
 532              		.loc 1 209 40 is_stmt 0 view .LVU201
 533 010c 8023     		movs	r3, #128
 534 010e 0C93     		str	r3, [sp, #48]
 210:./Library/stm32f4xx_cryp_aes.c ****   CRYP_Init(&AES_CRYP_InitStructure);
 535              		.loc 1 210 3 is_stmt 1 view .LVU202
 536 0110 0AA8     		add	r0, sp, #40
 537 0112 FFF7FEFF 		bl	CRYP_Init
 538              	.LVL70:
 211:./Library/stm32f4xx_cryp_aes.c **** 
 212:./Library/stm32f4xx_cryp_aes.c ****   /* Flush IN/OUT FIFOs */
 213:./Library/stm32f4xx_cryp_aes.c ****   CRYP_FIFOFlush();
 539              		.loc 1 213 3 view .LVU203
 540 0116 FFF7FEFF 		bl	CRYP_FIFOFlush
 541              	.LVL71:
 214:./Library/stm32f4xx_cryp_aes.c **** 
 215:./Library/stm32f4xx_cryp_aes.c ****   /* Enable Crypto processor */
 216:./Library/stm32f4xx_cryp_aes.c ****   CRYP_Cmd(ENABLE);
 542              		.loc 1 216 3 view .LVU204
 543 011a 0120     		movs	r0, #1
 544 011c FFF7FEFF 		bl	CRYP_Cmd
 545              	.LVL72:
 217:./Library/stm32f4xx_cryp_aes.c **** 
 218:./Library/stm32f4xx_cryp_aes.c ****   if(CRYP_GetCmdStatus() == DISABLE)
 546              		.loc 1 218 3 view .LVU205
 547              		.loc 1 218 6 is_stmt 0 view .LVU206
 548 0120 FFF7FEFF 		bl	CRYP_GetCmdStatus
 549              	.LVL73:
 550              		.loc 1 218 5 view .LVU207
 551 0124 0028     		cmp	r0, #0
 552 0126 35D0     		beq	.L9
 219:./Library/stm32f4xx_cryp_aes.c ****   {
 220:./Library/stm32f4xx_cryp_aes.c ****     /* The CRYP peripheral clock is not enabled or the device doesn't embed 
 221:./Library/stm32f4xx_cryp_aes.c ****        the CRYP peripheral (please check the device sales type. */
 222:./Library/stm32f4xx_cryp_aes.c ****     return(ERROR);
ARM GAS  /tmp/ccsH6HZr.s 			page 25


 223:./Library/stm32f4xx_cryp_aes.c ****   }
 224:./Library/stm32f4xx_cryp_aes.c ****   
 225:./Library/stm32f4xx_cryp_aes.c ****   for(i=0; ((i<Ilength) && (status != ERROR)); i+=16)
 553              		.loc 1 225 8 view .LVU208
 554 0128 0025     		movs	r5, #0
 555              	.LVL74:
 556              		.loc 1 225 8 view .LVU209
 557 012a 02E0     		b	.L10
 558              	.LVL75:
 559              	.L11:
 226:./Library/stm32f4xx_cryp_aes.c ****   {
 227:./Library/stm32f4xx_cryp_aes.c **** 
 228:./Library/stm32f4xx_cryp_aes.c ****     /* Write the Input block in the IN FIFO */
 229:./Library/stm32f4xx_cryp_aes.c ****     CRYP_DataIn(*(uint32_t*)(inputaddr));
 230:./Library/stm32f4xx_cryp_aes.c ****     inputaddr+=4;
 231:./Library/stm32f4xx_cryp_aes.c ****     CRYP_DataIn(*(uint32_t*)(inputaddr));
 232:./Library/stm32f4xx_cryp_aes.c ****     inputaddr+=4;
 233:./Library/stm32f4xx_cryp_aes.c ****     CRYP_DataIn(*(uint32_t*)(inputaddr));
 234:./Library/stm32f4xx_cryp_aes.c ****     inputaddr+=4;
 235:./Library/stm32f4xx_cryp_aes.c ****     CRYP_DataIn(*(uint32_t*)(inputaddr));
 236:./Library/stm32f4xx_cryp_aes.c ****     inputaddr+=4;
 237:./Library/stm32f4xx_cryp_aes.c **** 
 238:./Library/stm32f4xx_cryp_aes.c ****     /* Wait until the complete message has been processed */
 239:./Library/stm32f4xx_cryp_aes.c ****     counter = 0;
 240:./Library/stm32f4xx_cryp_aes.c ****     do
 241:./Library/stm32f4xx_cryp_aes.c ****     {
 242:./Library/stm32f4xx_cryp_aes.c ****       busystatus = CRYP_GetFlagStatus(CRYP_FLAG_BUSY);
 243:./Library/stm32f4xx_cryp_aes.c ****       counter++;
 244:./Library/stm32f4xx_cryp_aes.c ****     }while ((counter != AESBUSY_TIMEOUT) && (busystatus != RESET));
 245:./Library/stm32f4xx_cryp_aes.c **** 
 246:./Library/stm32f4xx_cryp_aes.c ****     if (busystatus != RESET)
 560              		.loc 1 246 5 is_stmt 1 view .LVU210
 561              		.loc 1 246 8 is_stmt 0 view .LVU211
 562 012c 00B3     		cbz	r0, .L19
 247:./Library/stm32f4xx_cryp_aes.c ****    {
 248:./Library/stm32f4xx_cryp_aes.c ****        status = ERROR;
 563              		.loc 1 248 15 view .LVU212
 564 012e 0026     		movs	r6, #0
 565              	.LVL76:
 566              	.L13:
 225:./Library/stm32f4xx_cryp_aes.c ****   {
 567              		.loc 1 225 49 is_stmt 1 discriminator 2 view .LVU213
 568 0130 1035     		adds	r5, r5, #16
 569              	.LVL77:
 570              	.L10:
 225:./Library/stm32f4xx_cryp_aes.c ****   {
 571              		.loc 1 225 25 discriminator 1 view .LVU214
 572 0132 4545     		cmp	r5, r8
 573 0134 2AD2     		bcs	.L14
 225:./Library/stm32f4xx_cryp_aes.c ****   {
 574              		.loc 1 225 25 is_stmt 0 discriminator 3 view .LVU215
 575 0136 4EB3     		cbz	r6, .L14
 229:./Library/stm32f4xx_cryp_aes.c ****     inputaddr+=4;
 576              		.loc 1 229 5 is_stmt 1 view .LVU216
 577 0138 2068     		ldr	r0, [r4]
 578 013a FFF7FEFF 		bl	CRYP_DataIn
 579              	.LVL78:
ARM GAS  /tmp/ccsH6HZr.s 			page 26


 230:./Library/stm32f4xx_cryp_aes.c ****     CRYP_DataIn(*(uint32_t*)(inputaddr));
 580              		.loc 1 230 5 view .LVU217
 231:./Library/stm32f4xx_cryp_aes.c ****     inputaddr+=4;
 581              		.loc 1 231 5 view .LVU218
 582 013e 6068     		ldr	r0, [r4, #4]
 583 0140 FFF7FEFF 		bl	CRYP_DataIn
 584              	.LVL79:
 232:./Library/stm32f4xx_cryp_aes.c ****     CRYP_DataIn(*(uint32_t*)(inputaddr));
 585              		.loc 1 232 5 view .LVU219
 233:./Library/stm32f4xx_cryp_aes.c ****     inputaddr+=4;
 586              		.loc 1 233 5 view .LVU220
 587 0144 A068     		ldr	r0, [r4, #8]
 588 0146 FFF7FEFF 		bl	CRYP_DataIn
 589              	.LVL80:
 234:./Library/stm32f4xx_cryp_aes.c ****     CRYP_DataIn(*(uint32_t*)(inputaddr));
 590              		.loc 1 234 5 view .LVU221
 235:./Library/stm32f4xx_cryp_aes.c ****     inputaddr+=4;
 591              		.loc 1 235 5 view .LVU222
 592 014a E068     		ldr	r0, [r4, #12]
 593 014c FFF7FEFF 		bl	CRYP_DataIn
 594              	.LVL81:
 236:./Library/stm32f4xx_cryp_aes.c **** 
 595              		.loc 1 236 5 view .LVU223
 236:./Library/stm32f4xx_cryp_aes.c **** 
 596              		.loc 1 236 14 is_stmt 0 view .LVU224
 597 0150 1034     		adds	r4, r4, #16
 598              	.LVL82:
 239:./Library/stm32f4xx_cryp_aes.c ****     do
 599              		.loc 1 239 5 is_stmt 1 view .LVU225
 239:./Library/stm32f4xx_cryp_aes.c ****     do
 600              		.loc 1 239 13 is_stmt 0 view .LVU226
 601 0152 0023     		movs	r3, #0
 602 0154 0193     		str	r3, [sp, #4]
 603              	.L12:
 240:./Library/stm32f4xx_cryp_aes.c ****     {
 604              		.loc 1 240 5 is_stmt 1 discriminator 2 view .LVU227
 242:./Library/stm32f4xx_cryp_aes.c ****       counter++;
 605              		.loc 1 242 7 discriminator 2 view .LVU228
 242:./Library/stm32f4xx_cryp_aes.c ****       counter++;
 606              		.loc 1 242 20 is_stmt 0 discriminator 2 view .LVU229
 607 0156 1020     		movs	r0, #16
 608 0158 FFF7FEFF 		bl	CRYP_GetFlagStatus
 609              	.LVL83:
 243:./Library/stm32f4xx_cryp_aes.c ****     }while ((counter != AESBUSY_TIMEOUT) && (busystatus != RESET));
 610              		.loc 1 243 7 is_stmt 1 discriminator 2 view .LVU230
 243:./Library/stm32f4xx_cryp_aes.c ****     }while ((counter != AESBUSY_TIMEOUT) && (busystatus != RESET));
 611              		.loc 1 243 14 is_stmt 0 discriminator 2 view .LVU231
 612 015c 019A     		ldr	r2, [sp, #4]
 613 015e 0132     		adds	r2, r2, #1
 614 0160 0192     		str	r2, [sp, #4]
 244:./Library/stm32f4xx_cryp_aes.c **** 
 615              		.loc 1 244 42 is_stmt 1 discriminator 2 view .LVU232
 244:./Library/stm32f4xx_cryp_aes.c **** 
 616              		.loc 1 244 22 is_stmt 0 discriminator 2 view .LVU233
 617 0162 019B     		ldr	r3, [sp, #4]
 244:./Library/stm32f4xx_cryp_aes.c **** 
 618              		.loc 1 244 42 discriminator 2 view .LVU234
ARM GAS  /tmp/ccsH6HZr.s 			page 27


 619 0164 B3F5803F 		cmp	r3, #65536
 620 0168 E0D0     		beq	.L11
 244:./Library/stm32f4xx_cryp_aes.c **** 
 621              		.loc 1 244 42 discriminator 1 view .LVU235
 622 016a 0028     		cmp	r0, #0
 623 016c F3D1     		bne	.L12
 624 016e DDE7     		b	.L11
 625              	.L19:
 249:./Library/stm32f4xx_cryp_aes.c ****     }
 250:./Library/stm32f4xx_cryp_aes.c ****     else
 251:./Library/stm32f4xx_cryp_aes.c ****     {
 252:./Library/stm32f4xx_cryp_aes.c **** 
 253:./Library/stm32f4xx_cryp_aes.c ****       /* Read the Output block from the Output FIFO */
 254:./Library/stm32f4xx_cryp_aes.c ****       *(uint32_t*)(outputaddr) = CRYP_DataOut();
 626              		.loc 1 254 7 is_stmt 1 view .LVU236
 627              		.loc 1 254 34 is_stmt 0 view .LVU237
 628 0170 FFF7FEFF 		bl	CRYP_DataOut
 629              	.LVL84:
 630              		.loc 1 254 32 view .LVU238
 631 0174 3860     		str	r0, [r7]
 255:./Library/stm32f4xx_cryp_aes.c ****       outputaddr+=4;
 632              		.loc 1 255 7 is_stmt 1 view .LVU239
 633              	.LVL85:
 256:./Library/stm32f4xx_cryp_aes.c ****       *(uint32_t*)(outputaddr) = CRYP_DataOut();
 634              		.loc 1 256 7 view .LVU240
 635              		.loc 1 256 34 is_stmt 0 view .LVU241
 636 0176 FFF7FEFF 		bl	CRYP_DataOut
 637              	.LVL86:
 638              		.loc 1 256 32 view .LVU242
 639 017a 7860     		str	r0, [r7, #4]
 257:./Library/stm32f4xx_cryp_aes.c ****       outputaddr+=4;
 640              		.loc 1 257 7 is_stmt 1 view .LVU243
 641              	.LVL87:
 258:./Library/stm32f4xx_cryp_aes.c ****       *(uint32_t*)(outputaddr) = CRYP_DataOut();
 642              		.loc 1 258 7 view .LVU244
 643              		.loc 1 258 34 is_stmt 0 view .LVU245
 644 017c FFF7FEFF 		bl	CRYP_DataOut
 645              	.LVL88:
 646              		.loc 1 258 32 view .LVU246
 647 0180 B860     		str	r0, [r7, #8]
 259:./Library/stm32f4xx_cryp_aes.c ****       outputaddr+=4;
 648              		.loc 1 259 7 is_stmt 1 view .LVU247
 649              	.LVL89:
 260:./Library/stm32f4xx_cryp_aes.c ****       *(uint32_t*)(outputaddr) = CRYP_DataOut(); 
 650              		.loc 1 260 7 view .LVU248
 651              		.loc 1 260 34 is_stmt 0 view .LVU249
 652 0182 FFF7FEFF 		bl	CRYP_DataOut
 653              	.LVL90:
 654              		.loc 1 260 32 view .LVU250
 655 0186 F860     		str	r0, [r7, #12]
 261:./Library/stm32f4xx_cryp_aes.c ****       outputaddr+=4;
 656              		.loc 1 261 7 is_stmt 1 view .LVU251
 657              		.loc 1 261 17 is_stmt 0 view .LVU252
 658 0188 1037     		adds	r7, r7, #16
 659              	.LVL91:
 660              		.loc 1 261 17 view .LVU253
 661 018a D1E7     		b	.L13
ARM GAS  /tmp/ccsH6HZr.s 			page 28


 662              	.LVL92:
 663              	.L14:
 262:./Library/stm32f4xx_cryp_aes.c ****     }
 263:./Library/stm32f4xx_cryp_aes.c ****   }
 264:./Library/stm32f4xx_cryp_aes.c **** 
 265:./Library/stm32f4xx_cryp_aes.c ****   /* Disable Crypto */
 266:./Library/stm32f4xx_cryp_aes.c ****   CRYP_Cmd(DISABLE);
 664              		.loc 1 266 3 is_stmt 1 view .LVU254
 665 018c 0020     		movs	r0, #0
 666 018e FFF7FEFF 		bl	CRYP_Cmd
 667              	.LVL93:
 267:./Library/stm32f4xx_cryp_aes.c **** 
 268:./Library/stm32f4xx_cryp_aes.c ****   return status; 
 668              		.loc 1 268 3 view .LVU255
 669              		.loc 1 268 10 is_stmt 0 view .LVU256
 670 0192 3046     		mov	r0, r6
 671              	.LVL94:
 672              	.L9:
 269:./Library/stm32f4xx_cryp_aes.c **** }
 673              		.loc 1 269 1 view .LVU257
 674 0194 0FB0     		add	sp, sp, #60
 675              	.LCFI2:
 676              		.cfi_def_cfa_offset 28
 677              		@ sp needed
 678 0196 BDE8F083 		pop	{r4, r5, r6, r7, r8, r9, pc}
 679              		.loc 1 269 1 view .LVU258
 680              		.cfi_endproc
 681              	.LFE123:
 683              		.section	.text.CRYP_AES_CBC,"ax",%progbits
 684              		.align	1
 685              		.global	CRYP_AES_CBC
 686              		.syntax unified
 687              		.thumb
 688              		.thumb_func
 690              	CRYP_AES_CBC:
 691              	.LVL95:
 692              	.LFB124:
 270:./Library/stm32f4xx_cryp_aes.c **** 
 271:./Library/stm32f4xx_cryp_aes.c **** /**
 272:./Library/stm32f4xx_cryp_aes.c ****   * @brief  Encrypt and decrypt using AES in CBC Mode
 273:./Library/stm32f4xx_cryp_aes.c ****   * @param  Mode: encryption or decryption Mode.
 274:./Library/stm32f4xx_cryp_aes.c ****   *          This parameter can be one of the following values:
 275:./Library/stm32f4xx_cryp_aes.c ****   *            @arg MODE_ENCRYPT: Encryption
 276:./Library/stm32f4xx_cryp_aes.c ****   *            @arg MODE_DECRYPT: Decryption
 277:./Library/stm32f4xx_cryp_aes.c ****   * @param  InitVectors: Initialisation Vectors used for AES algorithm.
 278:./Library/stm32f4xx_cryp_aes.c ****   * @param  Key: Key used for AES algorithm.
 279:./Library/stm32f4xx_cryp_aes.c ****   * @param  Keysize: length of the Key, must be a 128, 192 or 256.
 280:./Library/stm32f4xx_cryp_aes.c ****   * @param  Input: pointer to the Input buffer.
 281:./Library/stm32f4xx_cryp_aes.c ****   * @param  Ilength: length of the Input buffer, must be a multiple of 16.
 282:./Library/stm32f4xx_cryp_aes.c ****   * @param  Output: pointer to the returned buffer.
 283:./Library/stm32f4xx_cryp_aes.c ****   * @retval An ErrorStatus enumeration value:
 284:./Library/stm32f4xx_cryp_aes.c ****   *          - SUCCESS: Operation done
 285:./Library/stm32f4xx_cryp_aes.c ****   *          - ERROR: Operation failed
 286:./Library/stm32f4xx_cryp_aes.c ****   */
 287:./Library/stm32f4xx_cryp_aes.c **** ErrorStatus CRYP_AES_CBC(uint8_t Mode, uint8_t InitVectors[16], uint8_t *Key,
 288:./Library/stm32f4xx_cryp_aes.c ****                          uint16_t Keysize, uint8_t *Input, uint32_t Ilength,
 289:./Library/stm32f4xx_cryp_aes.c ****                          uint8_t *Output)
ARM GAS  /tmp/ccsH6HZr.s 			page 29


 290:./Library/stm32f4xx_cryp_aes.c **** {
 693              		.loc 1 290 1 is_stmt 1 view -0
 694              		.cfi_startproc
 695              		@ args = 12, pretend = 0, frame = 72
 696              		@ frame_needed = 0, uses_anonymous_args = 0
 697              		.loc 1 290 1 is_stmt 0 view .LVU260
 698 0000 2DE9F047 		push	{r4, r5, r6, r7, r8, r9, r10, lr}
 699              	.LCFI3:
 700              		.cfi_def_cfa_offset 32
 701              		.cfi_offset 4, -32
 702              		.cfi_offset 5, -28
 703              		.cfi_offset 6, -24
 704              		.cfi_offset 7, -20
 705              		.cfi_offset 8, -16
 706              		.cfi_offset 9, -12
 707              		.cfi_offset 10, -8
 708              		.cfi_offset 14, -4
 709 0004 92B0     		sub	sp, sp, #72
 710              	.LCFI4:
 711              		.cfi_def_cfa_offset 104
 712 0006 0646     		mov	r6, r0
 713 0008 0D46     		mov	r5, r1
 714 000a 9146     		mov	r9, r2
 715 000c 9A46     		mov	r10, r3
 716 000e DDF86C80 		ldr	r8, [sp, #108]
 291:./Library/stm32f4xx_cryp_aes.c ****   CRYP_InitTypeDef AES_CRYP_InitStructure;
 717              		.loc 1 291 3 is_stmt 1 view .LVU261
 292:./Library/stm32f4xx_cryp_aes.c ****   CRYP_KeyInitTypeDef AES_CRYP_KeyInitStructure;
 718              		.loc 1 292 3 view .LVU262
 293:./Library/stm32f4xx_cryp_aes.c ****   CRYP_IVInitTypeDef AES_CRYP_IVInitStructure;
 719              		.loc 1 293 3 view .LVU263
 294:./Library/stm32f4xx_cryp_aes.c ****   __IO uint32_t counter = 0;
 720              		.loc 1 294 3 view .LVU264
 721              		.loc 1 294 17 is_stmt 0 view .LVU265
 722 0012 0023     		movs	r3, #0
 723              	.LVL96:
 724              		.loc 1 294 17 view .LVU266
 725 0014 0193     		str	r3, [sp, #4]
 295:./Library/stm32f4xx_cryp_aes.c ****   uint32_t busystatus = 0;
 726              		.loc 1 295 3 is_stmt 1 view .LVU267
 727              	.LVL97:
 296:./Library/stm32f4xx_cryp_aes.c ****   ErrorStatus status = SUCCESS;
 728              		.loc 1 296 3 view .LVU268
 297:./Library/stm32f4xx_cryp_aes.c ****   uint32_t keyaddr    = (uint32_t)Key;
 729              		.loc 1 297 3 view .LVU269
 298:./Library/stm32f4xx_cryp_aes.c ****   uint32_t inputaddr  = (uint32_t)Input;
 730              		.loc 1 298 3 view .LVU270
 731              		.loc 1 298 12 is_stmt 0 view .LVU271
 732 0016 1A9C     		ldr	r4, [sp, #104]
 733              	.LVL98:
 299:./Library/stm32f4xx_cryp_aes.c ****   uint32_t outputaddr = (uint32_t)Output;
 734              		.loc 1 299 3 is_stmt 1 view .LVU272
 735              		.loc 1 299 12 is_stmt 0 view .LVU273
 736 0018 1C9F     		ldr	r7, [sp, #112]
 737              	.LVL99:
 300:./Library/stm32f4xx_cryp_aes.c ****   uint32_t ivaddr = (uint32_t)InitVectors;
 738              		.loc 1 300 3 is_stmt 1 view .LVU274
ARM GAS  /tmp/ccsH6HZr.s 			page 30


 301:./Library/stm32f4xx_cryp_aes.c ****   uint32_t i = 0;
 739              		.loc 1 301 3 view .LVU275
 302:./Library/stm32f4xx_cryp_aes.c **** 
 303:./Library/stm32f4xx_cryp_aes.c ****   /* Crypto structures initialisation*/
 304:./Library/stm32f4xx_cryp_aes.c ****   CRYP_KeyStructInit(&AES_CRYP_KeyInitStructure);
 740              		.loc 1 304 3 view .LVU276
 741 001a 06A8     		add	r0, sp, #24
 742              	.LVL100:
 743              		.loc 1 304 3 is_stmt 0 view .LVU277
 744 001c FFF7FEFF 		bl	CRYP_KeyStructInit
 745              	.LVL101:
 305:./Library/stm32f4xx_cryp_aes.c **** 
 306:./Library/stm32f4xx_cryp_aes.c ****   switch(Keysize)
 746              		.loc 1 306 3 is_stmt 1 view .LVU278
 747 0020 BAF1C00F 		cmp	r10, #192
 748 0024 49D0     		beq	.L21
 749 0026 BAF5807F 		cmp	r10, #256
 750 002a 62D0     		beq	.L22
 751 002c BAF1800F 		cmp	r10, #128
 752 0030 30D0     		beq	.L37
 753              	.LVL102:
 754              	.L23:
 307:./Library/stm32f4xx_cryp_aes.c ****   {
 308:./Library/stm32f4xx_cryp_aes.c ****     case 128:
 309:./Library/stm32f4xx_cryp_aes.c ****     AES_CRYP_InitStructure.CRYP_KeySize = CRYP_KeySize_128b;
 310:./Library/stm32f4xx_cryp_aes.c ****     AES_CRYP_KeyInitStructure.CRYP_Key2Left = __REV(*(uint32_t*)(keyaddr));
 311:./Library/stm32f4xx_cryp_aes.c ****     keyaddr+=4;
 312:./Library/stm32f4xx_cryp_aes.c ****     AES_CRYP_KeyInitStructure.CRYP_Key2Right= __REV(*(uint32_t*)(keyaddr));
 313:./Library/stm32f4xx_cryp_aes.c ****     keyaddr+=4;
 314:./Library/stm32f4xx_cryp_aes.c ****     AES_CRYP_KeyInitStructure.CRYP_Key3Left = __REV(*(uint32_t*)(keyaddr));
 315:./Library/stm32f4xx_cryp_aes.c ****     keyaddr+=4;
 316:./Library/stm32f4xx_cryp_aes.c ****     AES_CRYP_KeyInitStructure.CRYP_Key3Right= __REV(*(uint32_t*)(keyaddr));
 317:./Library/stm32f4xx_cryp_aes.c ****     break;
 318:./Library/stm32f4xx_cryp_aes.c ****     case 192:
 319:./Library/stm32f4xx_cryp_aes.c ****     AES_CRYP_InitStructure.CRYP_KeySize  = CRYP_KeySize_192b;
 320:./Library/stm32f4xx_cryp_aes.c ****     AES_CRYP_KeyInitStructure.CRYP_Key1Left = __REV(*(uint32_t*)(keyaddr));
 321:./Library/stm32f4xx_cryp_aes.c ****     keyaddr+=4;
 322:./Library/stm32f4xx_cryp_aes.c ****     AES_CRYP_KeyInitStructure.CRYP_Key1Right= __REV(*(uint32_t*)(keyaddr));
 323:./Library/stm32f4xx_cryp_aes.c ****     keyaddr+=4;
 324:./Library/stm32f4xx_cryp_aes.c ****     AES_CRYP_KeyInitStructure.CRYP_Key2Left = __REV(*(uint32_t*)(keyaddr));
 325:./Library/stm32f4xx_cryp_aes.c ****     keyaddr+=4;
 326:./Library/stm32f4xx_cryp_aes.c ****     AES_CRYP_KeyInitStructure.CRYP_Key2Right= __REV(*(uint32_t*)(keyaddr));
 327:./Library/stm32f4xx_cryp_aes.c ****     keyaddr+=4;
 328:./Library/stm32f4xx_cryp_aes.c ****     AES_CRYP_KeyInitStructure.CRYP_Key3Left = __REV(*(uint32_t*)(keyaddr));
 329:./Library/stm32f4xx_cryp_aes.c ****     keyaddr+=4;
 330:./Library/stm32f4xx_cryp_aes.c ****     AES_CRYP_KeyInitStructure.CRYP_Key3Right= __REV(*(uint32_t*)(keyaddr));
 331:./Library/stm32f4xx_cryp_aes.c ****     break;
 332:./Library/stm32f4xx_cryp_aes.c ****     case 256:
 333:./Library/stm32f4xx_cryp_aes.c ****     AES_CRYP_InitStructure.CRYP_KeySize  = CRYP_KeySize_256b;
 334:./Library/stm32f4xx_cryp_aes.c ****     AES_CRYP_KeyInitStructure.CRYP_Key0Left = __REV(*(uint32_t*)(keyaddr));
 335:./Library/stm32f4xx_cryp_aes.c ****     keyaddr+=4;
 336:./Library/stm32f4xx_cryp_aes.c ****     AES_CRYP_KeyInitStructure.CRYP_Key0Right= __REV(*(uint32_t*)(keyaddr));
 337:./Library/stm32f4xx_cryp_aes.c ****     keyaddr+=4;
 338:./Library/stm32f4xx_cryp_aes.c ****     AES_CRYP_KeyInitStructure.CRYP_Key1Left = __REV(*(uint32_t*)(keyaddr));
 339:./Library/stm32f4xx_cryp_aes.c ****     keyaddr+=4;
 340:./Library/stm32f4xx_cryp_aes.c ****     AES_CRYP_KeyInitStructure.CRYP_Key1Right= __REV(*(uint32_t*)(keyaddr));
 341:./Library/stm32f4xx_cryp_aes.c ****     keyaddr+=4;
ARM GAS  /tmp/ccsH6HZr.s 			page 31


 342:./Library/stm32f4xx_cryp_aes.c ****     AES_CRYP_KeyInitStructure.CRYP_Key2Left = __REV(*(uint32_t*)(keyaddr));
 343:./Library/stm32f4xx_cryp_aes.c ****     keyaddr+=4;
 344:./Library/stm32f4xx_cryp_aes.c ****     AES_CRYP_KeyInitStructure.CRYP_Key2Right= __REV(*(uint32_t*)(keyaddr));
 345:./Library/stm32f4xx_cryp_aes.c ****     keyaddr+=4;
 346:./Library/stm32f4xx_cryp_aes.c ****     AES_CRYP_KeyInitStructure.CRYP_Key3Left = __REV(*(uint32_t*)(keyaddr));
 347:./Library/stm32f4xx_cryp_aes.c ****     keyaddr+=4;
 348:./Library/stm32f4xx_cryp_aes.c ****     AES_CRYP_KeyInitStructure.CRYP_Key3Right= __REV(*(uint32_t*)(keyaddr));
 349:./Library/stm32f4xx_cryp_aes.c ****     break;
 350:./Library/stm32f4xx_cryp_aes.c ****     default:
 351:./Library/stm32f4xx_cryp_aes.c ****     break;
 352:./Library/stm32f4xx_cryp_aes.c ****   }
 353:./Library/stm32f4xx_cryp_aes.c **** 
 354:./Library/stm32f4xx_cryp_aes.c ****   /* CRYP Initialization Vectors */
 355:./Library/stm32f4xx_cryp_aes.c ****   AES_CRYP_IVInitStructure.CRYP_IV0Left = __REV(*(uint32_t*)(ivaddr));
 755              		.loc 1 355 3 view .LVU279
 756              		.loc 1 355 43 is_stmt 0 view .LVU280
 757 0032 2B68     		ldr	r3, [r5]
 758              	.LVL103:
 759              	.LBB266:
 760              	.LBI266:
 495:./CORE/core_cmInstr.h **** {
 761              		.loc 2 495 57 is_stmt 1 view .LVU281
 762              	.LBB267:
 763              		.loc 2 498 3 view .LVU282
 764              		.loc 2 498 10 is_stmt 0 view .LVU283
 765 0034 1BBA     		rev	r3, r3
 766              	.LVL104:
 767              		.loc 2 498 10 view .LVU284
 768              	.LBE267:
 769              	.LBE266:
 770              		.loc 1 355 41 view .LVU285
 771 0036 0293     		str	r3, [sp, #8]
 356:./Library/stm32f4xx_cryp_aes.c ****   ivaddr+=4;
 772              		.loc 1 356 3 is_stmt 1 view .LVU286
 773              	.LVL105:
 357:./Library/stm32f4xx_cryp_aes.c ****   AES_CRYP_IVInitStructure.CRYP_IV0Right= __REV(*(uint32_t*)(ivaddr));
 774              		.loc 1 357 3 view .LVU287
 775              		.loc 1 357 43 is_stmt 0 view .LVU288
 776 0038 6B68     		ldr	r3, [r5, #4]
 777              	.LVL106:
 778              	.LBB268:
 779              	.LBI268:
 495:./CORE/core_cmInstr.h **** {
 780              		.loc 2 495 57 is_stmt 1 view .LVU289
 781              	.LBB269:
 782              		.loc 2 498 3 view .LVU290
 783              		.loc 2 498 10 is_stmt 0 view .LVU291
 784 003a 1BBA     		rev	r3, r3
 785              	.LVL107:
 786              		.loc 2 498 10 view .LVU292
 787              	.LBE269:
 788              	.LBE268:
 789              		.loc 1 357 41 view .LVU293
 790 003c 0393     		str	r3, [sp, #12]
 358:./Library/stm32f4xx_cryp_aes.c ****   ivaddr+=4;
 791              		.loc 1 358 3 is_stmt 1 view .LVU294
 792              	.LVL108:
ARM GAS  /tmp/ccsH6HZr.s 			page 32


 359:./Library/stm32f4xx_cryp_aes.c ****   AES_CRYP_IVInitStructure.CRYP_IV1Left = __REV(*(uint32_t*)(ivaddr));
 793              		.loc 1 359 3 view .LVU295
 794              		.loc 1 359 43 is_stmt 0 view .LVU296
 795 003e AB68     		ldr	r3, [r5, #8]
 796              	.LVL109:
 797              	.LBB270:
 798              	.LBI270:
 495:./CORE/core_cmInstr.h **** {
 799              		.loc 2 495 57 is_stmt 1 view .LVU297
 800              	.LBB271:
 801              		.loc 2 498 3 view .LVU298
 802              		.loc 2 498 10 is_stmt 0 view .LVU299
 803 0040 1BBA     		rev	r3, r3
 804              	.LVL110:
 805              		.loc 2 498 10 view .LVU300
 806              	.LBE271:
 807              	.LBE270:
 808              		.loc 1 359 41 view .LVU301
 809 0042 0493     		str	r3, [sp, #16]
 360:./Library/stm32f4xx_cryp_aes.c ****   ivaddr+=4;
 810              		.loc 1 360 3 is_stmt 1 view .LVU302
 811              	.LVL111:
 361:./Library/stm32f4xx_cryp_aes.c ****   AES_CRYP_IVInitStructure.CRYP_IV1Right= __REV(*(uint32_t*)(ivaddr));
 812              		.loc 1 361 3 view .LVU303
 813              		.loc 1 361 43 is_stmt 0 view .LVU304
 814 0044 EB68     		ldr	r3, [r5, #12]
 815              	.LVL112:
 816              	.LBB272:
 817              	.LBI272:
 495:./CORE/core_cmInstr.h **** {
 818              		.loc 2 495 57 is_stmt 1 view .LVU305
 819              	.LBB273:
 820              		.loc 2 498 3 view .LVU306
 821              		.loc 2 498 10 is_stmt 0 view .LVU307
 822 0046 1BBA     		rev	r3, r3
 823              	.LVL113:
 824              		.loc 2 498 10 view .LVU308
 825              	.LBE273:
 826              	.LBE272:
 827              		.loc 1 361 41 view .LVU309
 828 0048 0593     		str	r3, [sp, #20]
 362:./Library/stm32f4xx_cryp_aes.c **** 
 363:./Library/stm32f4xx_cryp_aes.c **** 
 364:./Library/stm32f4xx_cryp_aes.c ****   /*------------------ AES Decryption ------------------*/
 365:./Library/stm32f4xx_cryp_aes.c ****   if(Mode == MODE_DECRYPT) /* AES decryption */
 829              		.loc 1 365 3 is_stmt 1 view .LVU310
 830              		.loc 1 365 5 is_stmt 0 view .LVU311
 831 004a 002E     		cmp	r6, #0
 832 004c 75D1     		bne	.L24
 366:./Library/stm32f4xx_cryp_aes.c ****   {
 367:./Library/stm32f4xx_cryp_aes.c ****     /* Flush IN/OUT FIFOs */
 368:./Library/stm32f4xx_cryp_aes.c ****     CRYP_FIFOFlush();
 833              		.loc 1 368 5 is_stmt 1 view .LVU312
 834 004e FFF7FEFF 		bl	CRYP_FIFOFlush
 835              	.LVL114:
 369:./Library/stm32f4xx_cryp_aes.c **** 
 370:./Library/stm32f4xx_cryp_aes.c ****     /* Crypto Init for Key preparation for decryption process */
ARM GAS  /tmp/ccsH6HZr.s 			page 33


 371:./Library/stm32f4xx_cryp_aes.c ****     AES_CRYP_InitStructure.CRYP_AlgoDir = CRYP_AlgoDir_Decrypt;
 836              		.loc 1 371 5 view .LVU313
 837              		.loc 1 371 41 is_stmt 0 view .LVU314
 838 0052 0423     		movs	r3, #4
 839 0054 0E93     		str	r3, [sp, #56]
 372:./Library/stm32f4xx_cryp_aes.c ****     AES_CRYP_InitStructure.CRYP_AlgoMode = CRYP_AlgoMode_AES_Key;
 840              		.loc 1 372 5 is_stmt 1 view .LVU315
 841              		.loc 1 372 42 is_stmt 0 view .LVU316
 842 0056 3823     		movs	r3, #56
 843 0058 0F93     		str	r3, [sp, #60]
 373:./Library/stm32f4xx_cryp_aes.c ****     AES_CRYP_InitStructure.CRYP_DataType = CRYP_DataType_32b;
 844              		.loc 1 373 5 is_stmt 1 view .LVU317
 845              		.loc 1 373 42 is_stmt 0 view .LVU318
 846 005a 0023     		movs	r3, #0
 847 005c 1093     		str	r3, [sp, #64]
 374:./Library/stm32f4xx_cryp_aes.c **** 
 375:./Library/stm32f4xx_cryp_aes.c ****     CRYP_Init(&AES_CRYP_InitStructure);
 848              		.loc 1 375 5 is_stmt 1 view .LVU319
 849 005e 0EA8     		add	r0, sp, #56
 850 0060 FFF7FEFF 		bl	CRYP_Init
 851              	.LVL115:
 376:./Library/stm32f4xx_cryp_aes.c **** 
 377:./Library/stm32f4xx_cryp_aes.c ****     /* Key Initialisation */
 378:./Library/stm32f4xx_cryp_aes.c ****     CRYP_KeyInit(&AES_CRYP_KeyInitStructure);
 852              		.loc 1 378 5 view .LVU320
 853 0064 06A8     		add	r0, sp, #24
 854 0066 FFF7FEFF 		bl	CRYP_KeyInit
 855              	.LVL116:
 379:./Library/stm32f4xx_cryp_aes.c **** 
 380:./Library/stm32f4xx_cryp_aes.c ****     /* Enable Crypto processor */
 381:./Library/stm32f4xx_cryp_aes.c ****     CRYP_Cmd(ENABLE);
 856              		.loc 1 381 5 view .LVU321
 857 006a 0120     		movs	r0, #1
 858 006c FFF7FEFF 		bl	CRYP_Cmd
 859              	.LVL117:
 860              	.L26:
 382:./Library/stm32f4xx_cryp_aes.c **** 
 383:./Library/stm32f4xx_cryp_aes.c ****     /* wait until the Busy flag is RESET */
 384:./Library/stm32f4xx_cryp_aes.c ****     do
 861              		.loc 1 384 5 discriminator 2 view .LVU322
 385:./Library/stm32f4xx_cryp_aes.c ****     {
 386:./Library/stm32f4xx_cryp_aes.c ****       busystatus = CRYP_GetFlagStatus(CRYP_FLAG_BUSY);
 862              		.loc 1 386 7 discriminator 2 view .LVU323
 863              		.loc 1 386 20 is_stmt 0 discriminator 2 view .LVU324
 864 0070 1020     		movs	r0, #16
 865 0072 FFF7FEFF 		bl	CRYP_GetFlagStatus
 866              	.LVL118:
 387:./Library/stm32f4xx_cryp_aes.c ****       counter++;
 867              		.loc 1 387 7 is_stmt 1 discriminator 2 view .LVU325
 868              		.loc 1 387 14 is_stmt 0 discriminator 2 view .LVU326
 869 0076 019B     		ldr	r3, [sp, #4]
 870 0078 0133     		adds	r3, r3, #1
 871 007a 0193     		str	r3, [sp, #4]
 388:./Library/stm32f4xx_cryp_aes.c ****     }while ((counter != AESBUSY_TIMEOUT) && (busystatus != RESET));
 872              		.loc 1 388 42 is_stmt 1 discriminator 2 view .LVU327
 873              		.loc 1 388 22 is_stmt 0 discriminator 2 view .LVU328
 874 007c 019B     		ldr	r3, [sp, #4]
ARM GAS  /tmp/ccsH6HZr.s 			page 34


 875              		.loc 1 388 42 discriminator 2 view .LVU329
 876 007e B3F5803F 		cmp	r3, #65536
 877 0082 01D0     		beq	.L25
 878              		.loc 1 388 42 discriminator 1 view .LVU330
 879 0084 0028     		cmp	r0, #0
 880 0086 F3D1     		bne	.L26
 881              	.L25:
 389:./Library/stm32f4xx_cryp_aes.c **** 
 390:./Library/stm32f4xx_cryp_aes.c ****     if (busystatus != RESET)
 882              		.loc 1 390 5 is_stmt 1 view .LVU331
 883              		.loc 1 390 8 is_stmt 0 view .LVU332
 884 0088 0028     		cmp	r0, #0
 885 008a 5CD1     		bne	.L27
 391:./Library/stm32f4xx_cryp_aes.c ****    {
 392:./Library/stm32f4xx_cryp_aes.c ****        status = ERROR;
 393:./Library/stm32f4xx_cryp_aes.c ****     }
 394:./Library/stm32f4xx_cryp_aes.c ****     else
 395:./Library/stm32f4xx_cryp_aes.c ****     {
 396:./Library/stm32f4xx_cryp_aes.c ****       /* Crypto Init for decryption process */  
 397:./Library/stm32f4xx_cryp_aes.c ****       AES_CRYP_InitStructure.CRYP_AlgoDir = CRYP_AlgoDir_Decrypt;
 886              		.loc 1 397 7 is_stmt 1 view .LVU333
 887              		.loc 1 397 43 is_stmt 0 view .LVU334
 888 008c 0423     		movs	r3, #4
 889 008e 0E93     		str	r3, [sp, #56]
 296:./Library/stm32f4xx_cryp_aes.c ****   uint32_t keyaddr    = (uint32_t)Key;
 890              		.loc 1 296 15 view .LVU335
 891 0090 0126     		movs	r6, #1
 892 0092 58E0     		b	.L27
 893              	.LVL119:
 894              	.L37:
 309:./Library/stm32f4xx_cryp_aes.c ****     AES_CRYP_KeyInitStructure.CRYP_Key2Left = __REV(*(uint32_t*)(keyaddr));
 895              		.loc 1 309 5 is_stmt 1 view .LVU336
 309:./Library/stm32f4xx_cryp_aes.c ****     AES_CRYP_KeyInitStructure.CRYP_Key2Left = __REV(*(uint32_t*)(keyaddr));
 896              		.loc 1 309 41 is_stmt 0 view .LVU337
 897 0094 0023     		movs	r3, #0
 898 0096 1193     		str	r3, [sp, #68]
 310:./Library/stm32f4xx_cryp_aes.c ****     keyaddr+=4;
 899              		.loc 1 310 5 is_stmt 1 view .LVU338
 310:./Library/stm32f4xx_cryp_aes.c ****     keyaddr+=4;
 900              		.loc 1 310 47 is_stmt 0 view .LVU339
 901 0098 D9F80030 		ldr	r3, [r9]
 902              	.LVL120:
 903              	.LBB274:
 904              	.LBI274:
 495:./CORE/core_cmInstr.h **** {
 905              		.loc 2 495 57 is_stmt 1 view .LVU340
 906              	.LBB275:
 907              		.loc 2 498 3 view .LVU341
 908              		.loc 2 498 10 is_stmt 0 view .LVU342
 909 009c 1BBA     		rev	r3, r3
 910              	.LVL121:
 911              		.loc 2 498 10 view .LVU343
 912              	.LBE275:
 913              	.LBE274:
 310:./Library/stm32f4xx_cryp_aes.c ****     keyaddr+=4;
 914              		.loc 1 310 45 view .LVU344
 915 009e 0A93     		str	r3, [sp, #40]
ARM GAS  /tmp/ccsH6HZr.s 			page 35


 311:./Library/stm32f4xx_cryp_aes.c ****     AES_CRYP_KeyInitStructure.CRYP_Key2Right= __REV(*(uint32_t*)(keyaddr));
 916              		.loc 1 311 5 is_stmt 1 view .LVU345
 917              	.LVL122:
 312:./Library/stm32f4xx_cryp_aes.c ****     keyaddr+=4;
 918              		.loc 1 312 5 view .LVU346
 312:./Library/stm32f4xx_cryp_aes.c ****     keyaddr+=4;
 919              		.loc 1 312 47 is_stmt 0 view .LVU347
 920 00a0 D9F80430 		ldr	r3, [r9, #4]
 921              	.LVL123:
 922              	.LBB276:
 923              	.LBI276:
 495:./CORE/core_cmInstr.h **** {
 924              		.loc 2 495 57 is_stmt 1 view .LVU348
 925              	.LBB277:
 926              		.loc 2 498 3 view .LVU349
 927              		.loc 2 498 10 is_stmt 0 view .LVU350
 928 00a4 1BBA     		rev	r3, r3
 929              	.LVL124:
 930              		.loc 2 498 10 view .LVU351
 931              	.LBE277:
 932              	.LBE276:
 312:./Library/stm32f4xx_cryp_aes.c ****     keyaddr+=4;
 933              		.loc 1 312 45 view .LVU352
 934 00a6 0B93     		str	r3, [sp, #44]
 313:./Library/stm32f4xx_cryp_aes.c ****     AES_CRYP_KeyInitStructure.CRYP_Key3Left = __REV(*(uint32_t*)(keyaddr));
 935              		.loc 1 313 5 is_stmt 1 view .LVU353
 936              	.LVL125:
 314:./Library/stm32f4xx_cryp_aes.c ****     keyaddr+=4;
 937              		.loc 1 314 5 view .LVU354
 314:./Library/stm32f4xx_cryp_aes.c ****     keyaddr+=4;
 938              		.loc 1 314 47 is_stmt 0 view .LVU355
 939 00a8 D9F80830 		ldr	r3, [r9, #8]
 940              	.LVL126:
 941              	.LBB278:
 942              	.LBI278:
 495:./CORE/core_cmInstr.h **** {
 943              		.loc 2 495 57 is_stmt 1 view .LVU356
 944              	.LBB279:
 945              		.loc 2 498 3 view .LVU357
 946              		.loc 2 498 10 is_stmt 0 view .LVU358
 947 00ac 1BBA     		rev	r3, r3
 948              	.LVL127:
 949              		.loc 2 498 10 view .LVU359
 950              	.LBE279:
 951              	.LBE278:
 314:./Library/stm32f4xx_cryp_aes.c ****     keyaddr+=4;
 952              		.loc 1 314 45 view .LVU360
 953 00ae 0C93     		str	r3, [sp, #48]
 315:./Library/stm32f4xx_cryp_aes.c ****     AES_CRYP_KeyInitStructure.CRYP_Key3Right= __REV(*(uint32_t*)(keyaddr));
 954              		.loc 1 315 5 is_stmt 1 view .LVU361
 955              	.LVL128:
 316:./Library/stm32f4xx_cryp_aes.c ****     break;
 956              		.loc 1 316 5 view .LVU362
 316:./Library/stm32f4xx_cryp_aes.c ****     break;
 957              		.loc 1 316 47 is_stmt 0 view .LVU363
 958 00b0 D9F80C30 		ldr	r3, [r9, #12]
 959              	.LVL129:
ARM GAS  /tmp/ccsH6HZr.s 			page 36


 960              	.LBB280:
 961              	.LBI280:
 495:./CORE/core_cmInstr.h **** {
 962              		.loc 2 495 57 is_stmt 1 view .LVU364
 963              	.LBB281:
 964              		.loc 2 498 3 view .LVU365
 965              		.loc 2 498 10 is_stmt 0 view .LVU366
 966 00b4 1BBA     		rev	r3, r3
 967              	.LVL130:
 968              		.loc 2 498 10 view .LVU367
 969              	.LBE281:
 970              	.LBE280:
 316:./Library/stm32f4xx_cryp_aes.c ****     break;
 971              		.loc 1 316 45 view .LVU368
 972 00b6 0D93     		str	r3, [sp, #52]
 317:./Library/stm32f4xx_cryp_aes.c ****     case 192:
 973              		.loc 1 317 5 is_stmt 1 view .LVU369
 974 00b8 BBE7     		b	.L23
 975              	.LVL131:
 976              	.L21:
 319:./Library/stm32f4xx_cryp_aes.c ****     AES_CRYP_KeyInitStructure.CRYP_Key1Left = __REV(*(uint32_t*)(keyaddr));
 977              		.loc 1 319 5 view .LVU370
 319:./Library/stm32f4xx_cryp_aes.c ****     AES_CRYP_KeyInitStructure.CRYP_Key1Left = __REV(*(uint32_t*)(keyaddr));
 978              		.loc 1 319 42 is_stmt 0 view .LVU371
 979 00ba 4FF48073 		mov	r3, #256
 980 00be 1193     		str	r3, [sp, #68]
 320:./Library/stm32f4xx_cryp_aes.c ****     keyaddr+=4;
 981              		.loc 1 320 5 is_stmt 1 view .LVU372
 320:./Library/stm32f4xx_cryp_aes.c ****     keyaddr+=4;
 982              		.loc 1 320 47 is_stmt 0 view .LVU373
 983 00c0 D9F80030 		ldr	r3, [r9]
 984              	.LVL132:
 985              	.LBB282:
 986              	.LBI282:
 495:./CORE/core_cmInstr.h **** {
 987              		.loc 2 495 57 is_stmt 1 view .LVU374
 988              	.LBB283:
 989              		.loc 2 498 3 view .LVU375
 990              		.loc 2 498 10 is_stmt 0 view .LVU376
 991 00c4 1BBA     		rev	r3, r3
 992              	.LVL133:
 993              		.loc 2 498 10 view .LVU377
 994              	.LBE283:
 995              	.LBE282:
 320:./Library/stm32f4xx_cryp_aes.c ****     keyaddr+=4;
 996              		.loc 1 320 45 view .LVU378
 997 00c6 0893     		str	r3, [sp, #32]
 321:./Library/stm32f4xx_cryp_aes.c ****     AES_CRYP_KeyInitStructure.CRYP_Key1Right= __REV(*(uint32_t*)(keyaddr));
 998              		.loc 1 321 5 is_stmt 1 view .LVU379
 999              	.LVL134:
 322:./Library/stm32f4xx_cryp_aes.c ****     keyaddr+=4;
 1000              		.loc 1 322 5 view .LVU380
 322:./Library/stm32f4xx_cryp_aes.c ****     keyaddr+=4;
 1001              		.loc 1 322 47 is_stmt 0 view .LVU381
 1002 00c8 D9F80430 		ldr	r3, [r9, #4]
 1003              	.LVL135:
 1004              	.LBB284:
ARM GAS  /tmp/ccsH6HZr.s 			page 37


 1005              	.LBI284:
 495:./CORE/core_cmInstr.h **** {
 1006              		.loc 2 495 57 is_stmt 1 view .LVU382
 1007              	.LBB285:
 1008              		.loc 2 498 3 view .LVU383
 1009              		.loc 2 498 10 is_stmt 0 view .LVU384
 1010 00cc 1BBA     		rev	r3, r3
 1011              	.LVL136:
 1012              		.loc 2 498 10 view .LVU385
 1013              	.LBE285:
 1014              	.LBE284:
 322:./Library/stm32f4xx_cryp_aes.c ****     keyaddr+=4;
 1015              		.loc 1 322 45 view .LVU386
 1016 00ce 0993     		str	r3, [sp, #36]
 323:./Library/stm32f4xx_cryp_aes.c ****     AES_CRYP_KeyInitStructure.CRYP_Key2Left = __REV(*(uint32_t*)(keyaddr));
 1017              		.loc 1 323 5 is_stmt 1 view .LVU387
 1018              	.LVL137:
 324:./Library/stm32f4xx_cryp_aes.c ****     keyaddr+=4;
 1019              		.loc 1 324 5 view .LVU388
 324:./Library/stm32f4xx_cryp_aes.c ****     keyaddr+=4;
 1020              		.loc 1 324 47 is_stmt 0 view .LVU389
 1021 00d0 D9F80830 		ldr	r3, [r9, #8]
 1022              	.LVL138:
 1023              	.LBB286:
 1024              	.LBI286:
 495:./CORE/core_cmInstr.h **** {
 1025              		.loc 2 495 57 is_stmt 1 view .LVU390
 1026              	.LBB287:
 1027              		.loc 2 498 3 view .LVU391
 1028              		.loc 2 498 10 is_stmt 0 view .LVU392
 1029 00d4 1BBA     		rev	r3, r3
 1030              	.LVL139:
 1031              		.loc 2 498 10 view .LVU393
 1032              	.LBE287:
 1033              	.LBE286:
 324:./Library/stm32f4xx_cryp_aes.c ****     keyaddr+=4;
 1034              		.loc 1 324 45 view .LVU394
 1035 00d6 0A93     		str	r3, [sp, #40]
 325:./Library/stm32f4xx_cryp_aes.c ****     AES_CRYP_KeyInitStructure.CRYP_Key2Right= __REV(*(uint32_t*)(keyaddr));
 1036              		.loc 1 325 5 is_stmt 1 view .LVU395
 1037              	.LVL140:
 326:./Library/stm32f4xx_cryp_aes.c ****     keyaddr+=4;
 1038              		.loc 1 326 5 view .LVU396
 326:./Library/stm32f4xx_cryp_aes.c ****     keyaddr+=4;
 1039              		.loc 1 326 47 is_stmt 0 view .LVU397
 1040 00d8 D9F80C30 		ldr	r3, [r9, #12]
 1041              	.LVL141:
 1042              	.LBB288:
 1043              	.LBI288:
 495:./CORE/core_cmInstr.h **** {
 1044              		.loc 2 495 57 is_stmt 1 view .LVU398
 1045              	.LBB289:
 1046              		.loc 2 498 3 view .LVU399
 1047              		.loc 2 498 10 is_stmt 0 view .LVU400
 1048 00dc 1BBA     		rev	r3, r3
 1049              	.LVL142:
 1050              		.loc 2 498 10 view .LVU401
ARM GAS  /tmp/ccsH6HZr.s 			page 38


 1051              	.LBE289:
 1052              	.LBE288:
 326:./Library/stm32f4xx_cryp_aes.c ****     keyaddr+=4;
 1053              		.loc 1 326 45 view .LVU402
 1054 00de 0B93     		str	r3, [sp, #44]
 327:./Library/stm32f4xx_cryp_aes.c ****     AES_CRYP_KeyInitStructure.CRYP_Key3Left = __REV(*(uint32_t*)(keyaddr));
 1055              		.loc 1 327 5 is_stmt 1 view .LVU403
 1056              	.LVL143:
 328:./Library/stm32f4xx_cryp_aes.c ****     keyaddr+=4;
 1057              		.loc 1 328 5 view .LVU404
 328:./Library/stm32f4xx_cryp_aes.c ****     keyaddr+=4;
 1058              		.loc 1 328 47 is_stmt 0 view .LVU405
 1059 00e0 D9F81030 		ldr	r3, [r9, #16]
 1060              	.LVL144:
 1061              	.LBB290:
 1062              	.LBI290:
 495:./CORE/core_cmInstr.h **** {
 1063              		.loc 2 495 57 is_stmt 1 view .LVU406
 1064              	.LBB291:
 1065              		.loc 2 498 3 view .LVU407
 1066              		.loc 2 498 10 is_stmt 0 view .LVU408
 1067 00e4 1BBA     		rev	r3, r3
 1068              	.LVL145:
 1069              		.loc 2 498 10 view .LVU409
 1070              	.LBE291:
 1071              	.LBE290:
 328:./Library/stm32f4xx_cryp_aes.c ****     keyaddr+=4;
 1072              		.loc 1 328 45 view .LVU410
 1073 00e6 0C93     		str	r3, [sp, #48]
 329:./Library/stm32f4xx_cryp_aes.c ****     AES_CRYP_KeyInitStructure.CRYP_Key3Right= __REV(*(uint32_t*)(keyaddr));
 1074              		.loc 1 329 5 is_stmt 1 view .LVU411
 1075              	.LVL146:
 330:./Library/stm32f4xx_cryp_aes.c ****     break;
 1076              		.loc 1 330 5 view .LVU412
 330:./Library/stm32f4xx_cryp_aes.c ****     break;
 1077              		.loc 1 330 47 is_stmt 0 view .LVU413
 1078 00e8 D9F81430 		ldr	r3, [r9, #20]
 1079              	.LVL147:
 1080              	.LBB292:
 1081              	.LBI292:
 495:./CORE/core_cmInstr.h **** {
 1082              		.loc 2 495 57 is_stmt 1 view .LVU414
 1083              	.LBB293:
 1084              		.loc 2 498 3 view .LVU415
 1085              		.loc 2 498 10 is_stmt 0 view .LVU416
 1086 00ec 1BBA     		rev	r3, r3
 1087              	.LVL148:
 1088              		.loc 2 498 10 view .LVU417
 1089              	.LBE293:
 1090              	.LBE292:
 330:./Library/stm32f4xx_cryp_aes.c ****     break;
 1091              		.loc 1 330 45 view .LVU418
 1092 00ee 0D93     		str	r3, [sp, #52]
 331:./Library/stm32f4xx_cryp_aes.c ****     case 256:
 1093              		.loc 1 331 5 is_stmt 1 view .LVU419
 1094 00f0 9FE7     		b	.L23
 1095              	.LVL149:
ARM GAS  /tmp/ccsH6HZr.s 			page 39


 1096              	.L22:
 333:./Library/stm32f4xx_cryp_aes.c ****     AES_CRYP_KeyInitStructure.CRYP_Key0Left = __REV(*(uint32_t*)(keyaddr));
 1097              		.loc 1 333 5 view .LVU420
 333:./Library/stm32f4xx_cryp_aes.c ****     AES_CRYP_KeyInitStructure.CRYP_Key0Left = __REV(*(uint32_t*)(keyaddr));
 1098              		.loc 1 333 42 is_stmt 0 view .LVU421
 1099 00f2 4FF40073 		mov	r3, #512
 1100 00f6 1193     		str	r3, [sp, #68]
 334:./Library/stm32f4xx_cryp_aes.c ****     keyaddr+=4;
 1101              		.loc 1 334 5 is_stmt 1 view .LVU422
 334:./Library/stm32f4xx_cryp_aes.c ****     keyaddr+=4;
 1102              		.loc 1 334 47 is_stmt 0 view .LVU423
 1103 00f8 D9F80030 		ldr	r3, [r9]
 1104              	.LVL150:
 1105              	.LBB294:
 1106              	.LBI294:
 495:./CORE/core_cmInstr.h **** {
 1107              		.loc 2 495 57 is_stmt 1 view .LVU424
 1108              	.LBB295:
 1109              		.loc 2 498 3 view .LVU425
 1110              		.loc 2 498 10 is_stmt 0 view .LVU426
 1111 00fc 1BBA     		rev	r3, r3
 1112              	.LVL151:
 1113              		.loc 2 498 10 view .LVU427
 1114              	.LBE295:
 1115              	.LBE294:
 334:./Library/stm32f4xx_cryp_aes.c ****     keyaddr+=4;
 1116              		.loc 1 334 45 view .LVU428
 1117 00fe 0693     		str	r3, [sp, #24]
 335:./Library/stm32f4xx_cryp_aes.c ****     AES_CRYP_KeyInitStructure.CRYP_Key0Right= __REV(*(uint32_t*)(keyaddr));
 1118              		.loc 1 335 5 is_stmt 1 view .LVU429
 1119              	.LVL152:
 336:./Library/stm32f4xx_cryp_aes.c ****     keyaddr+=4;
 1120              		.loc 1 336 5 view .LVU430
 336:./Library/stm32f4xx_cryp_aes.c ****     keyaddr+=4;
 1121              		.loc 1 336 47 is_stmt 0 view .LVU431
 1122 0100 D9F80430 		ldr	r3, [r9, #4]
 1123              	.LVL153:
 1124              	.LBB296:
 1125              	.LBI296:
 495:./CORE/core_cmInstr.h **** {
 1126              		.loc 2 495 57 is_stmt 1 view .LVU432
 1127              	.LBB297:
 1128              		.loc 2 498 3 view .LVU433
 1129              		.loc 2 498 10 is_stmt 0 view .LVU434
 1130 0104 1BBA     		rev	r3, r3
 1131              	.LVL154:
 1132              		.loc 2 498 10 view .LVU435
 1133              	.LBE297:
 1134              	.LBE296:
 336:./Library/stm32f4xx_cryp_aes.c ****     keyaddr+=4;
 1135              		.loc 1 336 45 view .LVU436
 1136 0106 0793     		str	r3, [sp, #28]
 337:./Library/stm32f4xx_cryp_aes.c ****     AES_CRYP_KeyInitStructure.CRYP_Key1Left = __REV(*(uint32_t*)(keyaddr));
 1137              		.loc 1 337 5 is_stmt 1 view .LVU437
 1138              	.LVL155:
 338:./Library/stm32f4xx_cryp_aes.c ****     keyaddr+=4;
 1139              		.loc 1 338 5 view .LVU438
ARM GAS  /tmp/ccsH6HZr.s 			page 40


 338:./Library/stm32f4xx_cryp_aes.c ****     keyaddr+=4;
 1140              		.loc 1 338 47 is_stmt 0 view .LVU439
 1141 0108 D9F80830 		ldr	r3, [r9, #8]
 1142              	.LVL156:
 1143              	.LBB298:
 1144              	.LBI298:
 495:./CORE/core_cmInstr.h **** {
 1145              		.loc 2 495 57 is_stmt 1 view .LVU440
 1146              	.LBB299:
 1147              		.loc 2 498 3 view .LVU441
 1148              		.loc 2 498 10 is_stmt 0 view .LVU442
 1149 010c 1BBA     		rev	r3, r3
 1150              	.LVL157:
 1151              		.loc 2 498 10 view .LVU443
 1152              	.LBE299:
 1153              	.LBE298:
 338:./Library/stm32f4xx_cryp_aes.c ****     keyaddr+=4;
 1154              		.loc 1 338 45 view .LVU444
 1155 010e 0893     		str	r3, [sp, #32]
 339:./Library/stm32f4xx_cryp_aes.c ****     AES_CRYP_KeyInitStructure.CRYP_Key1Right= __REV(*(uint32_t*)(keyaddr));
 1156              		.loc 1 339 5 is_stmt 1 view .LVU445
 1157              	.LVL158:
 340:./Library/stm32f4xx_cryp_aes.c ****     keyaddr+=4;
 1158              		.loc 1 340 5 view .LVU446
 340:./Library/stm32f4xx_cryp_aes.c ****     keyaddr+=4;
 1159              		.loc 1 340 47 is_stmt 0 view .LVU447
 1160 0110 D9F80C30 		ldr	r3, [r9, #12]
 1161              	.LVL159:
 1162              	.LBB300:
 1163              	.LBI300:
 495:./CORE/core_cmInstr.h **** {
 1164              		.loc 2 495 57 is_stmt 1 view .LVU448
 1165              	.LBB301:
 1166              		.loc 2 498 3 view .LVU449
 1167              		.loc 2 498 10 is_stmt 0 view .LVU450
 1168 0114 1BBA     		rev	r3, r3
 1169              	.LVL160:
 1170              		.loc 2 498 10 view .LVU451
 1171              	.LBE301:
 1172              	.LBE300:
 340:./Library/stm32f4xx_cryp_aes.c ****     keyaddr+=4;
 1173              		.loc 1 340 45 view .LVU452
 1174 0116 0993     		str	r3, [sp, #36]
 341:./Library/stm32f4xx_cryp_aes.c ****     AES_CRYP_KeyInitStructure.CRYP_Key2Left = __REV(*(uint32_t*)(keyaddr));
 1175              		.loc 1 341 5 is_stmt 1 view .LVU453
 1176              	.LVL161:
 342:./Library/stm32f4xx_cryp_aes.c ****     keyaddr+=4;
 1177              		.loc 1 342 5 view .LVU454
 342:./Library/stm32f4xx_cryp_aes.c ****     keyaddr+=4;
 1178              		.loc 1 342 47 is_stmt 0 view .LVU455
 1179 0118 D9F81030 		ldr	r3, [r9, #16]
 1180              	.LVL162:
 1181              	.LBB302:
 1182              	.LBI302:
 495:./CORE/core_cmInstr.h **** {
 1183              		.loc 2 495 57 is_stmt 1 view .LVU456
 1184              	.LBB303:
ARM GAS  /tmp/ccsH6HZr.s 			page 41


 1185              		.loc 2 498 3 view .LVU457
 1186              		.loc 2 498 10 is_stmt 0 view .LVU458
 1187 011c 1BBA     		rev	r3, r3
 1188              	.LVL163:
 1189              		.loc 2 498 10 view .LVU459
 1190              	.LBE303:
 1191              	.LBE302:
 342:./Library/stm32f4xx_cryp_aes.c ****     keyaddr+=4;
 1192              		.loc 1 342 45 view .LVU460
 1193 011e 0A93     		str	r3, [sp, #40]
 343:./Library/stm32f4xx_cryp_aes.c ****     AES_CRYP_KeyInitStructure.CRYP_Key2Right= __REV(*(uint32_t*)(keyaddr));
 1194              		.loc 1 343 5 is_stmt 1 view .LVU461
 1195              	.LVL164:
 344:./Library/stm32f4xx_cryp_aes.c ****     keyaddr+=4;
 1196              		.loc 1 344 5 view .LVU462
 344:./Library/stm32f4xx_cryp_aes.c ****     keyaddr+=4;
 1197              		.loc 1 344 47 is_stmt 0 view .LVU463
 1198 0120 D9F81430 		ldr	r3, [r9, #20]
 1199              	.LVL165:
 1200              	.LBB304:
 1201              	.LBI304:
 495:./CORE/core_cmInstr.h **** {
 1202              		.loc 2 495 57 is_stmt 1 view .LVU464
 1203              	.LBB305:
 1204              		.loc 2 498 3 view .LVU465
 1205              		.loc 2 498 10 is_stmt 0 view .LVU466
 1206 0124 1BBA     		rev	r3, r3
 1207              	.LVL166:
 1208              		.loc 2 498 10 view .LVU467
 1209              	.LBE305:
 1210              	.LBE304:
 344:./Library/stm32f4xx_cryp_aes.c ****     keyaddr+=4;
 1211              		.loc 1 344 45 view .LVU468
 1212 0126 0B93     		str	r3, [sp, #44]
 345:./Library/stm32f4xx_cryp_aes.c ****     AES_CRYP_KeyInitStructure.CRYP_Key3Left = __REV(*(uint32_t*)(keyaddr));
 1213              		.loc 1 345 5 is_stmt 1 view .LVU469
 1214              	.LVL167:
 346:./Library/stm32f4xx_cryp_aes.c ****     keyaddr+=4;
 1215              		.loc 1 346 5 view .LVU470
 346:./Library/stm32f4xx_cryp_aes.c ****     keyaddr+=4;
 1216              		.loc 1 346 47 is_stmt 0 view .LVU471
 1217 0128 D9F81830 		ldr	r3, [r9, #24]
 1218              	.LVL168:
 1219              	.LBB306:
 1220              	.LBI306:
 495:./CORE/core_cmInstr.h **** {
 1221              		.loc 2 495 57 is_stmt 1 view .LVU472
 1222              	.LBB307:
 1223              		.loc 2 498 3 view .LVU473
 1224              		.loc 2 498 10 is_stmt 0 view .LVU474
 1225 012c 1BBA     		rev	r3, r3
 1226              	.LVL169:
 1227              		.loc 2 498 10 view .LVU475
 1228              	.LBE307:
 1229              	.LBE306:
 346:./Library/stm32f4xx_cryp_aes.c ****     keyaddr+=4;
 1230              		.loc 1 346 45 view .LVU476
ARM GAS  /tmp/ccsH6HZr.s 			page 42


 1231 012e 0C93     		str	r3, [sp, #48]
 347:./Library/stm32f4xx_cryp_aes.c ****     AES_CRYP_KeyInitStructure.CRYP_Key3Right= __REV(*(uint32_t*)(keyaddr));
 1232              		.loc 1 347 5 is_stmt 1 view .LVU477
 1233              	.LVL170:
 348:./Library/stm32f4xx_cryp_aes.c ****     break;
 1234              		.loc 1 348 5 view .LVU478
 348:./Library/stm32f4xx_cryp_aes.c ****     break;
 1235              		.loc 1 348 47 is_stmt 0 view .LVU479
 1236 0130 D9F81C30 		ldr	r3, [r9, #28]
 1237              	.LVL171:
 1238              	.LBB308:
 1239              	.LBI308:
 495:./CORE/core_cmInstr.h **** {
 1240              		.loc 2 495 57 is_stmt 1 view .LVU480
 1241              	.LBB309:
 1242              		.loc 2 498 3 view .LVU481
 1243              		.loc 2 498 10 is_stmt 0 view .LVU482
 1244 0134 1BBA     		rev	r3, r3
 1245              	.LVL172:
 1246              		.loc 2 498 10 view .LVU483
 1247              	.LBE309:
 1248              	.LBE308:
 348:./Library/stm32f4xx_cryp_aes.c ****     break;
 1249              		.loc 1 348 45 view .LVU484
 1250 0136 0D93     		str	r3, [sp, #52]
 349:./Library/stm32f4xx_cryp_aes.c ****     default:
 1251              		.loc 1 349 5 is_stmt 1 view .LVU485
 1252 0138 7BE7     		b	.L23
 1253              	.LVL173:
 1254              	.L24:
 398:./Library/stm32f4xx_cryp_aes.c ****     }
 399:./Library/stm32f4xx_cryp_aes.c ****   }
 400:./Library/stm32f4xx_cryp_aes.c ****   /*------------------ AES Encryption ------------------*/
 401:./Library/stm32f4xx_cryp_aes.c ****   else /* AES encryption */
 402:./Library/stm32f4xx_cryp_aes.c ****   {
 403:./Library/stm32f4xx_cryp_aes.c ****     CRYP_KeyInit(&AES_CRYP_KeyInitStructure);
 1255              		.loc 1 403 5 view .LVU486
 1256 013a 06A8     		add	r0, sp, #24
 1257 013c FFF7FEFF 		bl	CRYP_KeyInit
 1258              	.LVL174:
 404:./Library/stm32f4xx_cryp_aes.c **** 
 405:./Library/stm32f4xx_cryp_aes.c ****     /* Crypto Init for Encryption process */
 406:./Library/stm32f4xx_cryp_aes.c ****     AES_CRYP_InitStructure.CRYP_AlgoDir  = CRYP_AlgoDir_Encrypt;
 1259              		.loc 1 406 5 view .LVU487
 1260              		.loc 1 406 42 is_stmt 0 view .LVU488
 1261 0140 0023     		movs	r3, #0
 1262 0142 0E93     		str	r3, [sp, #56]
 296:./Library/stm32f4xx_cryp_aes.c ****   uint32_t keyaddr    = (uint32_t)Key;
 1263              		.loc 1 296 15 view .LVU489
 1264 0144 0126     		movs	r6, #1
 1265              	.LVL175:
 1266              	.L27:
 407:./Library/stm32f4xx_cryp_aes.c ****   }
 408:./Library/stm32f4xx_cryp_aes.c ****   AES_CRYP_InitStructure.CRYP_AlgoMode = CRYP_AlgoMode_AES_CBC;
 1267              		.loc 1 408 3 is_stmt 1 view .LVU490
 1268              		.loc 1 408 40 is_stmt 0 view .LVU491
 1269 0146 2823     		movs	r3, #40
ARM GAS  /tmp/ccsH6HZr.s 			page 43


 1270 0148 0F93     		str	r3, [sp, #60]
 409:./Library/stm32f4xx_cryp_aes.c ****   AES_CRYP_InitStructure.CRYP_DataType = CRYP_DataType_8b;
 1271              		.loc 1 409 3 is_stmt 1 view .LVU492
 1272              		.loc 1 409 40 is_stmt 0 view .LVU493
 1273 014a 8023     		movs	r3, #128
 1274 014c 1093     		str	r3, [sp, #64]
 410:./Library/stm32f4xx_cryp_aes.c ****   CRYP_Init(&AES_CRYP_InitStructure);
 1275              		.loc 1 410 3 is_stmt 1 view .LVU494
 1276 014e 0EA8     		add	r0, sp, #56
 1277 0150 FFF7FEFF 		bl	CRYP_Init
 1278              	.LVL176:
 411:./Library/stm32f4xx_cryp_aes.c **** 
 412:./Library/stm32f4xx_cryp_aes.c ****   /* CRYP Initialization Vectors */
 413:./Library/stm32f4xx_cryp_aes.c ****   CRYP_IVInit(&AES_CRYP_IVInitStructure);
 1279              		.loc 1 413 3 view .LVU495
 1280 0154 02A8     		add	r0, sp, #8
 1281 0156 FFF7FEFF 		bl	CRYP_IVInit
 1282              	.LVL177:
 414:./Library/stm32f4xx_cryp_aes.c **** 
 415:./Library/stm32f4xx_cryp_aes.c ****   /* Flush IN/OUT FIFOs */
 416:./Library/stm32f4xx_cryp_aes.c ****   CRYP_FIFOFlush();
 1283              		.loc 1 416 3 view .LVU496
 1284 015a FFF7FEFF 		bl	CRYP_FIFOFlush
 1285              	.LVL178:
 417:./Library/stm32f4xx_cryp_aes.c **** 
 418:./Library/stm32f4xx_cryp_aes.c ****   /* Enable Crypto processor */
 419:./Library/stm32f4xx_cryp_aes.c ****   CRYP_Cmd(ENABLE);
 1286              		.loc 1 419 3 view .LVU497
 1287 015e 0120     		movs	r0, #1
 1288 0160 FFF7FEFF 		bl	CRYP_Cmd
 1289              	.LVL179:
 420:./Library/stm32f4xx_cryp_aes.c **** 
 421:./Library/stm32f4xx_cryp_aes.c ****   if(CRYP_GetCmdStatus() == DISABLE)
 1290              		.loc 1 421 3 view .LVU498
 1291              		.loc 1 421 6 is_stmt 0 view .LVU499
 1292 0164 FFF7FEFF 		bl	CRYP_GetCmdStatus
 1293              	.LVL180:
 1294              		.loc 1 421 5 view .LVU500
 1295 0168 0028     		cmp	r0, #0
 1296 016a 35D0     		beq	.L28
 422:./Library/stm32f4xx_cryp_aes.c ****   {
 423:./Library/stm32f4xx_cryp_aes.c ****     /* The CRYP peripheral clock is not enabled or the device doesn't embed 
 424:./Library/stm32f4xx_cryp_aes.c ****        the CRYP peripheral (please check the device sales type. */
 425:./Library/stm32f4xx_cryp_aes.c ****     return(ERROR);
 426:./Library/stm32f4xx_cryp_aes.c ****   }
 427:./Library/stm32f4xx_cryp_aes.c ****   
 428:./Library/stm32f4xx_cryp_aes.c ****   for(i=0; ((i<Ilength) && (status != ERROR)); i+=16)
 1297              		.loc 1 428 8 view .LVU501
 1298 016c 0025     		movs	r5, #0
 1299              	.LVL181:
 1300              		.loc 1 428 8 view .LVU502
 1301 016e 02E0     		b	.L29
 1302              	.LVL182:
 1303              	.L30:
 429:./Library/stm32f4xx_cryp_aes.c ****   {
 430:./Library/stm32f4xx_cryp_aes.c **** 
 431:./Library/stm32f4xx_cryp_aes.c ****     /* Write the Input block in the IN FIFO */
ARM GAS  /tmp/ccsH6HZr.s 			page 44


 432:./Library/stm32f4xx_cryp_aes.c ****     CRYP_DataIn(*(uint32_t*)(inputaddr));
 433:./Library/stm32f4xx_cryp_aes.c ****     inputaddr+=4;
 434:./Library/stm32f4xx_cryp_aes.c ****     CRYP_DataIn(*(uint32_t*)(inputaddr));
 435:./Library/stm32f4xx_cryp_aes.c ****     inputaddr+=4;
 436:./Library/stm32f4xx_cryp_aes.c ****     CRYP_DataIn(*(uint32_t*)(inputaddr));
 437:./Library/stm32f4xx_cryp_aes.c ****     inputaddr+=4;
 438:./Library/stm32f4xx_cryp_aes.c ****     CRYP_DataIn(*(uint32_t*)(inputaddr));
 439:./Library/stm32f4xx_cryp_aes.c ****     inputaddr+=4;
 440:./Library/stm32f4xx_cryp_aes.c ****     /* Wait until the complete message has been processed */
 441:./Library/stm32f4xx_cryp_aes.c ****     counter = 0;
 442:./Library/stm32f4xx_cryp_aes.c ****     do
 443:./Library/stm32f4xx_cryp_aes.c ****     {
 444:./Library/stm32f4xx_cryp_aes.c ****       busystatus = CRYP_GetFlagStatus(CRYP_FLAG_BUSY);
 445:./Library/stm32f4xx_cryp_aes.c ****       counter++;
 446:./Library/stm32f4xx_cryp_aes.c ****     }while ((counter != AESBUSY_TIMEOUT) && (busystatus != RESET));
 447:./Library/stm32f4xx_cryp_aes.c **** 
 448:./Library/stm32f4xx_cryp_aes.c ****     if (busystatus != RESET)
 1304              		.loc 1 448 5 is_stmt 1 view .LVU503
 1305              		.loc 1 448 8 is_stmt 0 view .LVU504
 1306 0170 00B3     		cbz	r0, .L38
 449:./Library/stm32f4xx_cryp_aes.c ****    {
 450:./Library/stm32f4xx_cryp_aes.c ****        status = ERROR;
 1307              		.loc 1 450 15 view .LVU505
 1308 0172 0026     		movs	r6, #0
 1309              	.LVL183:
 1310              	.L32:
 428:./Library/stm32f4xx_cryp_aes.c ****   {
 1311              		.loc 1 428 49 is_stmt 1 discriminator 2 view .LVU506
 1312 0174 1035     		adds	r5, r5, #16
 1313              	.LVL184:
 1314              	.L29:
 428:./Library/stm32f4xx_cryp_aes.c ****   {
 1315              		.loc 1 428 25 discriminator 1 view .LVU507
 1316 0176 4545     		cmp	r5, r8
 1317 0178 2AD2     		bcs	.L33
 428:./Library/stm32f4xx_cryp_aes.c ****   {
 1318              		.loc 1 428 25 is_stmt 0 discriminator 3 view .LVU508
 1319 017a 4EB3     		cbz	r6, .L33
 432:./Library/stm32f4xx_cryp_aes.c ****     inputaddr+=4;
 1320              		.loc 1 432 5 is_stmt 1 view .LVU509
 1321 017c 2068     		ldr	r0, [r4]
 1322 017e FFF7FEFF 		bl	CRYP_DataIn
 1323              	.LVL185:
 433:./Library/stm32f4xx_cryp_aes.c ****     CRYP_DataIn(*(uint32_t*)(inputaddr));
 1324              		.loc 1 433 5 view .LVU510
 434:./Library/stm32f4xx_cryp_aes.c ****     inputaddr+=4;
 1325              		.loc 1 434 5 view .LVU511
 1326 0182 6068     		ldr	r0, [r4, #4]
 1327 0184 FFF7FEFF 		bl	CRYP_DataIn
 1328              	.LVL186:
 435:./Library/stm32f4xx_cryp_aes.c ****     CRYP_DataIn(*(uint32_t*)(inputaddr));
 1329              		.loc 1 435 5 view .LVU512
 436:./Library/stm32f4xx_cryp_aes.c ****     inputaddr+=4;
 1330              		.loc 1 436 5 view .LVU513
 1331 0188 A068     		ldr	r0, [r4, #8]
 1332 018a FFF7FEFF 		bl	CRYP_DataIn
 1333              	.LVL187:
ARM GAS  /tmp/ccsH6HZr.s 			page 45


 437:./Library/stm32f4xx_cryp_aes.c ****     CRYP_DataIn(*(uint32_t*)(inputaddr));
 1334              		.loc 1 437 5 view .LVU514
 438:./Library/stm32f4xx_cryp_aes.c ****     inputaddr+=4;
 1335              		.loc 1 438 5 view .LVU515
 1336 018e E068     		ldr	r0, [r4, #12]
 1337 0190 FFF7FEFF 		bl	CRYP_DataIn
 1338              	.LVL188:
 439:./Library/stm32f4xx_cryp_aes.c ****     /* Wait until the complete message has been processed */
 1339              		.loc 1 439 5 view .LVU516
 439:./Library/stm32f4xx_cryp_aes.c ****     /* Wait until the complete message has been processed */
 1340              		.loc 1 439 14 is_stmt 0 view .LVU517
 1341 0194 1034     		adds	r4, r4, #16
 1342              	.LVL189:
 441:./Library/stm32f4xx_cryp_aes.c ****     do
 1343              		.loc 1 441 5 is_stmt 1 view .LVU518
 441:./Library/stm32f4xx_cryp_aes.c ****     do
 1344              		.loc 1 441 13 is_stmt 0 view .LVU519
 1345 0196 0023     		movs	r3, #0
 1346 0198 0193     		str	r3, [sp, #4]
 1347              	.L31:
 442:./Library/stm32f4xx_cryp_aes.c ****     {
 1348              		.loc 1 442 5 is_stmt 1 discriminator 2 view .LVU520
 444:./Library/stm32f4xx_cryp_aes.c ****       counter++;
 1349              		.loc 1 444 7 discriminator 2 view .LVU521
 444:./Library/stm32f4xx_cryp_aes.c ****       counter++;
 1350              		.loc 1 444 20 is_stmt 0 discriminator 2 view .LVU522
 1351 019a 1020     		movs	r0, #16
 1352 019c FFF7FEFF 		bl	CRYP_GetFlagStatus
 1353              	.LVL190:
 445:./Library/stm32f4xx_cryp_aes.c ****     }while ((counter != AESBUSY_TIMEOUT) && (busystatus != RESET));
 1354              		.loc 1 445 7 is_stmt 1 discriminator 2 view .LVU523
 445:./Library/stm32f4xx_cryp_aes.c ****     }while ((counter != AESBUSY_TIMEOUT) && (busystatus != RESET));
 1355              		.loc 1 445 14 is_stmt 0 discriminator 2 view .LVU524
 1356 01a0 019B     		ldr	r3, [sp, #4]
 1357 01a2 0133     		adds	r3, r3, #1
 1358 01a4 0193     		str	r3, [sp, #4]
 446:./Library/stm32f4xx_cryp_aes.c **** 
 1359              		.loc 1 446 42 is_stmt 1 discriminator 2 view .LVU525
 446:./Library/stm32f4xx_cryp_aes.c **** 
 1360              		.loc 1 446 22 is_stmt 0 discriminator 2 view .LVU526
 1361 01a6 019B     		ldr	r3, [sp, #4]
 446:./Library/stm32f4xx_cryp_aes.c **** 
 1362              		.loc 1 446 42 discriminator 2 view .LVU527
 1363 01a8 B3F5803F 		cmp	r3, #65536
 1364 01ac E0D0     		beq	.L30
 446:./Library/stm32f4xx_cryp_aes.c **** 
 1365              		.loc 1 446 42 discriminator 1 view .LVU528
 1366 01ae 0028     		cmp	r0, #0
 1367 01b0 F3D1     		bne	.L31
 1368 01b2 DDE7     		b	.L30
 1369              	.L38:
 451:./Library/stm32f4xx_cryp_aes.c ****     }
 452:./Library/stm32f4xx_cryp_aes.c ****     else
 453:./Library/stm32f4xx_cryp_aes.c ****     {
 454:./Library/stm32f4xx_cryp_aes.c **** 
 455:./Library/stm32f4xx_cryp_aes.c ****       /* Read the Output block from the Output FIFO */
 456:./Library/stm32f4xx_cryp_aes.c ****       *(uint32_t*)(outputaddr) = CRYP_DataOut();
ARM GAS  /tmp/ccsH6HZr.s 			page 46


 1370              		.loc 1 456 7 is_stmt 1 view .LVU529
 1371              		.loc 1 456 34 is_stmt 0 view .LVU530
 1372 01b4 FFF7FEFF 		bl	CRYP_DataOut
 1373              	.LVL191:
 1374              		.loc 1 456 32 view .LVU531
 1375 01b8 3860     		str	r0, [r7]
 457:./Library/stm32f4xx_cryp_aes.c ****       outputaddr+=4;
 1376              		.loc 1 457 7 is_stmt 1 view .LVU532
 1377              	.LVL192:
 458:./Library/stm32f4xx_cryp_aes.c ****       *(uint32_t*)(outputaddr) = CRYP_DataOut();
 1378              		.loc 1 458 7 view .LVU533
 1379              		.loc 1 458 34 is_stmt 0 view .LVU534
 1380 01ba FFF7FEFF 		bl	CRYP_DataOut
 1381              	.LVL193:
 1382              		.loc 1 458 32 view .LVU535
 1383 01be 7860     		str	r0, [r7, #4]
 459:./Library/stm32f4xx_cryp_aes.c ****       outputaddr+=4;
 1384              		.loc 1 459 7 is_stmt 1 view .LVU536
 1385              	.LVL194:
 460:./Library/stm32f4xx_cryp_aes.c ****       *(uint32_t*)(outputaddr) = CRYP_DataOut();
 1386              		.loc 1 460 7 view .LVU537
 1387              		.loc 1 460 34 is_stmt 0 view .LVU538
 1388 01c0 FFF7FEFF 		bl	CRYP_DataOut
 1389              	.LVL195:
 1390              		.loc 1 460 32 view .LVU539
 1391 01c4 B860     		str	r0, [r7, #8]
 461:./Library/stm32f4xx_cryp_aes.c ****       outputaddr+=4;
 1392              		.loc 1 461 7 is_stmt 1 view .LVU540
 1393              	.LVL196:
 462:./Library/stm32f4xx_cryp_aes.c ****       *(uint32_t*)(outputaddr) = CRYP_DataOut();
 1394              		.loc 1 462 7 view .LVU541
 1395              		.loc 1 462 34 is_stmt 0 view .LVU542
 1396 01c6 FFF7FEFF 		bl	CRYP_DataOut
 1397              	.LVL197:
 1398              		.loc 1 462 32 view .LVU543
 1399 01ca F860     		str	r0, [r7, #12]
 463:./Library/stm32f4xx_cryp_aes.c ****       outputaddr+=4;
 1400              		.loc 1 463 7 is_stmt 1 view .LVU544
 1401              		.loc 1 463 17 is_stmt 0 view .LVU545
 1402 01cc 1037     		adds	r7, r7, #16
 1403              	.LVL198:
 1404              		.loc 1 463 17 view .LVU546
 1405 01ce D1E7     		b	.L32
 1406              	.LVL199:
 1407              	.L33:
 464:./Library/stm32f4xx_cryp_aes.c ****     }
 465:./Library/stm32f4xx_cryp_aes.c ****   }
 466:./Library/stm32f4xx_cryp_aes.c **** 
 467:./Library/stm32f4xx_cryp_aes.c ****   /* Disable Crypto */
 468:./Library/stm32f4xx_cryp_aes.c ****   CRYP_Cmd(DISABLE);
 1408              		.loc 1 468 3 is_stmt 1 view .LVU547
 1409 01d0 0020     		movs	r0, #0
 1410 01d2 FFF7FEFF 		bl	CRYP_Cmd
 1411              	.LVL200:
 469:./Library/stm32f4xx_cryp_aes.c **** 
 470:./Library/stm32f4xx_cryp_aes.c ****   return status;
 1412              		.loc 1 470 3 view .LVU548
ARM GAS  /tmp/ccsH6HZr.s 			page 47


 1413              		.loc 1 470 10 is_stmt 0 view .LVU549
 1414 01d6 3046     		mov	r0, r6
 1415              	.LVL201:
 1416              	.L28:
 471:./Library/stm32f4xx_cryp_aes.c **** }
 1417              		.loc 1 471 1 view .LVU550
 1418 01d8 12B0     		add	sp, sp, #72
 1419              	.LCFI5:
 1420              		.cfi_def_cfa_offset 32
 1421              		@ sp needed
 1422 01da BDE8F087 		pop	{r4, r5, r6, r7, r8, r9, r10, pc}
 1423              		.loc 1 471 1 view .LVU551
 1424              		.cfi_endproc
 1425              	.LFE124:
 1427              		.section	.text.CRYP_AES_CTR,"ax",%progbits
 1428              		.align	1
 1429              		.global	CRYP_AES_CTR
 1430              		.syntax unified
 1431              		.thumb
 1432              		.thumb_func
 1434              	CRYP_AES_CTR:
 1435              	.LVL202:
 1436              	.LFB125:
 472:./Library/stm32f4xx_cryp_aes.c **** 
 473:./Library/stm32f4xx_cryp_aes.c **** /**
 474:./Library/stm32f4xx_cryp_aes.c ****   * @brief  Encrypt and decrypt using AES in CTR Mode
 475:./Library/stm32f4xx_cryp_aes.c ****   * @param  Mode: encryption or decryption Mode.
 476:./Library/stm32f4xx_cryp_aes.c ****   *           This parameter can be one of the following values:
 477:./Library/stm32f4xx_cryp_aes.c ****   *            @arg MODE_ENCRYPT: Encryption
 478:./Library/stm32f4xx_cryp_aes.c ****   *            @arg MODE_DECRYPT: Decryption
 479:./Library/stm32f4xx_cryp_aes.c ****   * @param  InitVectors: Initialisation Vectors used for AES algorithm.
 480:./Library/stm32f4xx_cryp_aes.c ****   * @param  Key: Key used for AES algorithm.
 481:./Library/stm32f4xx_cryp_aes.c ****   * @param  Keysize: length of the Key, must be a 128, 192 or 256.
 482:./Library/stm32f4xx_cryp_aes.c ****   * @param  Input: pointer to the Input buffer.
 483:./Library/stm32f4xx_cryp_aes.c ****   * @param  Ilength: length of the Input buffer, must be a multiple of 16.
 484:./Library/stm32f4xx_cryp_aes.c ****   * @param  Output: pointer to the returned buffer.
 485:./Library/stm32f4xx_cryp_aes.c ****   * @retval An ErrorStatus enumeration value:
 486:./Library/stm32f4xx_cryp_aes.c ****   *          - SUCCESS: Operation done
 487:./Library/stm32f4xx_cryp_aes.c ****   *          - ERROR: Operation failed
 488:./Library/stm32f4xx_cryp_aes.c ****   */
 489:./Library/stm32f4xx_cryp_aes.c **** ErrorStatus CRYP_AES_CTR(uint8_t Mode, uint8_t InitVectors[16], uint8_t *Key, 
 490:./Library/stm32f4xx_cryp_aes.c ****                          uint16_t Keysize, uint8_t *Input, uint32_t Ilength,
 491:./Library/stm32f4xx_cryp_aes.c ****                          uint8_t *Output)
 492:./Library/stm32f4xx_cryp_aes.c **** {
 1437              		.loc 1 492 1 is_stmt 1 view -0
 1438              		.cfi_startproc
 1439              		@ args = 12, pretend = 0, frame = 72
 1440              		@ frame_needed = 0, uses_anonymous_args = 0
 1441              		.loc 1 492 1 is_stmt 0 view .LVU553
 1442 0000 2DE9F047 		push	{r4, r5, r6, r7, r8, r9, r10, lr}
 1443              	.LCFI6:
 1444              		.cfi_def_cfa_offset 32
 1445              		.cfi_offset 4, -32
 1446              		.cfi_offset 5, -28
 1447              		.cfi_offset 6, -24
 1448              		.cfi_offset 7, -20
 1449              		.cfi_offset 8, -16
ARM GAS  /tmp/ccsH6HZr.s 			page 48


 1450              		.cfi_offset 9, -12
 1451              		.cfi_offset 10, -8
 1452              		.cfi_offset 14, -4
 1453 0004 92B0     		sub	sp, sp, #72
 1454              	.LCFI7:
 1455              		.cfi_def_cfa_offset 104
 1456 0006 8246     		mov	r10, r0
 1457 0008 0D46     		mov	r5, r1
 1458 000a 1646     		mov	r6, r2
 1459 000c 9946     		mov	r9, r3
 1460 000e DDF86C80 		ldr	r8, [sp, #108]
 493:./Library/stm32f4xx_cryp_aes.c ****   CRYP_InitTypeDef AES_CRYP_InitStructure;
 1461              		.loc 1 493 3 is_stmt 1 view .LVU554
 494:./Library/stm32f4xx_cryp_aes.c ****   CRYP_KeyInitTypeDef AES_CRYP_KeyInitStructure;
 1462              		.loc 1 494 3 view .LVU555
 495:./Library/stm32f4xx_cryp_aes.c ****   CRYP_IVInitTypeDef AES_CRYP_IVInitStructure;
 1463              		.loc 1 495 3 view .LVU556
 496:./Library/stm32f4xx_cryp_aes.c ****   __IO uint32_t counter = 0;
 1464              		.loc 1 496 3 view .LVU557
 1465              		.loc 1 496 17 is_stmt 0 view .LVU558
 1466 0012 0023     		movs	r3, #0
 1467              	.LVL203:
 1468              		.loc 1 496 17 view .LVU559
 1469 0014 0193     		str	r3, [sp, #4]
 497:./Library/stm32f4xx_cryp_aes.c ****   uint32_t busystatus = 0;
 1470              		.loc 1 497 3 is_stmt 1 view .LVU560
 1471              	.LVL204:
 498:./Library/stm32f4xx_cryp_aes.c ****   ErrorStatus status = SUCCESS;
 1472              		.loc 1 498 3 view .LVU561
 499:./Library/stm32f4xx_cryp_aes.c ****   uint32_t keyaddr    = (uint32_t)Key;
 1473              		.loc 1 499 3 view .LVU562
 500:./Library/stm32f4xx_cryp_aes.c ****   uint32_t inputaddr  = (uint32_t)Input;
 1474              		.loc 1 500 3 view .LVU563
 1475              		.loc 1 500 12 is_stmt 0 view .LVU564
 1476 0016 1A9C     		ldr	r4, [sp, #104]
 1477              	.LVL205:
 501:./Library/stm32f4xx_cryp_aes.c ****   uint32_t outputaddr = (uint32_t)Output;
 1478              		.loc 1 501 3 is_stmt 1 view .LVU565
 1479              		.loc 1 501 12 is_stmt 0 view .LVU566
 1480 0018 1C9F     		ldr	r7, [sp, #112]
 1481              	.LVL206:
 502:./Library/stm32f4xx_cryp_aes.c ****   uint32_t ivaddr     = (uint32_t)InitVectors;
 1482              		.loc 1 502 3 is_stmt 1 view .LVU567
 503:./Library/stm32f4xx_cryp_aes.c ****   uint32_t i = 0;
 1483              		.loc 1 503 3 view .LVU568
 504:./Library/stm32f4xx_cryp_aes.c **** 
 505:./Library/stm32f4xx_cryp_aes.c ****   /* Crypto structures initialisation*/
 506:./Library/stm32f4xx_cryp_aes.c ****   CRYP_KeyStructInit(&AES_CRYP_KeyInitStructure);
 1484              		.loc 1 506 3 view .LVU569
 1485 001a 06A8     		add	r0, sp, #24
 1486              	.LVL207:
 1487              		.loc 1 506 3 is_stmt 0 view .LVU570
 1488 001c FFF7FEFF 		bl	CRYP_KeyStructInit
 1489              	.LVL208:
 507:./Library/stm32f4xx_cryp_aes.c **** 
 508:./Library/stm32f4xx_cryp_aes.c ****   switch(Keysize)
 1490              		.loc 1 508 3 is_stmt 1 view .LVU571
ARM GAS  /tmp/ccsH6HZr.s 			page 49


 1491 0020 B9F1C00F 		cmp	r9, #192
 1492 0024 3FD0     		beq	.L40
 1493 0026 B9F5807F 		cmp	r9, #256
 1494 002a 52D0     		beq	.L41
 1495 002c B9F1800F 		cmp	r9, #128
 1496 0030 2AD0     		beq	.L54
 1497              	.LVL209:
 1498              	.L42:
 509:./Library/stm32f4xx_cryp_aes.c ****   {
 510:./Library/stm32f4xx_cryp_aes.c ****     case 128:
 511:./Library/stm32f4xx_cryp_aes.c ****     AES_CRYP_InitStructure.CRYP_KeySize = CRYP_KeySize_128b;
 512:./Library/stm32f4xx_cryp_aes.c ****     AES_CRYP_KeyInitStructure.CRYP_Key2Left = __REV(*(uint32_t*)(keyaddr));
 513:./Library/stm32f4xx_cryp_aes.c ****     keyaddr+=4;
 514:./Library/stm32f4xx_cryp_aes.c ****     AES_CRYP_KeyInitStructure.CRYP_Key2Right= __REV(*(uint32_t*)(keyaddr));
 515:./Library/stm32f4xx_cryp_aes.c ****     keyaddr+=4;
 516:./Library/stm32f4xx_cryp_aes.c ****     AES_CRYP_KeyInitStructure.CRYP_Key3Left = __REV(*(uint32_t*)(keyaddr));
 517:./Library/stm32f4xx_cryp_aes.c ****     keyaddr+=4;
 518:./Library/stm32f4xx_cryp_aes.c ****     AES_CRYP_KeyInitStructure.CRYP_Key3Right= __REV(*(uint32_t*)(keyaddr));
 519:./Library/stm32f4xx_cryp_aes.c ****     break;
 520:./Library/stm32f4xx_cryp_aes.c ****     case 192:
 521:./Library/stm32f4xx_cryp_aes.c ****     AES_CRYP_InitStructure.CRYP_KeySize  = CRYP_KeySize_192b;
 522:./Library/stm32f4xx_cryp_aes.c ****     AES_CRYP_KeyInitStructure.CRYP_Key1Left = __REV(*(uint32_t*)(keyaddr));
 523:./Library/stm32f4xx_cryp_aes.c ****     keyaddr+=4;
 524:./Library/stm32f4xx_cryp_aes.c ****     AES_CRYP_KeyInitStructure.CRYP_Key1Right= __REV(*(uint32_t*)(keyaddr));
 525:./Library/stm32f4xx_cryp_aes.c ****     keyaddr+=4;
 526:./Library/stm32f4xx_cryp_aes.c ****     AES_CRYP_KeyInitStructure.CRYP_Key2Left = __REV(*(uint32_t*)(keyaddr));
 527:./Library/stm32f4xx_cryp_aes.c ****     keyaddr+=4;
 528:./Library/stm32f4xx_cryp_aes.c ****     AES_CRYP_KeyInitStructure.CRYP_Key2Right= __REV(*(uint32_t*)(keyaddr));
 529:./Library/stm32f4xx_cryp_aes.c ****     keyaddr+=4;
 530:./Library/stm32f4xx_cryp_aes.c ****     AES_CRYP_KeyInitStructure.CRYP_Key3Left = __REV(*(uint32_t*)(keyaddr));
 531:./Library/stm32f4xx_cryp_aes.c ****     keyaddr+=4;
 532:./Library/stm32f4xx_cryp_aes.c ****     AES_CRYP_KeyInitStructure.CRYP_Key3Right= __REV(*(uint32_t*)(keyaddr));
 533:./Library/stm32f4xx_cryp_aes.c ****     break;
 534:./Library/stm32f4xx_cryp_aes.c ****     case 256:
 535:./Library/stm32f4xx_cryp_aes.c ****     AES_CRYP_InitStructure.CRYP_KeySize  = CRYP_KeySize_256b;
 536:./Library/stm32f4xx_cryp_aes.c ****     AES_CRYP_KeyInitStructure.CRYP_Key0Left = __REV(*(uint32_t*)(keyaddr));
 537:./Library/stm32f4xx_cryp_aes.c ****     keyaddr+=4;
 538:./Library/stm32f4xx_cryp_aes.c ****     AES_CRYP_KeyInitStructure.CRYP_Key0Right= __REV(*(uint32_t*)(keyaddr));
 539:./Library/stm32f4xx_cryp_aes.c ****     keyaddr+=4;
 540:./Library/stm32f4xx_cryp_aes.c ****     AES_CRYP_KeyInitStructure.CRYP_Key1Left = __REV(*(uint32_t*)(keyaddr));
 541:./Library/stm32f4xx_cryp_aes.c ****     keyaddr+=4;
 542:./Library/stm32f4xx_cryp_aes.c ****     AES_CRYP_KeyInitStructure.CRYP_Key1Right= __REV(*(uint32_t*)(keyaddr));
 543:./Library/stm32f4xx_cryp_aes.c ****     keyaddr+=4;
 544:./Library/stm32f4xx_cryp_aes.c ****     AES_CRYP_KeyInitStructure.CRYP_Key2Left = __REV(*(uint32_t*)(keyaddr));
 545:./Library/stm32f4xx_cryp_aes.c ****     keyaddr+=4;
 546:./Library/stm32f4xx_cryp_aes.c ****     AES_CRYP_KeyInitStructure.CRYP_Key2Right= __REV(*(uint32_t*)(keyaddr));
 547:./Library/stm32f4xx_cryp_aes.c ****     keyaddr+=4;
 548:./Library/stm32f4xx_cryp_aes.c ****     AES_CRYP_KeyInitStructure.CRYP_Key3Left = __REV(*(uint32_t*)(keyaddr));
 549:./Library/stm32f4xx_cryp_aes.c ****     keyaddr+=4;
 550:./Library/stm32f4xx_cryp_aes.c ****     AES_CRYP_KeyInitStructure.CRYP_Key3Right= __REV(*(uint32_t*)(keyaddr));
 551:./Library/stm32f4xx_cryp_aes.c ****     break;
 552:./Library/stm32f4xx_cryp_aes.c ****     default:
 553:./Library/stm32f4xx_cryp_aes.c ****     break;
 554:./Library/stm32f4xx_cryp_aes.c ****   }
 555:./Library/stm32f4xx_cryp_aes.c ****   /* CRYP Initialization Vectors */
 556:./Library/stm32f4xx_cryp_aes.c ****   AES_CRYP_IVInitStructure.CRYP_IV0Left = __REV(*(uint32_t*)(ivaddr));
 1499              		.loc 1 556 3 view .LVU572
ARM GAS  /tmp/ccsH6HZr.s 			page 50


 1500              		.loc 1 556 43 is_stmt 0 view .LVU573
 1501 0032 2B68     		ldr	r3, [r5]
 1502              	.LVL210:
 1503              	.LBB310:
 1504              	.LBI310:
 495:./CORE/core_cmInstr.h **** {
 1505              		.loc 2 495 57 is_stmt 1 view .LVU574
 1506              	.LBB311:
 1507              		.loc 2 498 3 view .LVU575
 1508              		.loc 2 498 10 is_stmt 0 view .LVU576
 1509 0034 1BBA     		rev	r3, r3
 1510              	.LVL211:
 1511              		.loc 2 498 10 view .LVU577
 1512              	.LBE311:
 1513              	.LBE310:
 1514              		.loc 1 556 41 view .LVU578
 1515 0036 0293     		str	r3, [sp, #8]
 557:./Library/stm32f4xx_cryp_aes.c ****   ivaddr+=4;
 1516              		.loc 1 557 3 is_stmt 1 view .LVU579
 1517              	.LVL212:
 558:./Library/stm32f4xx_cryp_aes.c ****   AES_CRYP_IVInitStructure.CRYP_IV0Right= __REV(*(uint32_t*)(ivaddr));
 1518              		.loc 1 558 3 view .LVU580
 1519              		.loc 1 558 43 is_stmt 0 view .LVU581
 1520 0038 6B68     		ldr	r3, [r5, #4]
 1521              	.LVL213:
 1522              	.LBB312:
 1523              	.LBI312:
 495:./CORE/core_cmInstr.h **** {
 1524              		.loc 2 495 57 is_stmt 1 view .LVU582
 1525              	.LBB313:
 1526              		.loc 2 498 3 view .LVU583
 1527              		.loc 2 498 10 is_stmt 0 view .LVU584
 1528 003a 1BBA     		rev	r3, r3
 1529              	.LVL214:
 1530              		.loc 2 498 10 view .LVU585
 1531              	.LBE313:
 1532              	.LBE312:
 1533              		.loc 1 558 41 view .LVU586
 1534 003c 0393     		str	r3, [sp, #12]
 559:./Library/stm32f4xx_cryp_aes.c ****   ivaddr+=4;
 1535              		.loc 1 559 3 is_stmt 1 view .LVU587
 1536              	.LVL215:
 560:./Library/stm32f4xx_cryp_aes.c ****   AES_CRYP_IVInitStructure.CRYP_IV1Left = __REV(*(uint32_t*)(ivaddr));
 1537              		.loc 1 560 3 view .LVU588
 1538              		.loc 1 560 43 is_stmt 0 view .LVU589
 1539 003e AB68     		ldr	r3, [r5, #8]
 1540              	.LVL216:
 1541              	.LBB314:
 1542              	.LBI314:
 495:./CORE/core_cmInstr.h **** {
 1543              		.loc 2 495 57 is_stmt 1 view .LVU590
 1544              	.LBB315:
 1545              		.loc 2 498 3 view .LVU591
 1546              		.loc 2 498 10 is_stmt 0 view .LVU592
 1547 0040 1BBA     		rev	r3, r3
 1548              	.LVL217:
 1549              		.loc 2 498 10 view .LVU593
ARM GAS  /tmp/ccsH6HZr.s 			page 51


 1550              	.LBE315:
 1551              	.LBE314:
 1552              		.loc 1 560 41 view .LVU594
 1553 0042 0493     		str	r3, [sp, #16]
 561:./Library/stm32f4xx_cryp_aes.c ****   ivaddr+=4;
 1554              		.loc 1 561 3 is_stmt 1 view .LVU595
 1555              	.LVL218:
 562:./Library/stm32f4xx_cryp_aes.c ****   AES_CRYP_IVInitStructure.CRYP_IV1Right= __REV(*(uint32_t*)(ivaddr));
 1556              		.loc 1 562 3 view .LVU596
 1557              		.loc 1 562 43 is_stmt 0 view .LVU597
 1558 0044 EB68     		ldr	r3, [r5, #12]
 1559              	.LVL219:
 1560              	.LBB316:
 1561              	.LBI316:
 495:./CORE/core_cmInstr.h **** {
 1562              		.loc 2 495 57 is_stmt 1 view .LVU598
 1563              	.LBB317:
 1564              		.loc 2 498 3 view .LVU599
 1565              		.loc 2 498 10 is_stmt 0 view .LVU600
 1566 0046 1BBA     		rev	r3, r3
 1567              	.LVL220:
 1568              		.loc 2 498 10 view .LVU601
 1569              	.LBE317:
 1570              	.LBE316:
 1571              		.loc 1 562 41 view .LVU602
 1572 0048 0593     		str	r3, [sp, #20]
 563:./Library/stm32f4xx_cryp_aes.c **** 
 564:./Library/stm32f4xx_cryp_aes.c ****   /* Key Initialisation */
 565:./Library/stm32f4xx_cryp_aes.c ****   CRYP_KeyInit(&AES_CRYP_KeyInitStructure);
 1573              		.loc 1 565 3 is_stmt 1 view .LVU603
 1574 004a 06A8     		add	r0, sp, #24
 1575 004c FFF7FEFF 		bl	CRYP_KeyInit
 1576              	.LVL221:
 566:./Library/stm32f4xx_cryp_aes.c **** 
 567:./Library/stm32f4xx_cryp_aes.c ****   /*------------------ AES Decryption ------------------*/
 568:./Library/stm32f4xx_cryp_aes.c ****   if(Mode == MODE_DECRYPT) /* AES decryption */
 1577              		.loc 1 568 3 view .LVU604
 1578              		.loc 1 568 5 is_stmt 0 view .LVU605
 1579 0050 BAF1000F 		cmp	r10, #0
 1580 0054 59D1     		bne	.L43
 569:./Library/stm32f4xx_cryp_aes.c ****   {
 570:./Library/stm32f4xx_cryp_aes.c ****     /* Crypto Init for decryption process */
 571:./Library/stm32f4xx_cryp_aes.c ****     AES_CRYP_InitStructure.CRYP_AlgoDir = CRYP_AlgoDir_Decrypt;
 1581              		.loc 1 571 5 is_stmt 1 view .LVU606
 1582              		.loc 1 571 41 is_stmt 0 view .LVU607
 1583 0056 0423     		movs	r3, #4
 1584 0058 0E93     		str	r3, [sp, #56]
 1585              	.L44:
 572:./Library/stm32f4xx_cryp_aes.c ****   }
 573:./Library/stm32f4xx_cryp_aes.c ****   /*------------------ AES Encryption ------------------*/
 574:./Library/stm32f4xx_cryp_aes.c ****   else /* AES encryption */
 575:./Library/stm32f4xx_cryp_aes.c ****   {
 576:./Library/stm32f4xx_cryp_aes.c ****     /* Crypto Init for Encryption process */
 577:./Library/stm32f4xx_cryp_aes.c ****     AES_CRYP_InitStructure.CRYP_AlgoDir = CRYP_AlgoDir_Encrypt;
 578:./Library/stm32f4xx_cryp_aes.c ****   }
 579:./Library/stm32f4xx_cryp_aes.c ****   AES_CRYP_InitStructure.CRYP_AlgoMode = CRYP_AlgoMode_AES_CTR;
 1586              		.loc 1 579 3 is_stmt 1 view .LVU608
ARM GAS  /tmp/ccsH6HZr.s 			page 52


 1587              		.loc 1 579 40 is_stmt 0 view .LVU609
 1588 005a 3023     		movs	r3, #48
 1589 005c 0F93     		str	r3, [sp, #60]
 580:./Library/stm32f4xx_cryp_aes.c ****   AES_CRYP_InitStructure.CRYP_DataType = CRYP_DataType_8b;
 1590              		.loc 1 580 3 is_stmt 1 view .LVU610
 1591              		.loc 1 580 40 is_stmt 0 view .LVU611
 1592 005e 8023     		movs	r3, #128
 1593 0060 1093     		str	r3, [sp, #64]
 581:./Library/stm32f4xx_cryp_aes.c ****   CRYP_Init(&AES_CRYP_InitStructure);
 1594              		.loc 1 581 3 is_stmt 1 view .LVU612
 1595 0062 0EA8     		add	r0, sp, #56
 1596 0064 FFF7FEFF 		bl	CRYP_Init
 1597              	.LVL222:
 582:./Library/stm32f4xx_cryp_aes.c **** 
 583:./Library/stm32f4xx_cryp_aes.c ****   /* CRYP Initialization Vectors */
 584:./Library/stm32f4xx_cryp_aes.c ****   CRYP_IVInit(&AES_CRYP_IVInitStructure);
 1598              		.loc 1 584 3 view .LVU613
 1599 0068 02A8     		add	r0, sp, #8
 1600 006a FFF7FEFF 		bl	CRYP_IVInit
 1601              	.LVL223:
 585:./Library/stm32f4xx_cryp_aes.c **** 
 586:./Library/stm32f4xx_cryp_aes.c ****   /* Flush IN/OUT FIFOs */
 587:./Library/stm32f4xx_cryp_aes.c ****   CRYP_FIFOFlush();
 1602              		.loc 1 587 3 view .LVU614
 1603 006e FFF7FEFF 		bl	CRYP_FIFOFlush
 1604              	.LVL224:
 588:./Library/stm32f4xx_cryp_aes.c **** 
 589:./Library/stm32f4xx_cryp_aes.c ****   /* Enable Crypto processor */
 590:./Library/stm32f4xx_cryp_aes.c ****   CRYP_Cmd(ENABLE);
 1605              		.loc 1 590 3 view .LVU615
 1606 0072 0120     		movs	r0, #1
 1607 0074 FFF7FEFF 		bl	CRYP_Cmd
 1608              	.LVL225:
 591:./Library/stm32f4xx_cryp_aes.c **** 
 592:./Library/stm32f4xx_cryp_aes.c ****   if(CRYP_GetCmdStatus() == DISABLE)
 1609              		.loc 1 592 3 view .LVU616
 1610              		.loc 1 592 6 is_stmt 0 view .LVU617
 1611 0078 FFF7FEFF 		bl	CRYP_GetCmdStatus
 1612              	.LVL226:
 1613              		.loc 1 592 5 view .LVU618
 1614 007c 0646     		mov	r6, r0
 1615              	.LVL227:
 1616              		.loc 1 592 5 view .LVU619
 1617 007e 0028     		cmp	r0, #0
 1618 0080 79D0     		beq	.L45
 593:./Library/stm32f4xx_cryp_aes.c ****   {
 594:./Library/stm32f4xx_cryp_aes.c ****     /* The CRYP peripheral clock is not enabled or the device doesn't embed 
 595:./Library/stm32f4xx_cryp_aes.c ****        the CRYP peripheral (please check the device sales type. */
 596:./Library/stm32f4xx_cryp_aes.c ****     return(ERROR);
 597:./Library/stm32f4xx_cryp_aes.c ****   }
 598:./Library/stm32f4xx_cryp_aes.c ****   
 599:./Library/stm32f4xx_cryp_aes.c ****   for(i=0; ((i<Ilength) && (status != ERROR)); i+=16)
 1619              		.loc 1 599 8 view .LVU620
 1620 0082 0025     		movs	r5, #0
 1621              	.LVL228:
 498:./Library/stm32f4xx_cryp_aes.c ****   uint32_t keyaddr    = (uint32_t)Key;
 1622              		.loc 1 498 15 view .LVU621
ARM GAS  /tmp/ccsH6HZr.s 			page 53


 1623 0084 0126     		movs	r6, #1
 1624 0086 46E0     		b	.L46
 1625              	.LVL229:
 1626              	.L54:
 511:./Library/stm32f4xx_cryp_aes.c ****     AES_CRYP_KeyInitStructure.CRYP_Key2Left = __REV(*(uint32_t*)(keyaddr));
 1627              		.loc 1 511 5 is_stmt 1 view .LVU622
 511:./Library/stm32f4xx_cryp_aes.c ****     AES_CRYP_KeyInitStructure.CRYP_Key2Left = __REV(*(uint32_t*)(keyaddr));
 1628              		.loc 1 511 41 is_stmt 0 view .LVU623
 1629 0088 0023     		movs	r3, #0
 1630 008a 1193     		str	r3, [sp, #68]
 512:./Library/stm32f4xx_cryp_aes.c ****     keyaddr+=4;
 1631              		.loc 1 512 5 is_stmt 1 view .LVU624
 512:./Library/stm32f4xx_cryp_aes.c ****     keyaddr+=4;
 1632              		.loc 1 512 47 is_stmt 0 view .LVU625
 1633 008c 3368     		ldr	r3, [r6]
 1634              	.LVL230:
 1635              	.LBB318:
 1636              	.LBI318:
 495:./CORE/core_cmInstr.h **** {
 1637              		.loc 2 495 57 is_stmt 1 view .LVU626
 1638              	.LBB319:
 1639              		.loc 2 498 3 view .LVU627
 1640              		.loc 2 498 10 is_stmt 0 view .LVU628
 1641 008e 1BBA     		rev	r3, r3
 1642              	.LVL231:
 1643              		.loc 2 498 10 view .LVU629
 1644              	.LBE319:
 1645              	.LBE318:
 512:./Library/stm32f4xx_cryp_aes.c ****     keyaddr+=4;
 1646              		.loc 1 512 45 view .LVU630
 1647 0090 0A93     		str	r3, [sp, #40]
 513:./Library/stm32f4xx_cryp_aes.c ****     AES_CRYP_KeyInitStructure.CRYP_Key2Right= __REV(*(uint32_t*)(keyaddr));
 1648              		.loc 1 513 5 is_stmt 1 view .LVU631
 1649              	.LVL232:
 514:./Library/stm32f4xx_cryp_aes.c ****     keyaddr+=4;
 1650              		.loc 1 514 5 view .LVU632
 514:./Library/stm32f4xx_cryp_aes.c ****     keyaddr+=4;
 1651              		.loc 1 514 47 is_stmt 0 view .LVU633
 1652 0092 7368     		ldr	r3, [r6, #4]
 1653              	.LVL233:
 1654              	.LBB320:
 1655              	.LBI320:
 495:./CORE/core_cmInstr.h **** {
 1656              		.loc 2 495 57 is_stmt 1 view .LVU634
 1657              	.LBB321:
 1658              		.loc 2 498 3 view .LVU635
 1659              		.loc 2 498 10 is_stmt 0 view .LVU636
 1660 0094 1BBA     		rev	r3, r3
 1661              	.LVL234:
 1662              		.loc 2 498 10 view .LVU637
 1663              	.LBE321:
 1664              	.LBE320:
 514:./Library/stm32f4xx_cryp_aes.c ****     keyaddr+=4;
 1665              		.loc 1 514 45 view .LVU638
 1666 0096 0B93     		str	r3, [sp, #44]
 515:./Library/stm32f4xx_cryp_aes.c ****     AES_CRYP_KeyInitStructure.CRYP_Key3Left = __REV(*(uint32_t*)(keyaddr));
 1667              		.loc 1 515 5 is_stmt 1 view .LVU639
ARM GAS  /tmp/ccsH6HZr.s 			page 54


 1668              	.LVL235:
 516:./Library/stm32f4xx_cryp_aes.c ****     keyaddr+=4;
 1669              		.loc 1 516 5 view .LVU640
 516:./Library/stm32f4xx_cryp_aes.c ****     keyaddr+=4;
 1670              		.loc 1 516 47 is_stmt 0 view .LVU641
 1671 0098 B368     		ldr	r3, [r6, #8]
 1672              	.LVL236:
 1673              	.LBB322:
 1674              	.LBI322:
 495:./CORE/core_cmInstr.h **** {
 1675              		.loc 2 495 57 is_stmt 1 view .LVU642
 1676              	.LBB323:
 1677              		.loc 2 498 3 view .LVU643
 1678              		.loc 2 498 10 is_stmt 0 view .LVU644
 1679 009a 1BBA     		rev	r3, r3
 1680              	.LVL237:
 1681              		.loc 2 498 10 view .LVU645
 1682              	.LBE323:
 1683              	.LBE322:
 516:./Library/stm32f4xx_cryp_aes.c ****     keyaddr+=4;
 1684              		.loc 1 516 45 view .LVU646
 1685 009c 0C93     		str	r3, [sp, #48]
 517:./Library/stm32f4xx_cryp_aes.c ****     AES_CRYP_KeyInitStructure.CRYP_Key3Right= __REV(*(uint32_t*)(keyaddr));
 1686              		.loc 1 517 5 is_stmt 1 view .LVU647
 1687              	.LVL238:
 518:./Library/stm32f4xx_cryp_aes.c ****     break;
 1688              		.loc 1 518 5 view .LVU648
 518:./Library/stm32f4xx_cryp_aes.c ****     break;
 1689              		.loc 1 518 47 is_stmt 0 view .LVU649
 1690 009e F368     		ldr	r3, [r6, #12]
 1691              	.LVL239:
 1692              	.LBB324:
 1693              	.LBI324:
 495:./CORE/core_cmInstr.h **** {
 1694              		.loc 2 495 57 is_stmt 1 view .LVU650
 1695              	.LBB325:
 1696              		.loc 2 498 3 view .LVU651
 1697              		.loc 2 498 10 is_stmt 0 view .LVU652
 1698 00a0 1BBA     		rev	r3, r3
 1699              	.LVL240:
 1700              		.loc 2 498 10 view .LVU653
 1701              	.LBE325:
 1702              	.LBE324:
 518:./Library/stm32f4xx_cryp_aes.c ****     break;
 1703              		.loc 1 518 45 view .LVU654
 1704 00a2 0D93     		str	r3, [sp, #52]
 519:./Library/stm32f4xx_cryp_aes.c ****     case 192:
 1705              		.loc 1 519 5 is_stmt 1 view .LVU655
 1706 00a4 C5E7     		b	.L42
 1707              	.LVL241:
 1708              	.L40:
 521:./Library/stm32f4xx_cryp_aes.c ****     AES_CRYP_KeyInitStructure.CRYP_Key1Left = __REV(*(uint32_t*)(keyaddr));
 1709              		.loc 1 521 5 view .LVU656
 521:./Library/stm32f4xx_cryp_aes.c ****     AES_CRYP_KeyInitStructure.CRYP_Key1Left = __REV(*(uint32_t*)(keyaddr));
 1710              		.loc 1 521 42 is_stmt 0 view .LVU657
 1711 00a6 4FF48073 		mov	r3, #256
 1712 00aa 1193     		str	r3, [sp, #68]
ARM GAS  /tmp/ccsH6HZr.s 			page 55


 522:./Library/stm32f4xx_cryp_aes.c ****     keyaddr+=4;
 1713              		.loc 1 522 5 is_stmt 1 view .LVU658
 522:./Library/stm32f4xx_cryp_aes.c ****     keyaddr+=4;
 1714              		.loc 1 522 47 is_stmt 0 view .LVU659
 1715 00ac 3368     		ldr	r3, [r6]
 1716              	.LVL242:
 1717              	.LBB326:
 1718              	.LBI326:
 495:./CORE/core_cmInstr.h **** {
 1719              		.loc 2 495 57 is_stmt 1 view .LVU660
 1720              	.LBB327:
 1721              		.loc 2 498 3 view .LVU661
 1722              		.loc 2 498 10 is_stmt 0 view .LVU662
 1723 00ae 1BBA     		rev	r3, r3
 1724              	.LVL243:
 1725              		.loc 2 498 10 view .LVU663
 1726              	.LBE327:
 1727              	.LBE326:
 522:./Library/stm32f4xx_cryp_aes.c ****     keyaddr+=4;
 1728              		.loc 1 522 45 view .LVU664
 1729 00b0 0893     		str	r3, [sp, #32]
 523:./Library/stm32f4xx_cryp_aes.c ****     AES_CRYP_KeyInitStructure.CRYP_Key1Right= __REV(*(uint32_t*)(keyaddr));
 1730              		.loc 1 523 5 is_stmt 1 view .LVU665
 1731              	.LVL244:
 524:./Library/stm32f4xx_cryp_aes.c ****     keyaddr+=4;
 1732              		.loc 1 524 5 view .LVU666
 524:./Library/stm32f4xx_cryp_aes.c ****     keyaddr+=4;
 1733              		.loc 1 524 47 is_stmt 0 view .LVU667
 1734 00b2 7368     		ldr	r3, [r6, #4]
 1735              	.LVL245:
 1736              	.LBB328:
 1737              	.LBI328:
 495:./CORE/core_cmInstr.h **** {
 1738              		.loc 2 495 57 is_stmt 1 view .LVU668
 1739              	.LBB329:
 1740              		.loc 2 498 3 view .LVU669
 1741              		.loc 2 498 10 is_stmt 0 view .LVU670
 1742 00b4 1BBA     		rev	r3, r3
 1743              	.LVL246:
 1744              		.loc 2 498 10 view .LVU671
 1745              	.LBE329:
 1746              	.LBE328:
 524:./Library/stm32f4xx_cryp_aes.c ****     keyaddr+=4;
 1747              		.loc 1 524 45 view .LVU672
 1748 00b6 0993     		str	r3, [sp, #36]
 525:./Library/stm32f4xx_cryp_aes.c ****     AES_CRYP_KeyInitStructure.CRYP_Key2Left = __REV(*(uint32_t*)(keyaddr));
 1749              		.loc 1 525 5 is_stmt 1 view .LVU673
 1750              	.LVL247:
 526:./Library/stm32f4xx_cryp_aes.c ****     keyaddr+=4;
 1751              		.loc 1 526 5 view .LVU674
 526:./Library/stm32f4xx_cryp_aes.c ****     keyaddr+=4;
 1752              		.loc 1 526 47 is_stmt 0 view .LVU675
 1753 00b8 B368     		ldr	r3, [r6, #8]
 1754              	.LVL248:
 1755              	.LBB330:
 1756              	.LBI330:
 495:./CORE/core_cmInstr.h **** {
ARM GAS  /tmp/ccsH6HZr.s 			page 56


 1757              		.loc 2 495 57 is_stmt 1 view .LVU676
 1758              	.LBB331:
 1759              		.loc 2 498 3 view .LVU677
 1760              		.loc 2 498 10 is_stmt 0 view .LVU678
 1761 00ba 1BBA     		rev	r3, r3
 1762              	.LVL249:
 1763              		.loc 2 498 10 view .LVU679
 1764              	.LBE331:
 1765              	.LBE330:
 526:./Library/stm32f4xx_cryp_aes.c ****     keyaddr+=4;
 1766              		.loc 1 526 45 view .LVU680
 1767 00bc 0A93     		str	r3, [sp, #40]
 527:./Library/stm32f4xx_cryp_aes.c ****     AES_CRYP_KeyInitStructure.CRYP_Key2Right= __REV(*(uint32_t*)(keyaddr));
 1768              		.loc 1 527 5 is_stmt 1 view .LVU681
 1769              	.LVL250:
 528:./Library/stm32f4xx_cryp_aes.c ****     keyaddr+=4;
 1770              		.loc 1 528 5 view .LVU682
 528:./Library/stm32f4xx_cryp_aes.c ****     keyaddr+=4;
 1771              		.loc 1 528 47 is_stmt 0 view .LVU683
 1772 00be F368     		ldr	r3, [r6, #12]
 1773              	.LVL251:
 1774              	.LBB332:
 1775              	.LBI332:
 495:./CORE/core_cmInstr.h **** {
 1776              		.loc 2 495 57 is_stmt 1 view .LVU684
 1777              	.LBB333:
 1778              		.loc 2 498 3 view .LVU685
 1779              		.loc 2 498 10 is_stmt 0 view .LVU686
 1780 00c0 1BBA     		rev	r3, r3
 1781              	.LVL252:
 1782              		.loc 2 498 10 view .LVU687
 1783              	.LBE333:
 1784              	.LBE332:
 528:./Library/stm32f4xx_cryp_aes.c ****     keyaddr+=4;
 1785              		.loc 1 528 45 view .LVU688
 1786 00c2 0B93     		str	r3, [sp, #44]
 529:./Library/stm32f4xx_cryp_aes.c ****     AES_CRYP_KeyInitStructure.CRYP_Key3Left = __REV(*(uint32_t*)(keyaddr));
 1787              		.loc 1 529 5 is_stmt 1 view .LVU689
 1788              	.LVL253:
 530:./Library/stm32f4xx_cryp_aes.c ****     keyaddr+=4;
 1789              		.loc 1 530 5 view .LVU690
 530:./Library/stm32f4xx_cryp_aes.c ****     keyaddr+=4;
 1790              		.loc 1 530 47 is_stmt 0 view .LVU691
 1791 00c4 3369     		ldr	r3, [r6, #16]
 1792              	.LVL254:
 1793              	.LBB334:
 1794              	.LBI334:
 495:./CORE/core_cmInstr.h **** {
 1795              		.loc 2 495 57 is_stmt 1 view .LVU692
 1796              	.LBB335:
 1797              		.loc 2 498 3 view .LVU693
 1798              		.loc 2 498 10 is_stmt 0 view .LVU694
 1799 00c6 1BBA     		rev	r3, r3
 1800              	.LVL255:
 1801              		.loc 2 498 10 view .LVU695
 1802              	.LBE335:
 1803              	.LBE334:
ARM GAS  /tmp/ccsH6HZr.s 			page 57


 530:./Library/stm32f4xx_cryp_aes.c ****     keyaddr+=4;
 1804              		.loc 1 530 45 view .LVU696
 1805 00c8 0C93     		str	r3, [sp, #48]
 531:./Library/stm32f4xx_cryp_aes.c ****     AES_CRYP_KeyInitStructure.CRYP_Key3Right= __REV(*(uint32_t*)(keyaddr));
 1806              		.loc 1 531 5 is_stmt 1 view .LVU697
 1807              	.LVL256:
 532:./Library/stm32f4xx_cryp_aes.c ****     break;
 1808              		.loc 1 532 5 view .LVU698
 532:./Library/stm32f4xx_cryp_aes.c ****     break;
 1809              		.loc 1 532 47 is_stmt 0 view .LVU699
 1810 00ca 7369     		ldr	r3, [r6, #20]
 1811              	.LVL257:
 1812              	.LBB336:
 1813              	.LBI336:
 495:./CORE/core_cmInstr.h **** {
 1814              		.loc 2 495 57 is_stmt 1 view .LVU700
 1815              	.LBB337:
 1816              		.loc 2 498 3 view .LVU701
 1817              		.loc 2 498 10 is_stmt 0 view .LVU702
 1818 00cc 1BBA     		rev	r3, r3
 1819              	.LVL258:
 1820              		.loc 2 498 10 view .LVU703
 1821              	.LBE337:
 1822              	.LBE336:
 532:./Library/stm32f4xx_cryp_aes.c ****     break;
 1823              		.loc 1 532 45 view .LVU704
 1824 00ce 0D93     		str	r3, [sp, #52]
 533:./Library/stm32f4xx_cryp_aes.c ****     case 256:
 1825              		.loc 1 533 5 is_stmt 1 view .LVU705
 1826 00d0 AFE7     		b	.L42
 1827              	.LVL259:
 1828              	.L41:
 535:./Library/stm32f4xx_cryp_aes.c ****     AES_CRYP_KeyInitStructure.CRYP_Key0Left = __REV(*(uint32_t*)(keyaddr));
 1829              		.loc 1 535 5 view .LVU706
 535:./Library/stm32f4xx_cryp_aes.c ****     AES_CRYP_KeyInitStructure.CRYP_Key0Left = __REV(*(uint32_t*)(keyaddr));
 1830              		.loc 1 535 42 is_stmt 0 view .LVU707
 1831 00d2 4FF40073 		mov	r3, #512
 1832 00d6 1193     		str	r3, [sp, #68]
 536:./Library/stm32f4xx_cryp_aes.c ****     keyaddr+=4;
 1833              		.loc 1 536 5 is_stmt 1 view .LVU708
 536:./Library/stm32f4xx_cryp_aes.c ****     keyaddr+=4;
 1834              		.loc 1 536 47 is_stmt 0 view .LVU709
 1835 00d8 3368     		ldr	r3, [r6]
 1836              	.LVL260:
 1837              	.LBB338:
 1838              	.LBI338:
 495:./CORE/core_cmInstr.h **** {
 1839              		.loc 2 495 57 is_stmt 1 view .LVU710
 1840              	.LBB339:
 1841              		.loc 2 498 3 view .LVU711
 1842              		.loc 2 498 10 is_stmt 0 view .LVU712
 1843 00da 1BBA     		rev	r3, r3
 1844              	.LVL261:
 1845              		.loc 2 498 10 view .LVU713
 1846              	.LBE339:
 1847              	.LBE338:
 536:./Library/stm32f4xx_cryp_aes.c ****     keyaddr+=4;
ARM GAS  /tmp/ccsH6HZr.s 			page 58


 1848              		.loc 1 536 45 view .LVU714
 1849 00dc 0693     		str	r3, [sp, #24]
 537:./Library/stm32f4xx_cryp_aes.c ****     AES_CRYP_KeyInitStructure.CRYP_Key0Right= __REV(*(uint32_t*)(keyaddr));
 1850              		.loc 1 537 5 is_stmt 1 view .LVU715
 1851              	.LVL262:
 538:./Library/stm32f4xx_cryp_aes.c ****     keyaddr+=4;
 1852              		.loc 1 538 5 view .LVU716
 538:./Library/stm32f4xx_cryp_aes.c ****     keyaddr+=4;
 1853              		.loc 1 538 47 is_stmt 0 view .LVU717
 1854 00de 7368     		ldr	r3, [r6, #4]
 1855              	.LVL263:
 1856              	.LBB340:
 1857              	.LBI340:
 495:./CORE/core_cmInstr.h **** {
 1858              		.loc 2 495 57 is_stmt 1 view .LVU718
 1859              	.LBB341:
 1860              		.loc 2 498 3 view .LVU719
 1861              		.loc 2 498 10 is_stmt 0 view .LVU720
 1862 00e0 1BBA     		rev	r3, r3
 1863              	.LVL264:
 1864              		.loc 2 498 10 view .LVU721
 1865              	.LBE341:
 1866              	.LBE340:
 538:./Library/stm32f4xx_cryp_aes.c ****     keyaddr+=4;
 1867              		.loc 1 538 45 view .LVU722
 1868 00e2 0793     		str	r3, [sp, #28]
 539:./Library/stm32f4xx_cryp_aes.c ****     AES_CRYP_KeyInitStructure.CRYP_Key1Left = __REV(*(uint32_t*)(keyaddr));
 1869              		.loc 1 539 5 is_stmt 1 view .LVU723
 1870              	.LVL265:
 540:./Library/stm32f4xx_cryp_aes.c ****     keyaddr+=4;
 1871              		.loc 1 540 5 view .LVU724
 540:./Library/stm32f4xx_cryp_aes.c ****     keyaddr+=4;
 1872              		.loc 1 540 47 is_stmt 0 view .LVU725
 1873 00e4 B368     		ldr	r3, [r6, #8]
 1874              	.LVL266:
 1875              	.LBB342:
 1876              	.LBI342:
 495:./CORE/core_cmInstr.h **** {
 1877              		.loc 2 495 57 is_stmt 1 view .LVU726
 1878              	.LBB343:
 1879              		.loc 2 498 3 view .LVU727
 1880              		.loc 2 498 10 is_stmt 0 view .LVU728
 1881 00e6 1BBA     		rev	r3, r3
 1882              	.LVL267:
 1883              		.loc 2 498 10 view .LVU729
 1884              	.LBE343:
 1885              	.LBE342:
 540:./Library/stm32f4xx_cryp_aes.c ****     keyaddr+=4;
 1886              		.loc 1 540 45 view .LVU730
 1887 00e8 0893     		str	r3, [sp, #32]
 541:./Library/stm32f4xx_cryp_aes.c ****     AES_CRYP_KeyInitStructure.CRYP_Key1Right= __REV(*(uint32_t*)(keyaddr));
 1888              		.loc 1 541 5 is_stmt 1 view .LVU731
 1889              	.LVL268:
 542:./Library/stm32f4xx_cryp_aes.c ****     keyaddr+=4;
 1890              		.loc 1 542 5 view .LVU732
 542:./Library/stm32f4xx_cryp_aes.c ****     keyaddr+=4;
 1891              		.loc 1 542 47 is_stmt 0 view .LVU733
ARM GAS  /tmp/ccsH6HZr.s 			page 59


 1892 00ea F368     		ldr	r3, [r6, #12]
 1893              	.LVL269:
 1894              	.LBB344:
 1895              	.LBI344:
 495:./CORE/core_cmInstr.h **** {
 1896              		.loc 2 495 57 is_stmt 1 view .LVU734
 1897              	.LBB345:
 1898              		.loc 2 498 3 view .LVU735
 1899              		.loc 2 498 10 is_stmt 0 view .LVU736
 1900 00ec 1BBA     		rev	r3, r3
 1901              	.LVL270:
 1902              		.loc 2 498 10 view .LVU737
 1903              	.LBE345:
 1904              	.LBE344:
 542:./Library/stm32f4xx_cryp_aes.c ****     keyaddr+=4;
 1905              		.loc 1 542 45 view .LVU738
 1906 00ee 0993     		str	r3, [sp, #36]
 543:./Library/stm32f4xx_cryp_aes.c ****     AES_CRYP_KeyInitStructure.CRYP_Key2Left = __REV(*(uint32_t*)(keyaddr));
 1907              		.loc 1 543 5 is_stmt 1 view .LVU739
 1908              	.LVL271:
 544:./Library/stm32f4xx_cryp_aes.c ****     keyaddr+=4;
 1909              		.loc 1 544 5 view .LVU740
 544:./Library/stm32f4xx_cryp_aes.c ****     keyaddr+=4;
 1910              		.loc 1 544 47 is_stmt 0 view .LVU741
 1911 00f0 3369     		ldr	r3, [r6, #16]
 1912              	.LVL272:
 1913              	.LBB346:
 1914              	.LBI346:
 495:./CORE/core_cmInstr.h **** {
 1915              		.loc 2 495 57 is_stmt 1 view .LVU742
 1916              	.LBB347:
 1917              		.loc 2 498 3 view .LVU743
 1918              		.loc 2 498 10 is_stmt 0 view .LVU744
 1919 00f2 1BBA     		rev	r3, r3
 1920              	.LVL273:
 1921              		.loc 2 498 10 view .LVU745
 1922              	.LBE347:
 1923              	.LBE346:
 544:./Library/stm32f4xx_cryp_aes.c ****     keyaddr+=4;
 1924              		.loc 1 544 45 view .LVU746
 1925 00f4 0A93     		str	r3, [sp, #40]
 545:./Library/stm32f4xx_cryp_aes.c ****     AES_CRYP_KeyInitStructure.CRYP_Key2Right= __REV(*(uint32_t*)(keyaddr));
 1926              		.loc 1 545 5 is_stmt 1 view .LVU747
 1927              	.LVL274:
 546:./Library/stm32f4xx_cryp_aes.c ****     keyaddr+=4;
 1928              		.loc 1 546 5 view .LVU748
 546:./Library/stm32f4xx_cryp_aes.c ****     keyaddr+=4;
 1929              		.loc 1 546 47 is_stmt 0 view .LVU749
 1930 00f6 7369     		ldr	r3, [r6, #20]
 1931              	.LVL275:
 1932              	.LBB348:
 1933              	.LBI348:
 495:./CORE/core_cmInstr.h **** {
 1934              		.loc 2 495 57 is_stmt 1 view .LVU750
 1935              	.LBB349:
 1936              		.loc 2 498 3 view .LVU751
 1937              		.loc 2 498 10 is_stmt 0 view .LVU752
ARM GAS  /tmp/ccsH6HZr.s 			page 60


 1938 00f8 1BBA     		rev	r3, r3
 1939              	.LVL276:
 1940              		.loc 2 498 10 view .LVU753
 1941              	.LBE349:
 1942              	.LBE348:
 546:./Library/stm32f4xx_cryp_aes.c ****     keyaddr+=4;
 1943              		.loc 1 546 45 view .LVU754
 1944 00fa 0B93     		str	r3, [sp, #44]
 547:./Library/stm32f4xx_cryp_aes.c ****     AES_CRYP_KeyInitStructure.CRYP_Key3Left = __REV(*(uint32_t*)(keyaddr));
 1945              		.loc 1 547 5 is_stmt 1 view .LVU755
 1946              	.LVL277:
 548:./Library/stm32f4xx_cryp_aes.c ****     keyaddr+=4;
 1947              		.loc 1 548 5 view .LVU756
 548:./Library/stm32f4xx_cryp_aes.c ****     keyaddr+=4;
 1948              		.loc 1 548 47 is_stmt 0 view .LVU757
 1949 00fc B369     		ldr	r3, [r6, #24]
 1950              	.LVL278:
 1951              	.LBB350:
 1952              	.LBI350:
 495:./CORE/core_cmInstr.h **** {
 1953              		.loc 2 495 57 is_stmt 1 view .LVU758
 1954              	.LBB351:
 1955              		.loc 2 498 3 view .LVU759
 1956              		.loc 2 498 10 is_stmt 0 view .LVU760
 1957 00fe 1BBA     		rev	r3, r3
 1958              	.LVL279:
 1959              		.loc 2 498 10 view .LVU761
 1960              	.LBE351:
 1961              	.LBE350:
 548:./Library/stm32f4xx_cryp_aes.c ****     keyaddr+=4;
 1962              		.loc 1 548 45 view .LVU762
 1963 0100 0C93     		str	r3, [sp, #48]
 549:./Library/stm32f4xx_cryp_aes.c ****     AES_CRYP_KeyInitStructure.CRYP_Key3Right= __REV(*(uint32_t*)(keyaddr));
 1964              		.loc 1 549 5 is_stmt 1 view .LVU763
 1965              	.LVL280:
 550:./Library/stm32f4xx_cryp_aes.c ****     break;
 1966              		.loc 1 550 5 view .LVU764
 550:./Library/stm32f4xx_cryp_aes.c ****     break;
 1967              		.loc 1 550 47 is_stmt 0 view .LVU765
 1968 0102 F369     		ldr	r3, [r6, #28]
 1969              	.LVL281:
 1970              	.LBB352:
 1971              	.LBI352:
 495:./CORE/core_cmInstr.h **** {
 1972              		.loc 2 495 57 is_stmt 1 view .LVU766
 1973              	.LBB353:
 1974              		.loc 2 498 3 view .LVU767
 1975              		.loc 2 498 10 is_stmt 0 view .LVU768
 1976 0104 1BBA     		rev	r3, r3
 1977              	.LVL282:
 1978              		.loc 2 498 10 view .LVU769
 1979              	.LBE353:
 1980              	.LBE352:
 550:./Library/stm32f4xx_cryp_aes.c ****     break;
 1981              		.loc 1 550 45 view .LVU770
 1982 0106 0D93     		str	r3, [sp, #52]
 551:./Library/stm32f4xx_cryp_aes.c ****     default:
ARM GAS  /tmp/ccsH6HZr.s 			page 61


 1983              		.loc 1 551 5 is_stmt 1 view .LVU771
 1984 0108 93E7     		b	.L42
 1985              	.LVL283:
 1986              	.L43:
 577:./Library/stm32f4xx_cryp_aes.c ****   }
 1987              		.loc 1 577 5 view .LVU772
 577:./Library/stm32f4xx_cryp_aes.c ****   }
 1988              		.loc 1 577 41 is_stmt 0 view .LVU773
 1989 010a 0023     		movs	r3, #0
 1990 010c 0E93     		str	r3, [sp, #56]
 1991 010e A4E7     		b	.L44
 1992              	.LVL284:
 1993              	.L47:
 600:./Library/stm32f4xx_cryp_aes.c ****   {
 601:./Library/stm32f4xx_cryp_aes.c **** 
 602:./Library/stm32f4xx_cryp_aes.c ****     /* Write the Input block in the IN FIFO */
 603:./Library/stm32f4xx_cryp_aes.c ****     CRYP_DataIn(*(uint32_t*)(inputaddr));
 604:./Library/stm32f4xx_cryp_aes.c ****     inputaddr+=4;
 605:./Library/stm32f4xx_cryp_aes.c ****     CRYP_DataIn(*(uint32_t*)(inputaddr));
 606:./Library/stm32f4xx_cryp_aes.c ****     inputaddr+=4;
 607:./Library/stm32f4xx_cryp_aes.c ****     CRYP_DataIn(*(uint32_t*)(inputaddr));
 608:./Library/stm32f4xx_cryp_aes.c ****     inputaddr+=4;
 609:./Library/stm32f4xx_cryp_aes.c ****     CRYP_DataIn(*(uint32_t*)(inputaddr));
 610:./Library/stm32f4xx_cryp_aes.c ****     inputaddr+=4;
 611:./Library/stm32f4xx_cryp_aes.c ****     /* Wait until the complete message has been processed */
 612:./Library/stm32f4xx_cryp_aes.c ****     counter = 0;
 613:./Library/stm32f4xx_cryp_aes.c ****     do
 614:./Library/stm32f4xx_cryp_aes.c ****     {
 615:./Library/stm32f4xx_cryp_aes.c ****       busystatus = CRYP_GetFlagStatus(CRYP_FLAG_BUSY);
 616:./Library/stm32f4xx_cryp_aes.c ****       counter++;
 617:./Library/stm32f4xx_cryp_aes.c ****     }while ((counter != AESBUSY_TIMEOUT) && (busystatus != RESET));
 618:./Library/stm32f4xx_cryp_aes.c **** 
 619:./Library/stm32f4xx_cryp_aes.c ****     if (busystatus != RESET)
 1994              		.loc 1 619 5 is_stmt 1 view .LVU774
 1995              		.loc 1 619 8 is_stmt 0 view .LVU775
 1996 0110 00B3     		cbz	r0, .L55
 620:./Library/stm32f4xx_cryp_aes.c ****    {
 621:./Library/stm32f4xx_cryp_aes.c ****        status = ERROR;
 1997              		.loc 1 621 15 view .LVU776
 1998 0112 0026     		movs	r6, #0
 1999              	.LVL285:
 2000              	.L49:
 599:./Library/stm32f4xx_cryp_aes.c ****   {
 2001              		.loc 1 599 49 is_stmt 1 discriminator 2 view .LVU777
 2002 0114 1035     		adds	r5, r5, #16
 2003              	.LVL286:
 2004              	.L46:
 599:./Library/stm32f4xx_cryp_aes.c ****   {
 2005              		.loc 1 599 25 discriminator 1 view .LVU778
 2006 0116 4545     		cmp	r5, r8
 2007 0118 2AD2     		bcs	.L50
 599:./Library/stm32f4xx_cryp_aes.c ****   {
 2008              		.loc 1 599 25 is_stmt 0 discriminator 3 view .LVU779
 2009 011a 4EB3     		cbz	r6, .L50
 603:./Library/stm32f4xx_cryp_aes.c ****     inputaddr+=4;
 2010              		.loc 1 603 5 is_stmt 1 view .LVU780
 2011 011c 2068     		ldr	r0, [r4]
ARM GAS  /tmp/ccsH6HZr.s 			page 62


 2012 011e FFF7FEFF 		bl	CRYP_DataIn
 2013              	.LVL287:
 604:./Library/stm32f4xx_cryp_aes.c ****     CRYP_DataIn(*(uint32_t*)(inputaddr));
 2014              		.loc 1 604 5 view .LVU781
 605:./Library/stm32f4xx_cryp_aes.c ****     inputaddr+=4;
 2015              		.loc 1 605 5 view .LVU782
 2016 0122 6068     		ldr	r0, [r4, #4]
 2017 0124 FFF7FEFF 		bl	CRYP_DataIn
 2018              	.LVL288:
 606:./Library/stm32f4xx_cryp_aes.c ****     CRYP_DataIn(*(uint32_t*)(inputaddr));
 2019              		.loc 1 606 5 view .LVU783
 607:./Library/stm32f4xx_cryp_aes.c ****     inputaddr+=4;
 2020              		.loc 1 607 5 view .LVU784
 2021 0128 A068     		ldr	r0, [r4, #8]
 2022 012a FFF7FEFF 		bl	CRYP_DataIn
 2023              	.LVL289:
 608:./Library/stm32f4xx_cryp_aes.c ****     CRYP_DataIn(*(uint32_t*)(inputaddr));
 2024              		.loc 1 608 5 view .LVU785
 609:./Library/stm32f4xx_cryp_aes.c ****     inputaddr+=4;
 2025              		.loc 1 609 5 view .LVU786
 2026 012e E068     		ldr	r0, [r4, #12]
 2027 0130 FFF7FEFF 		bl	CRYP_DataIn
 2028              	.LVL290:
 610:./Library/stm32f4xx_cryp_aes.c ****     /* Wait until the complete message has been processed */
 2029              		.loc 1 610 5 view .LVU787
 610:./Library/stm32f4xx_cryp_aes.c ****     /* Wait until the complete message has been processed */
 2030              		.loc 1 610 14 is_stmt 0 view .LVU788
 2031 0134 1034     		adds	r4, r4, #16
 2032              	.LVL291:
 612:./Library/stm32f4xx_cryp_aes.c ****     do
 2033              		.loc 1 612 5 is_stmt 1 view .LVU789
 612:./Library/stm32f4xx_cryp_aes.c ****     do
 2034              		.loc 1 612 13 is_stmt 0 view .LVU790
 2035 0136 0023     		movs	r3, #0
 2036 0138 0193     		str	r3, [sp, #4]
 2037              	.L48:
 613:./Library/stm32f4xx_cryp_aes.c ****     {
 2038              		.loc 1 613 5 is_stmt 1 discriminator 2 view .LVU791
 615:./Library/stm32f4xx_cryp_aes.c ****       counter++;
 2039              		.loc 1 615 7 discriminator 2 view .LVU792
 615:./Library/stm32f4xx_cryp_aes.c ****       counter++;
 2040              		.loc 1 615 20 is_stmt 0 discriminator 2 view .LVU793
 2041 013a 1020     		movs	r0, #16
 2042 013c FFF7FEFF 		bl	CRYP_GetFlagStatus
 2043              	.LVL292:
 616:./Library/stm32f4xx_cryp_aes.c ****     }while ((counter != AESBUSY_TIMEOUT) && (busystatus != RESET));
 2044              		.loc 1 616 7 is_stmt 1 discriminator 2 view .LVU794
 616:./Library/stm32f4xx_cryp_aes.c ****     }while ((counter != AESBUSY_TIMEOUT) && (busystatus != RESET));
 2045              		.loc 1 616 14 is_stmt 0 discriminator 2 view .LVU795
 2046 0140 019B     		ldr	r3, [sp, #4]
 2047 0142 0133     		adds	r3, r3, #1
 2048 0144 0193     		str	r3, [sp, #4]
 617:./Library/stm32f4xx_cryp_aes.c **** 
 2049              		.loc 1 617 42 is_stmt 1 discriminator 2 view .LVU796
 617:./Library/stm32f4xx_cryp_aes.c **** 
 2050              		.loc 1 617 22 is_stmt 0 discriminator 2 view .LVU797
 2051 0146 019B     		ldr	r3, [sp, #4]
ARM GAS  /tmp/ccsH6HZr.s 			page 63


 617:./Library/stm32f4xx_cryp_aes.c **** 
 2052              		.loc 1 617 42 discriminator 2 view .LVU798
 2053 0148 B3F5803F 		cmp	r3, #65536
 2054 014c E0D0     		beq	.L47
 617:./Library/stm32f4xx_cryp_aes.c **** 
 2055              		.loc 1 617 42 discriminator 1 view .LVU799
 2056 014e 0028     		cmp	r0, #0
 2057 0150 F3D1     		bne	.L48
 2058 0152 DDE7     		b	.L47
 2059              	.L55:
 622:./Library/stm32f4xx_cryp_aes.c ****     }
 623:./Library/stm32f4xx_cryp_aes.c ****     else
 624:./Library/stm32f4xx_cryp_aes.c ****     {
 625:./Library/stm32f4xx_cryp_aes.c **** 
 626:./Library/stm32f4xx_cryp_aes.c ****       /* Read the Output block from the Output FIFO */
 627:./Library/stm32f4xx_cryp_aes.c ****       *(uint32_t*)(outputaddr) = CRYP_DataOut();
 2060              		.loc 1 627 7 is_stmt 1 view .LVU800
 2061              		.loc 1 627 34 is_stmt 0 view .LVU801
 2062 0154 FFF7FEFF 		bl	CRYP_DataOut
 2063              	.LVL293:
 2064              		.loc 1 627 32 view .LVU802
 2065 0158 3860     		str	r0, [r7]
 628:./Library/stm32f4xx_cryp_aes.c ****       outputaddr+=4;
 2066              		.loc 1 628 7 is_stmt 1 view .LVU803
 2067              	.LVL294:
 629:./Library/stm32f4xx_cryp_aes.c ****       *(uint32_t*)(outputaddr) = CRYP_DataOut();
 2068              		.loc 1 629 7 view .LVU804
 2069              		.loc 1 629 34 is_stmt 0 view .LVU805
 2070 015a FFF7FEFF 		bl	CRYP_DataOut
 2071              	.LVL295:
 2072              		.loc 1 629 32 view .LVU806
 2073 015e 7860     		str	r0, [r7, #4]
 630:./Library/stm32f4xx_cryp_aes.c ****       outputaddr+=4;
 2074              		.loc 1 630 7 is_stmt 1 view .LVU807
 2075              	.LVL296:
 631:./Library/stm32f4xx_cryp_aes.c ****       *(uint32_t*)(outputaddr) = CRYP_DataOut();
 2076              		.loc 1 631 7 view .LVU808
 2077              		.loc 1 631 34 is_stmt 0 view .LVU809
 2078 0160 FFF7FEFF 		bl	CRYP_DataOut
 2079              	.LVL297:
 2080              		.loc 1 631 32 view .LVU810
 2081 0164 B860     		str	r0, [r7, #8]
 632:./Library/stm32f4xx_cryp_aes.c ****       outputaddr+=4;
 2082              		.loc 1 632 7 is_stmt 1 view .LVU811
 2083              	.LVL298:
 633:./Library/stm32f4xx_cryp_aes.c ****       *(uint32_t*)(outputaddr) = CRYP_DataOut();
 2084              		.loc 1 633 7 view .LVU812
 2085              		.loc 1 633 34 is_stmt 0 view .LVU813
 2086 0166 FFF7FEFF 		bl	CRYP_DataOut
 2087              	.LVL299:
 2088              		.loc 1 633 32 view .LVU814
 2089 016a F860     		str	r0, [r7, #12]
 634:./Library/stm32f4xx_cryp_aes.c ****       outputaddr+=4;
 2090              		.loc 1 634 7 is_stmt 1 view .LVU815
 2091              		.loc 1 634 17 is_stmt 0 view .LVU816
 2092 016c 1037     		adds	r7, r7, #16
 2093              	.LVL300:
ARM GAS  /tmp/ccsH6HZr.s 			page 64


 2094              		.loc 1 634 17 view .LVU817
 2095 016e D1E7     		b	.L49
 2096              	.LVL301:
 2097              	.L50:
 635:./Library/stm32f4xx_cryp_aes.c ****     }
 636:./Library/stm32f4xx_cryp_aes.c ****   }
 637:./Library/stm32f4xx_cryp_aes.c ****   /* Disable Crypto */
 638:./Library/stm32f4xx_cryp_aes.c ****   CRYP_Cmd(DISABLE);
 2098              		.loc 1 638 3 is_stmt 1 view .LVU818
 2099 0170 0020     		movs	r0, #0
 2100 0172 FFF7FEFF 		bl	CRYP_Cmd
 2101              	.LVL302:
 639:./Library/stm32f4xx_cryp_aes.c **** 
 640:./Library/stm32f4xx_cryp_aes.c ****   return status;
 2102              		.loc 1 640 3 view .LVU819
 2103              	.L45:
 641:./Library/stm32f4xx_cryp_aes.c **** }
 2104              		.loc 1 641 1 is_stmt 0 view .LVU820
 2105 0176 3046     		mov	r0, r6
 2106 0178 12B0     		add	sp, sp, #72
 2107              	.LCFI8:
 2108              		.cfi_def_cfa_offset 32
 2109              		@ sp needed
 2110 017a BDE8F087 		pop	{r4, r5, r6, r7, r8, r9, r10, pc}
 2111              		.loc 1 641 1 view .LVU821
 2112              		.cfi_endproc
 2113              	.LFE125:
 2115              		.section	.text.CRYP_AES_GCM,"ax",%progbits
 2116              		.align	1
 2117              		.global	CRYP_AES_GCM
 2118              		.syntax unified
 2119              		.thumb
 2120              		.thumb_func
 2122              	CRYP_AES_GCM:
 2123              	.LVL303:
 2124              	.LFB126:
 642:./Library/stm32f4xx_cryp_aes.c **** 
 643:./Library/stm32f4xx_cryp_aes.c **** /**
 644:./Library/stm32f4xx_cryp_aes.c ****   * @brief  Encrypt and decrypt using AES in GCM Mode. The GCM and CCM modes
 645:./Library/stm32f4xx_cryp_aes.c ****   *         are available only on STM32F437x Devices.
 646:./Library/stm32f4xx_cryp_aes.c ****   * @param  Mode: encryption or decryption Mode.
 647:./Library/stm32f4xx_cryp_aes.c ****   *          This parameter can be one of the following values:
 648:./Library/stm32f4xx_cryp_aes.c ****   *            @arg MODE_ENCRYPT: Encryption
 649:./Library/stm32f4xx_cryp_aes.c ****   *            @arg MODE_DECRYPT: Decryption
 650:./Library/stm32f4xx_cryp_aes.c ****   * @param  InitVectors: Initialisation Vectors used for AES algorithm.
 651:./Library/stm32f4xx_cryp_aes.c ****   * @param  Key: Key used for AES algorithm.
 652:./Library/stm32f4xx_cryp_aes.c ****   * @param  Keysize: length of the Key, must be a 128, 192 or 256.
 653:./Library/stm32f4xx_cryp_aes.c ****   * @param  Input: pointer to the Input buffer.
 654:./Library/stm32f4xx_cryp_aes.c ****   * @param  Ilength: length of the Input buffer in bytes, must be a multiple of 16.
 655:./Library/stm32f4xx_cryp_aes.c ****   * @param  Header: pointer to the header buffer.
 656:./Library/stm32f4xx_cryp_aes.c ****   * @param  Hlength: length of the header buffer in bytes, must be a multiple of 16.  
 657:./Library/stm32f4xx_cryp_aes.c ****   * @param  Output: pointer to the returned buffer.
 658:./Library/stm32f4xx_cryp_aes.c ****   * @param  AuthTAG: pointer to the authentication TAG buffer.
 659:./Library/stm32f4xx_cryp_aes.c ****   * @retval An ErrorStatus enumeration value:
 660:./Library/stm32f4xx_cryp_aes.c ****   *          - SUCCESS: Operation done
 661:./Library/stm32f4xx_cryp_aes.c ****   *          - ERROR: Operation failed
 662:./Library/stm32f4xx_cryp_aes.c ****   */
ARM GAS  /tmp/ccsH6HZr.s 			page 65


 663:./Library/stm32f4xx_cryp_aes.c **** ErrorStatus CRYP_AES_GCM(uint8_t Mode, uint8_t InitVectors[16],
 664:./Library/stm32f4xx_cryp_aes.c ****                          uint8_t *Key, uint16_t Keysize,
 665:./Library/stm32f4xx_cryp_aes.c ****                          uint8_t *Input, uint32_t ILength,
 666:./Library/stm32f4xx_cryp_aes.c ****                          uint8_t *Header, uint32_t HLength,
 667:./Library/stm32f4xx_cryp_aes.c ****                          uint8_t *Output, uint8_t *AuthTAG)
 668:./Library/stm32f4xx_cryp_aes.c **** {
 2125              		.loc 1 668 1 is_stmt 1 view -0
 2126              		.cfi_startproc
 2127              		@ args = 24, pretend = 0, frame = 88
 2128              		@ frame_needed = 0, uses_anonymous_args = 0
 2129              		.loc 1 668 1 is_stmt 0 view .LVU823
 2130 0000 2DE9F04F 		push	{r4, r5, r6, r7, r8, r9, r10, fp, lr}
 2131              	.LCFI9:
 2132              		.cfi_def_cfa_offset 36
 2133              		.cfi_offset 4, -36
 2134              		.cfi_offset 5, -32
 2135              		.cfi_offset 6, -28
 2136              		.cfi_offset 7, -24
 2137              		.cfi_offset 8, -20
 2138              		.cfi_offset 9, -16
 2139              		.cfi_offset 10, -12
 2140              		.cfi_offset 11, -8
 2141              		.cfi_offset 14, -4
 2142 0004 97B0     		sub	sp, sp, #92
 2143              	.LCFI10:
 2144              		.cfi_def_cfa_offset 128
 2145 0006 0190     		str	r0, [sp, #4]
 2146 0008 0F46     		mov	r7, r1
 2147 000a 1646     		mov	r6, r2
 2148 000c 9846     		mov	r8, r3
 2149 000e DDF88490 		ldr	r9, [sp, #132]
 2150 0012 DDF88CA0 		ldr	r10, [sp, #140]
 669:./Library/stm32f4xx_cryp_aes.c ****   CRYP_InitTypeDef AES_CRYP_InitStructure;
 2151              		.loc 1 669 3 is_stmt 1 view .LVU824
 670:./Library/stm32f4xx_cryp_aes.c ****   CRYP_KeyInitTypeDef AES_CRYP_KeyInitStructure;
 2152              		.loc 1 670 3 view .LVU825
 671:./Library/stm32f4xx_cryp_aes.c ****   CRYP_IVInitTypeDef AES_CRYP_IVInitStructure;
 2153              		.loc 1 671 3 view .LVU826
 672:./Library/stm32f4xx_cryp_aes.c ****   __IO uint32_t counter = 0;
 2154              		.loc 1 672 3 view .LVU827
 2155              		.loc 1 672 17 is_stmt 0 view .LVU828
 2156 0016 0023     		movs	r3, #0
 2157              	.LVL304:
 2158              		.loc 1 672 17 view .LVU829
 2159 0018 0593     		str	r3, [sp, #20]
 673:./Library/stm32f4xx_cryp_aes.c ****   uint32_t busystatus = 0;
 2160              		.loc 1 673 3 is_stmt 1 view .LVU830
 2161              	.LVL305:
 674:./Library/stm32f4xx_cryp_aes.c ****   ErrorStatus status = SUCCESS;
 2162              		.loc 1 674 3 view .LVU831
 675:./Library/stm32f4xx_cryp_aes.c ****   uint32_t keyaddr    = (uint32_t)Key;
 2163              		.loc 1 675 3 view .LVU832
 676:./Library/stm32f4xx_cryp_aes.c ****   uint32_t inputaddr  = (uint32_t)Input;
 2164              		.loc 1 676 3 view .LVU833
 2165              		.loc 1 676 12 is_stmt 0 view .LVU834
 2166 001a 209C     		ldr	r4, [sp, #128]
 2167              	.LVL306:
ARM GAS  /tmp/ccsH6HZr.s 			page 66


 677:./Library/stm32f4xx_cryp_aes.c ****   uint32_t outputaddr = (uint32_t)Output;
 2168              		.loc 1 677 3 is_stmt 1 view .LVU835
 2169              		.loc 1 677 12 is_stmt 0 view .LVU836
 2170 001c DDF890B0 		ldr	fp, [sp, #144]
 2171              	.LVL307:
 678:./Library/stm32f4xx_cryp_aes.c ****   uint32_t ivaddr     = (uint32_t)InitVectors;
 2172              		.loc 1 678 3 is_stmt 1 view .LVU837
 679:./Library/stm32f4xx_cryp_aes.c ****   uint32_t headeraddr = (uint32_t)Header;
 2173              		.loc 1 679 3 view .LVU838
 2174              		.loc 1 679 12 is_stmt 0 view .LVU839
 2175 0020 229D     		ldr	r5, [sp, #136]
 2176              	.LVL308:
 680:./Library/stm32f4xx_cryp_aes.c ****   uint32_t tagaddr = (uint32_t)AuthTAG;
 2177              		.loc 1 680 3 is_stmt 1 view .LVU840
 681:./Library/stm32f4xx_cryp_aes.c ****   uint64_t headerlength = HLength * 8;/* header length in bits */
 2178              		.loc 1 681 3 view .LVU841
 2179              		.loc 1 681 35 is_stmt 0 view .LVU842
 2180 0022 4FEACA03 		lsl	r3, r10, #3
 2181 0026 0293     		str	r3, [sp, #8]
 2182              	.LVL309:
 682:./Library/stm32f4xx_cryp_aes.c ****   uint64_t inputlength = ILength * 8;/* input length in bits */
 2183              		.loc 1 682 3 is_stmt 1 view .LVU843
 2184              		.loc 1 682 34 is_stmt 0 view .LVU844
 2185 0028 4FEAC903 		lsl	r3, r9, #3
 2186              	.LVL310:
 2187              		.loc 1 682 34 view .LVU845
 2188 002c 0393     		str	r3, [sp, #12]
 2189              	.LVL311:
 683:./Library/stm32f4xx_cryp_aes.c ****   uint32_t loopcounter = 0;
 2190              		.loc 1 683 3 is_stmt 1 view .LVU846
 684:./Library/stm32f4xx_cryp_aes.c **** 
 685:./Library/stm32f4xx_cryp_aes.c ****   /* Crypto structures initialisation*/
 686:./Library/stm32f4xx_cryp_aes.c ****   CRYP_KeyStructInit(&AES_CRYP_KeyInitStructure);
 2191              		.loc 1 686 3 view .LVU847
 2192 002e 0AA8     		add	r0, sp, #40
 2193              	.LVL312:
 2194              		.loc 1 686 3 is_stmt 0 view .LVU848
 2195 0030 FFF7FEFF 		bl	CRYP_KeyStructInit
 2196              	.LVL313:
 687:./Library/stm32f4xx_cryp_aes.c **** 
 688:./Library/stm32f4xx_cryp_aes.c ****   switch(Keysize)
 2197              		.loc 1 688 3 is_stmt 1 view .LVU849
 2198 0034 B8F1C00F 		cmp	r8, #192
 2199 0038 57D0     		beq	.L57
 2200 003a B8F5807F 		cmp	r8, #256
 2201 003e 6AD0     		beq	.L58
 2202 0040 B8F1800F 		cmp	r8, #128
 2203 0044 42D0     		beq	.L99
 2204              	.LVL314:
 2205              	.L59:
 689:./Library/stm32f4xx_cryp_aes.c ****   {
 690:./Library/stm32f4xx_cryp_aes.c ****     case 128:
 691:./Library/stm32f4xx_cryp_aes.c ****     AES_CRYP_InitStructure.CRYP_KeySize = CRYP_KeySize_128b;
 692:./Library/stm32f4xx_cryp_aes.c ****     AES_CRYP_KeyInitStructure.CRYP_Key2Left = __REV(*(uint32_t*)(keyaddr));
 693:./Library/stm32f4xx_cryp_aes.c ****     keyaddr+=4;
 694:./Library/stm32f4xx_cryp_aes.c ****     AES_CRYP_KeyInitStructure.CRYP_Key2Right= __REV(*(uint32_t*)(keyaddr));
 695:./Library/stm32f4xx_cryp_aes.c ****     keyaddr+=4;
ARM GAS  /tmp/ccsH6HZr.s 			page 67


 696:./Library/stm32f4xx_cryp_aes.c ****     AES_CRYP_KeyInitStructure.CRYP_Key3Left = __REV(*(uint32_t*)(keyaddr));
 697:./Library/stm32f4xx_cryp_aes.c ****     keyaddr+=4;
 698:./Library/stm32f4xx_cryp_aes.c ****     AES_CRYP_KeyInitStructure.CRYP_Key3Right= __REV(*(uint32_t*)(keyaddr));
 699:./Library/stm32f4xx_cryp_aes.c ****     break;
 700:./Library/stm32f4xx_cryp_aes.c ****     case 192:
 701:./Library/stm32f4xx_cryp_aes.c ****     AES_CRYP_InitStructure.CRYP_KeySize  = CRYP_KeySize_192b;
 702:./Library/stm32f4xx_cryp_aes.c ****     AES_CRYP_KeyInitStructure.CRYP_Key1Left = __REV(*(uint32_t*)(keyaddr));
 703:./Library/stm32f4xx_cryp_aes.c ****     keyaddr+=4;
 704:./Library/stm32f4xx_cryp_aes.c ****     AES_CRYP_KeyInitStructure.CRYP_Key1Right= __REV(*(uint32_t*)(keyaddr));
 705:./Library/stm32f4xx_cryp_aes.c ****     keyaddr+=4;
 706:./Library/stm32f4xx_cryp_aes.c ****     AES_CRYP_KeyInitStructure.CRYP_Key2Left = __REV(*(uint32_t*)(keyaddr));
 707:./Library/stm32f4xx_cryp_aes.c ****     keyaddr+=4;
 708:./Library/stm32f4xx_cryp_aes.c ****     AES_CRYP_KeyInitStructure.CRYP_Key2Right= __REV(*(uint32_t*)(keyaddr));
 709:./Library/stm32f4xx_cryp_aes.c ****     keyaddr+=4;
 710:./Library/stm32f4xx_cryp_aes.c ****     AES_CRYP_KeyInitStructure.CRYP_Key3Left = __REV(*(uint32_t*)(keyaddr));
 711:./Library/stm32f4xx_cryp_aes.c ****     keyaddr+=4;
 712:./Library/stm32f4xx_cryp_aes.c ****     AES_CRYP_KeyInitStructure.CRYP_Key3Right= __REV(*(uint32_t*)(keyaddr));
 713:./Library/stm32f4xx_cryp_aes.c ****     break;
 714:./Library/stm32f4xx_cryp_aes.c ****     case 256:
 715:./Library/stm32f4xx_cryp_aes.c ****     AES_CRYP_InitStructure.CRYP_KeySize  = CRYP_KeySize_256b;
 716:./Library/stm32f4xx_cryp_aes.c ****     AES_CRYP_KeyInitStructure.CRYP_Key0Left = __REV(*(uint32_t*)(keyaddr));
 717:./Library/stm32f4xx_cryp_aes.c ****     keyaddr+=4;
 718:./Library/stm32f4xx_cryp_aes.c ****     AES_CRYP_KeyInitStructure.CRYP_Key0Right= __REV(*(uint32_t*)(keyaddr));
 719:./Library/stm32f4xx_cryp_aes.c ****     keyaddr+=4;
 720:./Library/stm32f4xx_cryp_aes.c ****     AES_CRYP_KeyInitStructure.CRYP_Key1Left = __REV(*(uint32_t*)(keyaddr));
 721:./Library/stm32f4xx_cryp_aes.c ****     keyaddr+=4;
 722:./Library/stm32f4xx_cryp_aes.c ****     AES_CRYP_KeyInitStructure.CRYP_Key1Right= __REV(*(uint32_t*)(keyaddr));
 723:./Library/stm32f4xx_cryp_aes.c ****     keyaddr+=4;
 724:./Library/stm32f4xx_cryp_aes.c ****     AES_CRYP_KeyInitStructure.CRYP_Key2Left = __REV(*(uint32_t*)(keyaddr));
 725:./Library/stm32f4xx_cryp_aes.c ****     keyaddr+=4;
 726:./Library/stm32f4xx_cryp_aes.c ****     AES_CRYP_KeyInitStructure.CRYP_Key2Right= __REV(*(uint32_t*)(keyaddr));
 727:./Library/stm32f4xx_cryp_aes.c ****     keyaddr+=4;
 728:./Library/stm32f4xx_cryp_aes.c ****     AES_CRYP_KeyInitStructure.CRYP_Key3Left = __REV(*(uint32_t*)(keyaddr));
 729:./Library/stm32f4xx_cryp_aes.c ****     keyaddr+=4;
 730:./Library/stm32f4xx_cryp_aes.c ****     AES_CRYP_KeyInitStructure.CRYP_Key3Right= __REV(*(uint32_t*)(keyaddr));
 731:./Library/stm32f4xx_cryp_aes.c ****     break;
 732:./Library/stm32f4xx_cryp_aes.c ****     default:
 733:./Library/stm32f4xx_cryp_aes.c ****     break;
 734:./Library/stm32f4xx_cryp_aes.c ****   }
 735:./Library/stm32f4xx_cryp_aes.c ****   
 736:./Library/stm32f4xx_cryp_aes.c ****   /* CRYP Initialization Vectors */
 737:./Library/stm32f4xx_cryp_aes.c ****   AES_CRYP_IVInitStructure.CRYP_IV0Left = __REV(*(uint32_t*)(ivaddr));
 2206              		.loc 1 737 3 view .LVU850
 2207              		.loc 1 737 43 is_stmt 0 view .LVU851
 2208 0046 3B68     		ldr	r3, [r7]
 2209              	.LVL315:
 2210              	.LBB354:
 2211              	.LBI354:
 495:./CORE/core_cmInstr.h **** {
 2212              		.loc 2 495 57 is_stmt 1 view .LVU852
 2213              	.LBB355:
 2214              		.loc 2 498 3 view .LVU853
 2215              		.loc 2 498 10 is_stmt 0 view .LVU854
 2216 0048 1BBA     		rev	r3, r3
 2217              	.LVL316:
 2218              		.loc 2 498 10 view .LVU855
 2219              	.LBE355:
ARM GAS  /tmp/ccsH6HZr.s 			page 68


 2220              	.LBE354:
 2221              		.loc 1 737 41 view .LVU856
 2222 004a 0693     		str	r3, [sp, #24]
 738:./Library/stm32f4xx_cryp_aes.c ****   ivaddr+=4;
 2223              		.loc 1 738 3 is_stmt 1 view .LVU857
 2224              	.LVL317:
 739:./Library/stm32f4xx_cryp_aes.c ****   AES_CRYP_IVInitStructure.CRYP_IV0Right= __REV(*(uint32_t*)(ivaddr));
 2225              		.loc 1 739 3 view .LVU858
 2226              		.loc 1 739 43 is_stmt 0 view .LVU859
 2227 004c 7B68     		ldr	r3, [r7, #4]
 2228              	.LVL318:
 2229              	.LBB356:
 2230              	.LBI356:
 495:./CORE/core_cmInstr.h **** {
 2231              		.loc 2 495 57 is_stmt 1 view .LVU860
 2232              	.LBB357:
 2233              		.loc 2 498 3 view .LVU861
 2234              		.loc 2 498 10 is_stmt 0 view .LVU862
 2235 004e 1BBA     		rev	r3, r3
 2236              	.LVL319:
 2237              		.loc 2 498 10 view .LVU863
 2238              	.LBE357:
 2239              	.LBE356:
 2240              		.loc 1 739 41 view .LVU864
 2241 0050 0793     		str	r3, [sp, #28]
 740:./Library/stm32f4xx_cryp_aes.c ****   ivaddr+=4;
 2242              		.loc 1 740 3 is_stmt 1 view .LVU865
 2243              	.LVL320:
 741:./Library/stm32f4xx_cryp_aes.c ****   AES_CRYP_IVInitStructure.CRYP_IV1Left = __REV(*(uint32_t*)(ivaddr));
 2244              		.loc 1 741 3 view .LVU866
 2245              		.loc 1 741 43 is_stmt 0 view .LVU867
 2246 0052 BB68     		ldr	r3, [r7, #8]
 2247              	.LVL321:
 2248              	.LBB358:
 2249              	.LBI358:
 495:./CORE/core_cmInstr.h **** {
 2250              		.loc 2 495 57 is_stmt 1 view .LVU868
 2251              	.LBB359:
 2252              		.loc 2 498 3 view .LVU869
 2253              		.loc 2 498 10 is_stmt 0 view .LVU870
 2254 0054 1BBA     		rev	r3, r3
 2255              	.LVL322:
 2256              		.loc 2 498 10 view .LVU871
 2257              	.LBE359:
 2258              	.LBE358:
 2259              		.loc 1 741 41 view .LVU872
 2260 0056 0893     		str	r3, [sp, #32]
 742:./Library/stm32f4xx_cryp_aes.c ****   ivaddr+=4;
 2261              		.loc 1 742 3 is_stmt 1 view .LVU873
 2262              	.LVL323:
 743:./Library/stm32f4xx_cryp_aes.c ****   AES_CRYP_IVInitStructure.CRYP_IV1Right= __REV(*(uint32_t*)(ivaddr));
 2263              		.loc 1 743 3 view .LVU874
 2264              		.loc 1 743 43 is_stmt 0 view .LVU875
 2265 0058 FB68     		ldr	r3, [r7, #12]
 2266              	.LVL324:
 2267              	.LBB360:
 2268              	.LBI360:
ARM GAS  /tmp/ccsH6HZr.s 			page 69


 495:./CORE/core_cmInstr.h **** {
 2269              		.loc 2 495 57 is_stmt 1 view .LVU876
 2270              	.LBB361:
 2271              		.loc 2 498 3 view .LVU877
 2272              		.loc 2 498 10 is_stmt 0 view .LVU878
 2273 005a 1BBA     		rev	r3, r3
 2274              	.LVL325:
 2275              		.loc 2 498 10 view .LVU879
 2276              	.LBE361:
 2277              	.LBE360:
 2278              		.loc 1 743 41 view .LVU880
 2279 005c 0993     		str	r3, [sp, #36]
 744:./Library/stm32f4xx_cryp_aes.c ****   
 745:./Library/stm32f4xx_cryp_aes.c ****   /*------------------ AES Encryption ------------------*/
 746:./Library/stm32f4xx_cryp_aes.c ****   if(Mode == MODE_ENCRYPT) /* AES encryption */
 2280              		.loc 1 746 3 is_stmt 1 view .LVU881
 2281              		.loc 1 746 5 is_stmt 0 view .LVU882
 2282 005e 019B     		ldr	r3, [sp, #4]
 2283 0060 012B     		cmp	r3, #1
 2284 0062 74D0     		beq	.L100
 747:./Library/stm32f4xx_cryp_aes.c ****   {
 748:./Library/stm32f4xx_cryp_aes.c ****     /* Flush IN/OUT FIFOs */
 749:./Library/stm32f4xx_cryp_aes.c ****     CRYP_FIFOFlush();
 750:./Library/stm32f4xx_cryp_aes.c ****     
 751:./Library/stm32f4xx_cryp_aes.c ****     /* Key Initialisation */
 752:./Library/stm32f4xx_cryp_aes.c ****     CRYP_KeyInit(&AES_CRYP_KeyInitStructure);
 753:./Library/stm32f4xx_cryp_aes.c ****     
 754:./Library/stm32f4xx_cryp_aes.c ****     /* CRYP Initialization Vectors */
 755:./Library/stm32f4xx_cryp_aes.c ****     CRYP_IVInit(&AES_CRYP_IVInitStructure);
 756:./Library/stm32f4xx_cryp_aes.c ****     
 757:./Library/stm32f4xx_cryp_aes.c ****     /* Crypto Init for Key preparation for decryption process */
 758:./Library/stm32f4xx_cryp_aes.c ****     AES_CRYP_InitStructure.CRYP_AlgoDir = CRYP_AlgoDir_Encrypt;
 759:./Library/stm32f4xx_cryp_aes.c ****     AES_CRYP_InitStructure.CRYP_AlgoMode = CRYP_AlgoMode_AES_GCM;
 760:./Library/stm32f4xx_cryp_aes.c ****     AES_CRYP_InitStructure.CRYP_DataType = CRYP_DataType_8b;
 761:./Library/stm32f4xx_cryp_aes.c ****     CRYP_Init(&AES_CRYP_InitStructure);
 762:./Library/stm32f4xx_cryp_aes.c ****     
 763:./Library/stm32f4xx_cryp_aes.c ****     /***************************** Init phase *********************************/
 764:./Library/stm32f4xx_cryp_aes.c ****     /* Select init phase */
 765:./Library/stm32f4xx_cryp_aes.c ****     CRYP_PhaseConfig(CRYP_Phase_Init);
 766:./Library/stm32f4xx_cryp_aes.c ****     
 767:./Library/stm32f4xx_cryp_aes.c ****     /* Enable Crypto processor */
 768:./Library/stm32f4xx_cryp_aes.c ****     CRYP_Cmd(ENABLE);
 769:./Library/stm32f4xx_cryp_aes.c ****     
 770:./Library/stm32f4xx_cryp_aes.c ****     /* Wait for CRYPEN bit to be 0 */
 771:./Library/stm32f4xx_cryp_aes.c ****     while(CRYP_GetCmdStatus() == ENABLE)
 772:./Library/stm32f4xx_cryp_aes.c ****     {
 773:./Library/stm32f4xx_cryp_aes.c ****     }
 774:./Library/stm32f4xx_cryp_aes.c ****     
 775:./Library/stm32f4xx_cryp_aes.c ****     /***************************** header phase *******************************/
 776:./Library/stm32f4xx_cryp_aes.c ****     if(HLength != 0)
 777:./Library/stm32f4xx_cryp_aes.c ****     {
 778:./Library/stm32f4xx_cryp_aes.c ****       /* Select header phase */
 779:./Library/stm32f4xx_cryp_aes.c ****       CRYP_PhaseConfig(CRYP_Phase_Header);
 780:./Library/stm32f4xx_cryp_aes.c ****       
 781:./Library/stm32f4xx_cryp_aes.c ****       /* Enable Crypto processor */
 782:./Library/stm32f4xx_cryp_aes.c ****       CRYP_Cmd(ENABLE);
 783:./Library/stm32f4xx_cryp_aes.c ****       
ARM GAS  /tmp/ccsH6HZr.s 			page 70


 784:./Library/stm32f4xx_cryp_aes.c ****       if(CRYP_GetCmdStatus() == DISABLE)
 785:./Library/stm32f4xx_cryp_aes.c ****       {
 786:./Library/stm32f4xx_cryp_aes.c ****          /* The CRYP peripheral clock is not enabled or the device doesn't embed 
 787:./Library/stm32f4xx_cryp_aes.c ****             the CRYP peripheral (please check the device sales type. */
 788:./Library/stm32f4xx_cryp_aes.c ****          return(ERROR);
 789:./Library/stm32f4xx_cryp_aes.c ****       }
 790:./Library/stm32f4xx_cryp_aes.c ****       
 791:./Library/stm32f4xx_cryp_aes.c ****       for(loopcounter = 0; (loopcounter < HLength); loopcounter+=16)
 792:./Library/stm32f4xx_cryp_aes.c ****       {
 793:./Library/stm32f4xx_cryp_aes.c ****         /* Wait until the IFEM flag is reset */
 794:./Library/stm32f4xx_cryp_aes.c ****         while(CRYP_GetFlagStatus(CRYP_FLAG_IFEM) == RESET)
 795:./Library/stm32f4xx_cryp_aes.c ****         {
 796:./Library/stm32f4xx_cryp_aes.c ****         }
 797:./Library/stm32f4xx_cryp_aes.c ****         
 798:./Library/stm32f4xx_cryp_aes.c ****         /* Write the Input block in the IN FIFO */
 799:./Library/stm32f4xx_cryp_aes.c ****         CRYP_DataIn(*(uint32_t*)(headeraddr));
 800:./Library/stm32f4xx_cryp_aes.c ****         headeraddr+=4;
 801:./Library/stm32f4xx_cryp_aes.c ****         CRYP_DataIn(*(uint32_t*)(headeraddr));
 802:./Library/stm32f4xx_cryp_aes.c ****         headeraddr+=4;
 803:./Library/stm32f4xx_cryp_aes.c ****         CRYP_DataIn(*(uint32_t*)(headeraddr));
 804:./Library/stm32f4xx_cryp_aes.c ****         headeraddr+=4;
 805:./Library/stm32f4xx_cryp_aes.c ****         CRYP_DataIn(*(uint32_t*)(headeraddr));
 806:./Library/stm32f4xx_cryp_aes.c ****         headeraddr+=4;
 807:./Library/stm32f4xx_cryp_aes.c ****       }
 808:./Library/stm32f4xx_cryp_aes.c ****       
 809:./Library/stm32f4xx_cryp_aes.c ****       /* Wait until the complete message has been processed */
 810:./Library/stm32f4xx_cryp_aes.c ****       counter = 0;
 811:./Library/stm32f4xx_cryp_aes.c ****       do
 812:./Library/stm32f4xx_cryp_aes.c ****       {
 813:./Library/stm32f4xx_cryp_aes.c ****         busystatus = CRYP_GetFlagStatus(CRYP_FLAG_BUSY);
 814:./Library/stm32f4xx_cryp_aes.c ****         counter++;
 815:./Library/stm32f4xx_cryp_aes.c ****       }while ((counter != AESBUSY_TIMEOUT) && (busystatus != RESET));
 816:./Library/stm32f4xx_cryp_aes.c **** 
 817:./Library/stm32f4xx_cryp_aes.c ****       if (busystatus != RESET)
 818:./Library/stm32f4xx_cryp_aes.c ****       {
 819:./Library/stm32f4xx_cryp_aes.c ****         status = ERROR;
 820:./Library/stm32f4xx_cryp_aes.c ****       }
 821:./Library/stm32f4xx_cryp_aes.c ****     }
 822:./Library/stm32f4xx_cryp_aes.c ****     
 823:./Library/stm32f4xx_cryp_aes.c ****     /**************************** payload phase *******************************/
 824:./Library/stm32f4xx_cryp_aes.c ****     if(ILength != 0)
 825:./Library/stm32f4xx_cryp_aes.c ****     {
 826:./Library/stm32f4xx_cryp_aes.c ****       /* Select payload phase */
 827:./Library/stm32f4xx_cryp_aes.c ****       CRYP_PhaseConfig(CRYP_Phase_Payload);
 828:./Library/stm32f4xx_cryp_aes.c ****       
 829:./Library/stm32f4xx_cryp_aes.c ****       /* Enable Crypto processor */
 830:./Library/stm32f4xx_cryp_aes.c ****       CRYP_Cmd(ENABLE);
 831:./Library/stm32f4xx_cryp_aes.c ****       
 832:./Library/stm32f4xx_cryp_aes.c ****       if(CRYP_GetCmdStatus() == DISABLE)
 833:./Library/stm32f4xx_cryp_aes.c ****       {
 834:./Library/stm32f4xx_cryp_aes.c ****         /* The CRYP peripheral clock is not enabled or the device doesn't embed 
 835:./Library/stm32f4xx_cryp_aes.c ****            the CRYP peripheral (please check the device sales type. */
 836:./Library/stm32f4xx_cryp_aes.c ****         return(ERROR);
 837:./Library/stm32f4xx_cryp_aes.c ****       }
 838:./Library/stm32f4xx_cryp_aes.c ****       
 839:./Library/stm32f4xx_cryp_aes.c ****       for(loopcounter = 0; ((loopcounter < ILength) && (status != ERROR)); loopcounter+=16)
 840:./Library/stm32f4xx_cryp_aes.c ****       {
ARM GAS  /tmp/ccsH6HZr.s 			page 71


 841:./Library/stm32f4xx_cryp_aes.c ****         /* Wait until the IFEM flag is reset */
 842:./Library/stm32f4xx_cryp_aes.c ****         while(CRYP_GetFlagStatus(CRYP_FLAG_IFEM) == RESET)
 843:./Library/stm32f4xx_cryp_aes.c ****         {
 844:./Library/stm32f4xx_cryp_aes.c ****         }
 845:./Library/stm32f4xx_cryp_aes.c ****         /* Write the Input block in the IN FIFO */
 846:./Library/stm32f4xx_cryp_aes.c ****         CRYP_DataIn(*(uint32_t*)(inputaddr));
 847:./Library/stm32f4xx_cryp_aes.c ****         inputaddr+=4;
 848:./Library/stm32f4xx_cryp_aes.c ****         CRYP_DataIn(*(uint32_t*)(inputaddr));
 849:./Library/stm32f4xx_cryp_aes.c ****         inputaddr+=4;
 850:./Library/stm32f4xx_cryp_aes.c ****         CRYP_DataIn(*(uint32_t*)(inputaddr));
 851:./Library/stm32f4xx_cryp_aes.c ****         inputaddr+=4;
 852:./Library/stm32f4xx_cryp_aes.c ****         CRYP_DataIn(*(uint32_t*)(inputaddr));
 853:./Library/stm32f4xx_cryp_aes.c ****         inputaddr+=4;
 854:./Library/stm32f4xx_cryp_aes.c ****         
 855:./Library/stm32f4xx_cryp_aes.c ****         /* Wait until the complete message has been processed */
 856:./Library/stm32f4xx_cryp_aes.c ****         counter = 0;
 857:./Library/stm32f4xx_cryp_aes.c ****         do
 858:./Library/stm32f4xx_cryp_aes.c ****         {
 859:./Library/stm32f4xx_cryp_aes.c ****           busystatus = CRYP_GetFlagStatus(CRYP_FLAG_BUSY);
 860:./Library/stm32f4xx_cryp_aes.c ****           counter++;
 861:./Library/stm32f4xx_cryp_aes.c ****         }while ((counter != AESBUSY_TIMEOUT) && (busystatus != RESET));
 862:./Library/stm32f4xx_cryp_aes.c **** 
 863:./Library/stm32f4xx_cryp_aes.c ****         if (busystatus != RESET)
 864:./Library/stm32f4xx_cryp_aes.c ****         {
 865:./Library/stm32f4xx_cryp_aes.c ****           status = ERROR;
 866:./Library/stm32f4xx_cryp_aes.c ****         }
 867:./Library/stm32f4xx_cryp_aes.c ****         else
 868:./Library/stm32f4xx_cryp_aes.c ****         {
 869:./Library/stm32f4xx_cryp_aes.c ****           /* Wait until the OFNE flag is reset */
 870:./Library/stm32f4xx_cryp_aes.c ****           while(CRYP_GetFlagStatus(CRYP_FLAG_OFNE) == RESET)
 871:./Library/stm32f4xx_cryp_aes.c ****           {
 872:./Library/stm32f4xx_cryp_aes.c ****           }
 873:./Library/stm32f4xx_cryp_aes.c ****           
 874:./Library/stm32f4xx_cryp_aes.c ****           /* Read the Output block from the Output FIFO */
 875:./Library/stm32f4xx_cryp_aes.c ****           *(uint32_t*)(outputaddr) = CRYP_DataOut();
 876:./Library/stm32f4xx_cryp_aes.c ****           outputaddr+=4;
 877:./Library/stm32f4xx_cryp_aes.c ****           *(uint32_t*)(outputaddr) = CRYP_DataOut();
 878:./Library/stm32f4xx_cryp_aes.c ****           outputaddr+=4;
 879:./Library/stm32f4xx_cryp_aes.c ****           *(uint32_t*)(outputaddr) = CRYP_DataOut();
 880:./Library/stm32f4xx_cryp_aes.c ****           outputaddr+=4;
 881:./Library/stm32f4xx_cryp_aes.c ****           *(uint32_t*)(outputaddr) = CRYP_DataOut();
 882:./Library/stm32f4xx_cryp_aes.c ****           outputaddr+=4;
 883:./Library/stm32f4xx_cryp_aes.c ****         }
 884:./Library/stm32f4xx_cryp_aes.c ****       }
 885:./Library/stm32f4xx_cryp_aes.c ****     }
 886:./Library/stm32f4xx_cryp_aes.c ****     
 887:./Library/stm32f4xx_cryp_aes.c ****     /***************************** final phase ********************************/
 888:./Library/stm32f4xx_cryp_aes.c ****     /* Select final phase */
 889:./Library/stm32f4xx_cryp_aes.c ****     CRYP_PhaseConfig(CRYP_Phase_Final);
 890:./Library/stm32f4xx_cryp_aes.c ****     
 891:./Library/stm32f4xx_cryp_aes.c ****     /* Enable Crypto processor */
 892:./Library/stm32f4xx_cryp_aes.c ****     CRYP_Cmd(ENABLE);
 893:./Library/stm32f4xx_cryp_aes.c ****     
 894:./Library/stm32f4xx_cryp_aes.c ****     if(CRYP_GetCmdStatus() == DISABLE)
 895:./Library/stm32f4xx_cryp_aes.c ****     {
 896:./Library/stm32f4xx_cryp_aes.c ****       /* The CRYP peripheral clock is not enabled or the device doesn't embed 
 897:./Library/stm32f4xx_cryp_aes.c ****          the CRYP peripheral (please check the device sales type. */
ARM GAS  /tmp/ccsH6HZr.s 			page 72


 898:./Library/stm32f4xx_cryp_aes.c ****       return(ERROR);
 899:./Library/stm32f4xx_cryp_aes.c ****     }
 900:./Library/stm32f4xx_cryp_aes.c ****     
 901:./Library/stm32f4xx_cryp_aes.c ****     /* Write number of bits concatenated with header in the IN FIFO */
 902:./Library/stm32f4xx_cryp_aes.c ****     CRYP_DataIn(__REV(headerlength>>32));
 903:./Library/stm32f4xx_cryp_aes.c ****     CRYP_DataIn(__REV(headerlength));
 904:./Library/stm32f4xx_cryp_aes.c ****     CRYP_DataIn(__REV(inputlength>>32));
 905:./Library/stm32f4xx_cryp_aes.c ****     CRYP_DataIn(__REV(inputlength));
 906:./Library/stm32f4xx_cryp_aes.c ****     /* Wait until the OFNE flag is reset */
 907:./Library/stm32f4xx_cryp_aes.c ****     while(CRYP_GetFlagStatus(CRYP_FLAG_OFNE) == RESET)
 908:./Library/stm32f4xx_cryp_aes.c ****     {
 909:./Library/stm32f4xx_cryp_aes.c ****     }
 910:./Library/stm32f4xx_cryp_aes.c ****     
 911:./Library/stm32f4xx_cryp_aes.c ****     tagaddr = (uint32_t)AuthTAG;
 912:./Library/stm32f4xx_cryp_aes.c ****     /* Read the Auth TAG in the IN FIFO */
 913:./Library/stm32f4xx_cryp_aes.c ****     *(uint32_t*)(tagaddr) = CRYP_DataOut();
 914:./Library/stm32f4xx_cryp_aes.c ****     tagaddr+=4;
 915:./Library/stm32f4xx_cryp_aes.c ****     *(uint32_t*)(tagaddr) = CRYP_DataOut();
 916:./Library/stm32f4xx_cryp_aes.c ****     tagaddr+=4;
 917:./Library/stm32f4xx_cryp_aes.c ****     *(uint32_t*)(tagaddr) = CRYP_DataOut();
 918:./Library/stm32f4xx_cryp_aes.c ****     tagaddr+=4;
 919:./Library/stm32f4xx_cryp_aes.c ****     *(uint32_t*)(tagaddr) = CRYP_DataOut();
 920:./Library/stm32f4xx_cryp_aes.c ****     tagaddr+=4;
 921:./Library/stm32f4xx_cryp_aes.c ****   }
 922:./Library/stm32f4xx_cryp_aes.c ****   /*------------------ AES Decryption ------------------*/
 923:./Library/stm32f4xx_cryp_aes.c ****   else /* AES decryption */
 924:./Library/stm32f4xx_cryp_aes.c ****   {
 925:./Library/stm32f4xx_cryp_aes.c ****     /* Flush IN/OUT FIFOs */
 926:./Library/stm32f4xx_cryp_aes.c ****     CRYP_FIFOFlush();
 2285              		.loc 1 926 5 is_stmt 1 view .LVU883
 2286 0064 FFF7FEFF 		bl	CRYP_FIFOFlush
 2287              	.LVL326:
 927:./Library/stm32f4xx_cryp_aes.c ****     
 928:./Library/stm32f4xx_cryp_aes.c ****     /* Key Initialisation */
 929:./Library/stm32f4xx_cryp_aes.c ****     CRYP_KeyInit(&AES_CRYP_KeyInitStructure);
 2288              		.loc 1 929 5 view .LVU884
 2289 0068 0AA8     		add	r0, sp, #40
 2290 006a FFF7FEFF 		bl	CRYP_KeyInit
 2291              	.LVL327:
 930:./Library/stm32f4xx_cryp_aes.c ****     
 931:./Library/stm32f4xx_cryp_aes.c ****     /* CRYP Initialization Vectors */
 932:./Library/stm32f4xx_cryp_aes.c ****     CRYP_IVInit(&AES_CRYP_IVInitStructure);
 2292              		.loc 1 932 5 view .LVU885
 2293 006e 06A8     		add	r0, sp, #24
 2294 0070 FFF7FEFF 		bl	CRYP_IVInit
 2295              	.LVL328:
 933:./Library/stm32f4xx_cryp_aes.c ****     
 934:./Library/stm32f4xx_cryp_aes.c ****     /* Crypto Init for Key preparation for decryption process */
 935:./Library/stm32f4xx_cryp_aes.c ****     AES_CRYP_InitStructure.CRYP_AlgoDir = CRYP_AlgoDir_Decrypt;
 2296              		.loc 1 935 5 view .LVU886
 2297              		.loc 1 935 41 is_stmt 0 view .LVU887
 2298 0074 0423     		movs	r3, #4
 2299 0076 1293     		str	r3, [sp, #72]
 936:./Library/stm32f4xx_cryp_aes.c ****     AES_CRYP_InitStructure.CRYP_AlgoMode = CRYP_AlgoMode_AES_GCM;
 2300              		.loc 1 936 5 is_stmt 1 view .LVU888
 2301              		.loc 1 936 42 is_stmt 0 view .LVU889
 2302 0078 4FF40023 		mov	r3, #524288
ARM GAS  /tmp/ccsH6HZr.s 			page 73


 2303 007c 1393     		str	r3, [sp, #76]
 937:./Library/stm32f4xx_cryp_aes.c ****     AES_CRYP_InitStructure.CRYP_DataType = CRYP_DataType_8b;
 2304              		.loc 1 937 5 is_stmt 1 view .LVU890
 2305              		.loc 1 937 42 is_stmt 0 view .LVU891
 2306 007e 8023     		movs	r3, #128
 2307 0080 1493     		str	r3, [sp, #80]
 938:./Library/stm32f4xx_cryp_aes.c ****     CRYP_Init(&AES_CRYP_InitStructure);
 2308              		.loc 1 938 5 is_stmt 1 view .LVU892
 2309 0082 12A8     		add	r0, sp, #72
 2310 0084 FFF7FEFF 		bl	CRYP_Init
 2311              	.LVL329:
 939:./Library/stm32f4xx_cryp_aes.c ****     
 940:./Library/stm32f4xx_cryp_aes.c ****     /***************************** Init phase *********************************/
 941:./Library/stm32f4xx_cryp_aes.c ****     /* Select init phase */
 942:./Library/stm32f4xx_cryp_aes.c ****     CRYP_PhaseConfig(CRYP_Phase_Init);
 2312              		.loc 1 942 5 view .LVU893
 2313 0088 0020     		movs	r0, #0
 2314 008a FFF7FEFF 		bl	CRYP_PhaseConfig
 2315              	.LVL330:
 943:./Library/stm32f4xx_cryp_aes.c ****     
 944:./Library/stm32f4xx_cryp_aes.c ****     /* Enable Crypto processor */
 945:./Library/stm32f4xx_cryp_aes.c ****     CRYP_Cmd(ENABLE);
 2316              		.loc 1 945 5 view .LVU894
 2317 008e 0120     		movs	r0, #1
 2318 0090 FFF7FEFF 		bl	CRYP_Cmd
 2319              	.LVL331:
 946:./Library/stm32f4xx_cryp_aes.c ****     
 947:./Library/stm32f4xx_cryp_aes.c ****     /* Wait for CRYPEN bit to be 0 */
 948:./Library/stm32f4xx_cryp_aes.c ****     while(CRYP_GetCmdStatus() == ENABLE)
 2320              		.loc 1 948 5 view .LVU895
 2321              	.L77:
 949:./Library/stm32f4xx_cryp_aes.c ****     {
 950:./Library/stm32f4xx_cryp_aes.c ****     }
 2322              		.loc 1 950 5 discriminator 1 view .LVU896
 948:./Library/stm32f4xx_cryp_aes.c ****     {
 2323              		.loc 1 948 31 discriminator 1 view .LVU897
 948:./Library/stm32f4xx_cryp_aes.c ****     {
 2324              		.loc 1 948 11 is_stmt 0 discriminator 1 view .LVU898
 2325 0094 FFF7FEFF 		bl	CRYP_GetCmdStatus
 2326              	.LVL332:
 948:./Library/stm32f4xx_cryp_aes.c ****     {
 2327              		.loc 1 948 31 discriminator 1 view .LVU899
 2328 0098 0128     		cmp	r0, #1
 2329 009a FBD0     		beq	.L77
 951:./Library/stm32f4xx_cryp_aes.c ****     
 952:./Library/stm32f4xx_cryp_aes.c ****     /***************************** header phase *******************************/
 953:./Library/stm32f4xx_cryp_aes.c ****     if(HLength != 0)
 2330              		.loc 1 953 5 is_stmt 1 view .LVU900
 2331              		.loc 1 953 7 is_stmt 0 view .LVU901
 2332 009c BAF1000F 		cmp	r10, #0
 2333 00a0 40F03481 		bne	.L101
 674:./Library/stm32f4xx_cryp_aes.c ****   uint32_t keyaddr    = (uint32_t)Key;
 2334              		.loc 1 674 15 view .LVU902
 2335 00a4 0125     		movs	r5, #1
 2336              	.LVL333:
 2337              	.L78:
 954:./Library/stm32f4xx_cryp_aes.c ****     {
ARM GAS  /tmp/ccsH6HZr.s 			page 74


 955:./Library/stm32f4xx_cryp_aes.c ****       /* Select header phase */
 956:./Library/stm32f4xx_cryp_aes.c ****       CRYP_PhaseConfig(CRYP_Phase_Header);
 957:./Library/stm32f4xx_cryp_aes.c ****       
 958:./Library/stm32f4xx_cryp_aes.c ****       /* Enable Crypto processor */
 959:./Library/stm32f4xx_cryp_aes.c ****       CRYP_Cmd(ENABLE);
 960:./Library/stm32f4xx_cryp_aes.c ****       
 961:./Library/stm32f4xx_cryp_aes.c ****       if(CRYP_GetCmdStatus() == DISABLE)
 962:./Library/stm32f4xx_cryp_aes.c ****       {
 963:./Library/stm32f4xx_cryp_aes.c ****         /* The CRYP peripheral clock is not enabled or the device doesn't embed 
 964:./Library/stm32f4xx_cryp_aes.c ****            the CRYP peripheral (please check the device sales type. */
 965:./Library/stm32f4xx_cryp_aes.c ****         return(ERROR);
 966:./Library/stm32f4xx_cryp_aes.c ****       }
 967:./Library/stm32f4xx_cryp_aes.c ****       
 968:./Library/stm32f4xx_cryp_aes.c ****       for(loopcounter = 0; (loopcounter < HLength); loopcounter+=16)
 969:./Library/stm32f4xx_cryp_aes.c ****       {
 970:./Library/stm32f4xx_cryp_aes.c ****         /* Wait until the IFEM flag is reset */
 971:./Library/stm32f4xx_cryp_aes.c ****         while(CRYP_GetFlagStatus(CRYP_FLAG_IFEM) == RESET)
 972:./Library/stm32f4xx_cryp_aes.c ****         {
 973:./Library/stm32f4xx_cryp_aes.c ****         }
 974:./Library/stm32f4xx_cryp_aes.c ****         
 975:./Library/stm32f4xx_cryp_aes.c ****         /* Write the Input block in the IN FIFO */
 976:./Library/stm32f4xx_cryp_aes.c ****         CRYP_DataIn(*(uint32_t*)(headeraddr));
 977:./Library/stm32f4xx_cryp_aes.c ****         headeraddr+=4;
 978:./Library/stm32f4xx_cryp_aes.c ****         CRYP_DataIn(*(uint32_t*)(headeraddr));
 979:./Library/stm32f4xx_cryp_aes.c ****         headeraddr+=4;
 980:./Library/stm32f4xx_cryp_aes.c ****         CRYP_DataIn(*(uint32_t*)(headeraddr));
 981:./Library/stm32f4xx_cryp_aes.c ****         headeraddr+=4;
 982:./Library/stm32f4xx_cryp_aes.c ****         CRYP_DataIn(*(uint32_t*)(headeraddr));
 983:./Library/stm32f4xx_cryp_aes.c ****         headeraddr+=4;
 984:./Library/stm32f4xx_cryp_aes.c ****       }
 985:./Library/stm32f4xx_cryp_aes.c ****       
 986:./Library/stm32f4xx_cryp_aes.c ****       /* Wait until the complete message has been processed */
 987:./Library/stm32f4xx_cryp_aes.c ****       counter = 0;
 988:./Library/stm32f4xx_cryp_aes.c ****       do
 989:./Library/stm32f4xx_cryp_aes.c ****       {
 990:./Library/stm32f4xx_cryp_aes.c ****         busystatus = CRYP_GetFlagStatus(CRYP_FLAG_BUSY);
 991:./Library/stm32f4xx_cryp_aes.c ****         counter++;
 992:./Library/stm32f4xx_cryp_aes.c ****       }while ((counter != AESBUSY_TIMEOUT) && (busystatus != RESET));
 993:./Library/stm32f4xx_cryp_aes.c **** 
 994:./Library/stm32f4xx_cryp_aes.c ****       if (busystatus != RESET)
 995:./Library/stm32f4xx_cryp_aes.c ****       {
 996:./Library/stm32f4xx_cryp_aes.c ****         status = ERROR;
 997:./Library/stm32f4xx_cryp_aes.c ****       }
 998:./Library/stm32f4xx_cryp_aes.c ****     }
 999:./Library/stm32f4xx_cryp_aes.c ****     
1000:./Library/stm32f4xx_cryp_aes.c ****     /**************************** payload phase *******************************/
1001:./Library/stm32f4xx_cryp_aes.c ****     if(ILength != 0)
 2338              		.loc 1 1001 5 is_stmt 1 view .LVU903
 2339              		.loc 1 1001 7 is_stmt 0 view .LVU904
 2340 00a6 B9F1000F 		cmp	r9, #0
 2341 00aa 00F0A681 		beq	.L83
1002:./Library/stm32f4xx_cryp_aes.c ****     {
1003:./Library/stm32f4xx_cryp_aes.c ****       /* Select payload phase */
1004:./Library/stm32f4xx_cryp_aes.c ****       CRYP_PhaseConfig(CRYP_Phase_Payload);
 2342              		.loc 1 1004 7 is_stmt 1 view .LVU905
 2343 00ae 4FF40030 		mov	r0, #131072
 2344 00b2 FFF7FEFF 		bl	CRYP_PhaseConfig
ARM GAS  /tmp/ccsH6HZr.s 			page 75


 2345              	.LVL334:
1005:./Library/stm32f4xx_cryp_aes.c **** 
1006:./Library/stm32f4xx_cryp_aes.c ****       /* Enable Crypto processor */
1007:./Library/stm32f4xx_cryp_aes.c ****       CRYP_Cmd(ENABLE);
 2346              		.loc 1 1007 7 view .LVU906
 2347 00b6 0120     		movs	r0, #1
 2348 00b8 FFF7FEFF 		bl	CRYP_Cmd
 2349              	.LVL335:
1008:./Library/stm32f4xx_cryp_aes.c ****       
1009:./Library/stm32f4xx_cryp_aes.c ****       if(CRYP_GetCmdStatus() == DISABLE)
 2350              		.loc 1 1009 7 view .LVU907
 2351              		.loc 1 1009 10 is_stmt 0 view .LVU908
 2352 00bc FFF7FEFF 		bl	CRYP_GetCmdStatus
 2353              	.LVL336:
 2354              		.loc 1 1009 9 view .LVU909
 2355 00c0 0646     		mov	r6, r0
 2356 00c2 0028     		cmp	r0, #0
 2357 00c4 00F0CB81 		beq	.L63
1010:./Library/stm32f4xx_cryp_aes.c ****       {
1011:./Library/stm32f4xx_cryp_aes.c ****         /* The CRYP peripheral clock is not enabled or the device doesn't embed 
1012:./Library/stm32f4xx_cryp_aes.c ****            the CRYP peripheral (please check the device sales type. */
1013:./Library/stm32f4xx_cryp_aes.c ****         return(ERROR);
1014:./Library/stm32f4xx_cryp_aes.c ****       }
1015:./Library/stm32f4xx_cryp_aes.c ****       
1016:./Library/stm32f4xx_cryp_aes.c ****       for(loopcounter = 0; ((loopcounter < ILength) && (status != ERROR)); loopcounter+=16)
 2358              		.loc 1 1016 23 view .LVU910
 2359 00c8 0026     		movs	r6, #0
 2360 00ca 59E1     		b	.L84
 2361              	.LVL337:
 2362              	.L99:
 691:./Library/stm32f4xx_cryp_aes.c ****     AES_CRYP_KeyInitStructure.CRYP_Key2Left = __REV(*(uint32_t*)(keyaddr));
 2363              		.loc 1 691 5 is_stmt 1 view .LVU911
 691:./Library/stm32f4xx_cryp_aes.c ****     AES_CRYP_KeyInitStructure.CRYP_Key2Left = __REV(*(uint32_t*)(keyaddr));
 2364              		.loc 1 691 41 is_stmt 0 view .LVU912
 2365 00cc 0023     		movs	r3, #0
 2366 00ce 1593     		str	r3, [sp, #84]
 692:./Library/stm32f4xx_cryp_aes.c ****     keyaddr+=4;
 2367              		.loc 1 692 5 is_stmt 1 view .LVU913
 692:./Library/stm32f4xx_cryp_aes.c ****     keyaddr+=4;
 2368              		.loc 1 692 47 is_stmt 0 view .LVU914
 2369 00d0 3368     		ldr	r3, [r6]
 2370              	.LVL338:
 2371              	.LBB362:
 2372              	.LBI362:
 495:./CORE/core_cmInstr.h **** {
 2373              		.loc 2 495 57 is_stmt 1 view .LVU915
 2374              	.LBB363:
 2375              		.loc 2 498 3 view .LVU916
 2376              		.loc 2 498 10 is_stmt 0 view .LVU917
 2377 00d2 1BBA     		rev	r3, r3
 2378              	.LVL339:
 2379              		.loc 2 498 10 view .LVU918
 2380              	.LBE363:
 2381              	.LBE362:
 692:./Library/stm32f4xx_cryp_aes.c ****     keyaddr+=4;
 2382              		.loc 1 692 45 view .LVU919
 2383 00d4 0E93     		str	r3, [sp, #56]
ARM GAS  /tmp/ccsH6HZr.s 			page 76


 693:./Library/stm32f4xx_cryp_aes.c ****     AES_CRYP_KeyInitStructure.CRYP_Key2Right= __REV(*(uint32_t*)(keyaddr));
 2384              		.loc 1 693 5 is_stmt 1 view .LVU920
 2385              	.LVL340:
 694:./Library/stm32f4xx_cryp_aes.c ****     keyaddr+=4;
 2386              		.loc 1 694 5 view .LVU921
 694:./Library/stm32f4xx_cryp_aes.c ****     keyaddr+=4;
 2387              		.loc 1 694 47 is_stmt 0 view .LVU922
 2388 00d6 7368     		ldr	r3, [r6, #4]
 2389              	.LVL341:
 2390              	.LBB364:
 2391              	.LBI364:
 495:./CORE/core_cmInstr.h **** {
 2392              		.loc 2 495 57 is_stmt 1 view .LVU923
 2393              	.LBB365:
 2394              		.loc 2 498 3 view .LVU924
 2395              		.loc 2 498 10 is_stmt 0 view .LVU925
 2396 00d8 1BBA     		rev	r3, r3
 2397              	.LVL342:
 2398              		.loc 2 498 10 view .LVU926
 2399              	.LBE365:
 2400              	.LBE364:
 694:./Library/stm32f4xx_cryp_aes.c ****     keyaddr+=4;
 2401              		.loc 1 694 45 view .LVU927
 2402 00da 0F93     		str	r3, [sp, #60]
 695:./Library/stm32f4xx_cryp_aes.c ****     AES_CRYP_KeyInitStructure.CRYP_Key3Left = __REV(*(uint32_t*)(keyaddr));
 2403              		.loc 1 695 5 is_stmt 1 view .LVU928
 2404              	.LVL343:
 696:./Library/stm32f4xx_cryp_aes.c ****     keyaddr+=4;
 2405              		.loc 1 696 5 view .LVU929
 696:./Library/stm32f4xx_cryp_aes.c ****     keyaddr+=4;
 2406              		.loc 1 696 47 is_stmt 0 view .LVU930
 2407 00dc B368     		ldr	r3, [r6, #8]
 2408              	.LVL344:
 2409              	.LBB366:
 2410              	.LBI366:
 495:./CORE/core_cmInstr.h **** {
 2411              		.loc 2 495 57 is_stmt 1 view .LVU931
 2412              	.LBB367:
 2413              		.loc 2 498 3 view .LVU932
 2414              		.loc 2 498 10 is_stmt 0 view .LVU933
 2415 00de 1BBA     		rev	r3, r3
 2416              	.LVL345:
 2417              		.loc 2 498 10 view .LVU934
 2418              	.LBE367:
 2419              	.LBE366:
 696:./Library/stm32f4xx_cryp_aes.c ****     keyaddr+=4;
 2420              		.loc 1 696 45 view .LVU935
 2421 00e0 1093     		str	r3, [sp, #64]
 697:./Library/stm32f4xx_cryp_aes.c ****     AES_CRYP_KeyInitStructure.CRYP_Key3Right= __REV(*(uint32_t*)(keyaddr));
 2422              		.loc 1 697 5 is_stmt 1 view .LVU936
 2423              	.LVL346:
 698:./Library/stm32f4xx_cryp_aes.c ****     break;
 2424              		.loc 1 698 5 view .LVU937
 698:./Library/stm32f4xx_cryp_aes.c ****     break;
 2425              		.loc 1 698 47 is_stmt 0 view .LVU938
 2426 00e2 F368     		ldr	r3, [r6, #12]
 2427              	.LVL347:
ARM GAS  /tmp/ccsH6HZr.s 			page 77


 2428              	.LBB368:
 2429              	.LBI368:
 495:./CORE/core_cmInstr.h **** {
 2430              		.loc 2 495 57 is_stmt 1 view .LVU939
 2431              	.LBB369:
 2432              		.loc 2 498 3 view .LVU940
 2433              		.loc 2 498 10 is_stmt 0 view .LVU941
 2434 00e4 1BBA     		rev	r3, r3
 2435              	.LVL348:
 2436              		.loc 2 498 10 view .LVU942
 2437              	.LBE369:
 2438              	.LBE368:
 698:./Library/stm32f4xx_cryp_aes.c ****     break;
 2439              		.loc 1 698 45 view .LVU943
 2440 00e6 1193     		str	r3, [sp, #68]
 699:./Library/stm32f4xx_cryp_aes.c ****     case 192:
 2441              		.loc 1 699 5 is_stmt 1 view .LVU944
 2442 00e8 ADE7     		b	.L59
 2443              	.LVL349:
 2444              	.L57:
 701:./Library/stm32f4xx_cryp_aes.c ****     AES_CRYP_KeyInitStructure.CRYP_Key1Left = __REV(*(uint32_t*)(keyaddr));
 2445              		.loc 1 701 5 view .LVU945
 701:./Library/stm32f4xx_cryp_aes.c ****     AES_CRYP_KeyInitStructure.CRYP_Key1Left = __REV(*(uint32_t*)(keyaddr));
 2446              		.loc 1 701 42 is_stmt 0 view .LVU946
 2447 00ea 4FF48073 		mov	r3, #256
 2448 00ee 1593     		str	r3, [sp, #84]
 702:./Library/stm32f4xx_cryp_aes.c ****     keyaddr+=4;
 2449              		.loc 1 702 5 is_stmt 1 view .LVU947
 702:./Library/stm32f4xx_cryp_aes.c ****     keyaddr+=4;
 2450              		.loc 1 702 47 is_stmt 0 view .LVU948
 2451 00f0 3368     		ldr	r3, [r6]
 2452              	.LVL350:
 2453              	.LBB370:
 2454              	.LBI370:
 495:./CORE/core_cmInstr.h **** {
 2455              		.loc 2 495 57 is_stmt 1 view .LVU949
 2456              	.LBB371:
 2457              		.loc 2 498 3 view .LVU950
 2458              		.loc 2 498 10 is_stmt 0 view .LVU951
 2459 00f2 1BBA     		rev	r3, r3
 2460              	.LVL351:
 2461              		.loc 2 498 10 view .LVU952
 2462              	.LBE371:
 2463              	.LBE370:
 702:./Library/stm32f4xx_cryp_aes.c ****     keyaddr+=4;
 2464              		.loc 1 702 45 view .LVU953
 2465 00f4 0C93     		str	r3, [sp, #48]
 703:./Library/stm32f4xx_cryp_aes.c ****     AES_CRYP_KeyInitStructure.CRYP_Key1Right= __REV(*(uint32_t*)(keyaddr));
 2466              		.loc 1 703 5 is_stmt 1 view .LVU954
 2467              	.LVL352:
 704:./Library/stm32f4xx_cryp_aes.c ****     keyaddr+=4;
 2468              		.loc 1 704 5 view .LVU955
 704:./Library/stm32f4xx_cryp_aes.c ****     keyaddr+=4;
 2469              		.loc 1 704 47 is_stmt 0 view .LVU956
 2470 00f6 7368     		ldr	r3, [r6, #4]
 2471              	.LVL353:
 2472              	.LBB372:
ARM GAS  /tmp/ccsH6HZr.s 			page 78


 2473              	.LBI372:
 495:./CORE/core_cmInstr.h **** {
 2474              		.loc 2 495 57 is_stmt 1 view .LVU957
 2475              	.LBB373:
 2476              		.loc 2 498 3 view .LVU958
 2477              		.loc 2 498 10 is_stmt 0 view .LVU959
 2478 00f8 1BBA     		rev	r3, r3
 2479              	.LVL354:
 2480              		.loc 2 498 10 view .LVU960
 2481              	.LBE373:
 2482              	.LBE372:
 704:./Library/stm32f4xx_cryp_aes.c ****     keyaddr+=4;
 2483              		.loc 1 704 45 view .LVU961
 2484 00fa 0D93     		str	r3, [sp, #52]
 705:./Library/stm32f4xx_cryp_aes.c ****     AES_CRYP_KeyInitStructure.CRYP_Key2Left = __REV(*(uint32_t*)(keyaddr));
 2485              		.loc 1 705 5 is_stmt 1 view .LVU962
 2486              	.LVL355:
 706:./Library/stm32f4xx_cryp_aes.c ****     keyaddr+=4;
 2487              		.loc 1 706 5 view .LVU963
 706:./Library/stm32f4xx_cryp_aes.c ****     keyaddr+=4;
 2488              		.loc 1 706 47 is_stmt 0 view .LVU964
 2489 00fc B368     		ldr	r3, [r6, #8]
 2490              	.LVL356:
 2491              	.LBB374:
 2492              	.LBI374:
 495:./CORE/core_cmInstr.h **** {
 2493              		.loc 2 495 57 is_stmt 1 view .LVU965
 2494              	.LBB375:
 2495              		.loc 2 498 3 view .LVU966
 2496              		.loc 2 498 10 is_stmt 0 view .LVU967
 2497 00fe 1BBA     		rev	r3, r3
 2498              	.LVL357:
 2499              		.loc 2 498 10 view .LVU968
 2500              	.LBE375:
 2501              	.LBE374:
 706:./Library/stm32f4xx_cryp_aes.c ****     keyaddr+=4;
 2502              		.loc 1 706 45 view .LVU969
 2503 0100 0E93     		str	r3, [sp, #56]
 707:./Library/stm32f4xx_cryp_aes.c ****     AES_CRYP_KeyInitStructure.CRYP_Key2Right= __REV(*(uint32_t*)(keyaddr));
 2504              		.loc 1 707 5 is_stmt 1 view .LVU970
 2505              	.LVL358:
 708:./Library/stm32f4xx_cryp_aes.c ****     keyaddr+=4;
 2506              		.loc 1 708 5 view .LVU971
 708:./Library/stm32f4xx_cryp_aes.c ****     keyaddr+=4;
 2507              		.loc 1 708 47 is_stmt 0 view .LVU972
 2508 0102 F368     		ldr	r3, [r6, #12]
 2509              	.LVL359:
 2510              	.LBB376:
 2511              	.LBI376:
 495:./CORE/core_cmInstr.h **** {
 2512              		.loc 2 495 57 is_stmt 1 view .LVU973
 2513              	.LBB377:
 2514              		.loc 2 498 3 view .LVU974
 2515              		.loc 2 498 10 is_stmt 0 view .LVU975
 2516 0104 1BBA     		rev	r3, r3
 2517              	.LVL360:
 2518              		.loc 2 498 10 view .LVU976
ARM GAS  /tmp/ccsH6HZr.s 			page 79


 2519              	.LBE377:
 2520              	.LBE376:
 708:./Library/stm32f4xx_cryp_aes.c ****     keyaddr+=4;
 2521              		.loc 1 708 45 view .LVU977
 2522 0106 0F93     		str	r3, [sp, #60]
 709:./Library/stm32f4xx_cryp_aes.c ****     AES_CRYP_KeyInitStructure.CRYP_Key3Left = __REV(*(uint32_t*)(keyaddr));
 2523              		.loc 1 709 5 is_stmt 1 view .LVU978
 2524              	.LVL361:
 710:./Library/stm32f4xx_cryp_aes.c ****     keyaddr+=4;
 2525              		.loc 1 710 5 view .LVU979
 710:./Library/stm32f4xx_cryp_aes.c ****     keyaddr+=4;
 2526              		.loc 1 710 47 is_stmt 0 view .LVU980
 2527 0108 3369     		ldr	r3, [r6, #16]
 2528              	.LVL362:
 2529              	.LBB378:
 2530              	.LBI378:
 495:./CORE/core_cmInstr.h **** {
 2531              		.loc 2 495 57 is_stmt 1 view .LVU981
 2532              	.LBB379:
 2533              		.loc 2 498 3 view .LVU982
 2534              		.loc 2 498 10 is_stmt 0 view .LVU983
 2535 010a 1BBA     		rev	r3, r3
 2536              	.LVL363:
 2537              		.loc 2 498 10 view .LVU984
 2538              	.LBE379:
 2539              	.LBE378:
 710:./Library/stm32f4xx_cryp_aes.c ****     keyaddr+=4;
 2540              		.loc 1 710 45 view .LVU985
 2541 010c 1093     		str	r3, [sp, #64]
 711:./Library/stm32f4xx_cryp_aes.c ****     AES_CRYP_KeyInitStructure.CRYP_Key3Right= __REV(*(uint32_t*)(keyaddr));
 2542              		.loc 1 711 5 is_stmt 1 view .LVU986
 2543              	.LVL364:
 712:./Library/stm32f4xx_cryp_aes.c ****     break;
 2544              		.loc 1 712 5 view .LVU987
 712:./Library/stm32f4xx_cryp_aes.c ****     break;
 2545              		.loc 1 712 47 is_stmt 0 view .LVU988
 2546 010e 7369     		ldr	r3, [r6, #20]
 2547              	.LVL365:
 2548              	.LBB380:
 2549              	.LBI380:
 495:./CORE/core_cmInstr.h **** {
 2550              		.loc 2 495 57 is_stmt 1 view .LVU989
 2551              	.LBB381:
 2552              		.loc 2 498 3 view .LVU990
 2553              		.loc 2 498 10 is_stmt 0 view .LVU991
 2554 0110 1BBA     		rev	r3, r3
 2555              	.LVL366:
 2556              		.loc 2 498 10 view .LVU992
 2557              	.LBE381:
 2558              	.LBE380:
 712:./Library/stm32f4xx_cryp_aes.c ****     break;
 2559              		.loc 1 712 45 view .LVU993
 2560 0112 1193     		str	r3, [sp, #68]
 713:./Library/stm32f4xx_cryp_aes.c ****     case 256:
 2561              		.loc 1 713 5 is_stmt 1 view .LVU994
 2562 0114 97E7     		b	.L59
 2563              	.LVL367:
ARM GAS  /tmp/ccsH6HZr.s 			page 80


 2564              	.L58:
 715:./Library/stm32f4xx_cryp_aes.c ****     AES_CRYP_KeyInitStructure.CRYP_Key0Left = __REV(*(uint32_t*)(keyaddr));
 2565              		.loc 1 715 5 view .LVU995
 715:./Library/stm32f4xx_cryp_aes.c ****     AES_CRYP_KeyInitStructure.CRYP_Key0Left = __REV(*(uint32_t*)(keyaddr));
 2566              		.loc 1 715 42 is_stmt 0 view .LVU996
 2567 0116 4FF40073 		mov	r3, #512
 2568 011a 1593     		str	r3, [sp, #84]
 716:./Library/stm32f4xx_cryp_aes.c ****     keyaddr+=4;
 2569              		.loc 1 716 5 is_stmt 1 view .LVU997
 716:./Library/stm32f4xx_cryp_aes.c ****     keyaddr+=4;
 2570              		.loc 1 716 47 is_stmt 0 view .LVU998
 2571 011c 3368     		ldr	r3, [r6]
 2572              	.LVL368:
 2573              	.LBB382:
 2574              	.LBI382:
 495:./CORE/core_cmInstr.h **** {
 2575              		.loc 2 495 57 is_stmt 1 view .LVU999
 2576              	.LBB383:
 2577              		.loc 2 498 3 view .LVU1000
 2578              		.loc 2 498 10 is_stmt 0 view .LVU1001
 2579 011e 1BBA     		rev	r3, r3
 2580              	.LVL369:
 2581              		.loc 2 498 10 view .LVU1002
 2582              	.LBE383:
 2583              	.LBE382:
 716:./Library/stm32f4xx_cryp_aes.c ****     keyaddr+=4;
 2584              		.loc 1 716 45 view .LVU1003
 2585 0120 0A93     		str	r3, [sp, #40]
 717:./Library/stm32f4xx_cryp_aes.c ****     AES_CRYP_KeyInitStructure.CRYP_Key0Right= __REV(*(uint32_t*)(keyaddr));
 2586              		.loc 1 717 5 is_stmt 1 view .LVU1004
 2587              	.LVL370:
 718:./Library/stm32f4xx_cryp_aes.c ****     keyaddr+=4;
 2588              		.loc 1 718 5 view .LVU1005
 718:./Library/stm32f4xx_cryp_aes.c ****     keyaddr+=4;
 2589              		.loc 1 718 47 is_stmt 0 view .LVU1006
 2590 0122 7368     		ldr	r3, [r6, #4]
 2591              	.LVL371:
 2592              	.LBB384:
 2593              	.LBI384:
 495:./CORE/core_cmInstr.h **** {
 2594              		.loc 2 495 57 is_stmt 1 view .LVU1007
 2595              	.LBB385:
 2596              		.loc 2 498 3 view .LVU1008
 2597              		.loc 2 498 10 is_stmt 0 view .LVU1009
 2598 0124 1BBA     		rev	r3, r3
 2599              	.LVL372:
 2600              		.loc 2 498 10 view .LVU1010
 2601              	.LBE385:
 2602              	.LBE384:
 718:./Library/stm32f4xx_cryp_aes.c ****     keyaddr+=4;
 2603              		.loc 1 718 45 view .LVU1011
 2604 0126 0B93     		str	r3, [sp, #44]
 719:./Library/stm32f4xx_cryp_aes.c ****     AES_CRYP_KeyInitStructure.CRYP_Key1Left = __REV(*(uint32_t*)(keyaddr));
 2605              		.loc 1 719 5 is_stmt 1 view .LVU1012
 2606              	.LVL373:
 720:./Library/stm32f4xx_cryp_aes.c ****     keyaddr+=4;
 2607              		.loc 1 720 5 view .LVU1013
ARM GAS  /tmp/ccsH6HZr.s 			page 81


 720:./Library/stm32f4xx_cryp_aes.c ****     keyaddr+=4;
 2608              		.loc 1 720 47 is_stmt 0 view .LVU1014
 2609 0128 B368     		ldr	r3, [r6, #8]
 2610              	.LVL374:
 2611              	.LBB386:
 2612              	.LBI386:
 495:./CORE/core_cmInstr.h **** {
 2613              		.loc 2 495 57 is_stmt 1 view .LVU1015
 2614              	.LBB387:
 2615              		.loc 2 498 3 view .LVU1016
 2616              		.loc 2 498 10 is_stmt 0 view .LVU1017
 2617 012a 1BBA     		rev	r3, r3
 2618              	.LVL375:
 2619              		.loc 2 498 10 view .LVU1018
 2620              	.LBE387:
 2621              	.LBE386:
 720:./Library/stm32f4xx_cryp_aes.c ****     keyaddr+=4;
 2622              		.loc 1 720 45 view .LVU1019
 2623 012c 0C93     		str	r3, [sp, #48]
 721:./Library/stm32f4xx_cryp_aes.c ****     AES_CRYP_KeyInitStructure.CRYP_Key1Right= __REV(*(uint32_t*)(keyaddr));
 2624              		.loc 1 721 5 is_stmt 1 view .LVU1020
 2625              	.LVL376:
 722:./Library/stm32f4xx_cryp_aes.c ****     keyaddr+=4;
 2626              		.loc 1 722 5 view .LVU1021
 722:./Library/stm32f4xx_cryp_aes.c ****     keyaddr+=4;
 2627              		.loc 1 722 47 is_stmt 0 view .LVU1022
 2628 012e F368     		ldr	r3, [r6, #12]
 2629              	.LVL377:
 2630              	.LBB388:
 2631              	.LBI388:
 495:./CORE/core_cmInstr.h **** {
 2632              		.loc 2 495 57 is_stmt 1 view .LVU1023
 2633              	.LBB389:
 2634              		.loc 2 498 3 view .LVU1024
 2635              		.loc 2 498 10 is_stmt 0 view .LVU1025
 2636 0130 1BBA     		rev	r3, r3
 2637              	.LVL378:
 2638              		.loc 2 498 10 view .LVU1026
 2639              	.LBE389:
 2640              	.LBE388:
 722:./Library/stm32f4xx_cryp_aes.c ****     keyaddr+=4;
 2641              		.loc 1 722 45 view .LVU1027
 2642 0132 0D93     		str	r3, [sp, #52]
 723:./Library/stm32f4xx_cryp_aes.c ****     AES_CRYP_KeyInitStructure.CRYP_Key2Left = __REV(*(uint32_t*)(keyaddr));
 2643              		.loc 1 723 5 is_stmt 1 view .LVU1028
 2644              	.LVL379:
 724:./Library/stm32f4xx_cryp_aes.c ****     keyaddr+=4;
 2645              		.loc 1 724 5 view .LVU1029
 724:./Library/stm32f4xx_cryp_aes.c ****     keyaddr+=4;
 2646              		.loc 1 724 47 is_stmt 0 view .LVU1030
 2647 0134 3369     		ldr	r3, [r6, #16]
 2648              	.LVL380:
 2649              	.LBB390:
 2650              	.LBI390:
 495:./CORE/core_cmInstr.h **** {
 2651              		.loc 2 495 57 is_stmt 1 view .LVU1031
 2652              	.LBB391:
ARM GAS  /tmp/ccsH6HZr.s 			page 82


 2653              		.loc 2 498 3 view .LVU1032
 2654              		.loc 2 498 10 is_stmt 0 view .LVU1033
 2655 0136 1BBA     		rev	r3, r3
 2656              	.LVL381:
 2657              		.loc 2 498 10 view .LVU1034
 2658              	.LBE391:
 2659              	.LBE390:
 724:./Library/stm32f4xx_cryp_aes.c ****     keyaddr+=4;
 2660              		.loc 1 724 45 view .LVU1035
 2661 0138 0E93     		str	r3, [sp, #56]
 725:./Library/stm32f4xx_cryp_aes.c ****     AES_CRYP_KeyInitStructure.CRYP_Key2Right= __REV(*(uint32_t*)(keyaddr));
 2662              		.loc 1 725 5 is_stmt 1 view .LVU1036
 2663              	.LVL382:
 726:./Library/stm32f4xx_cryp_aes.c ****     keyaddr+=4;
 2664              		.loc 1 726 5 view .LVU1037
 726:./Library/stm32f4xx_cryp_aes.c ****     keyaddr+=4;
 2665              		.loc 1 726 47 is_stmt 0 view .LVU1038
 2666 013a 7369     		ldr	r3, [r6, #20]
 2667              	.LVL383:
 2668              	.LBB392:
 2669              	.LBI392:
 495:./CORE/core_cmInstr.h **** {
 2670              		.loc 2 495 57 is_stmt 1 view .LVU1039
 2671              	.LBB393:
 2672              		.loc 2 498 3 view .LVU1040
 2673              		.loc 2 498 10 is_stmt 0 view .LVU1041
 2674 013c 1BBA     		rev	r3, r3
 2675              	.LVL384:
 2676              		.loc 2 498 10 view .LVU1042
 2677              	.LBE393:
 2678              	.LBE392:
 726:./Library/stm32f4xx_cryp_aes.c ****     keyaddr+=4;
 2679              		.loc 1 726 45 view .LVU1043
 2680 013e 0F93     		str	r3, [sp, #60]
 727:./Library/stm32f4xx_cryp_aes.c ****     AES_CRYP_KeyInitStructure.CRYP_Key3Left = __REV(*(uint32_t*)(keyaddr));
 2681              		.loc 1 727 5 is_stmt 1 view .LVU1044
 2682              	.LVL385:
 728:./Library/stm32f4xx_cryp_aes.c ****     keyaddr+=4;
 2683              		.loc 1 728 5 view .LVU1045
 728:./Library/stm32f4xx_cryp_aes.c ****     keyaddr+=4;
 2684              		.loc 1 728 47 is_stmt 0 view .LVU1046
 2685 0140 B369     		ldr	r3, [r6, #24]
 2686              	.LVL386:
 2687              	.LBB394:
 2688              	.LBI394:
 495:./CORE/core_cmInstr.h **** {
 2689              		.loc 2 495 57 is_stmt 1 view .LVU1047
 2690              	.LBB395:
 2691              		.loc 2 498 3 view .LVU1048
 2692              		.loc 2 498 10 is_stmt 0 view .LVU1049
 2693 0142 1BBA     		rev	r3, r3
 2694              	.LVL387:
 2695              		.loc 2 498 10 view .LVU1050
 2696              	.LBE395:
 2697              	.LBE394:
 728:./Library/stm32f4xx_cryp_aes.c ****     keyaddr+=4;
 2698              		.loc 1 728 45 view .LVU1051
ARM GAS  /tmp/ccsH6HZr.s 			page 83


 2699 0144 1093     		str	r3, [sp, #64]
 729:./Library/stm32f4xx_cryp_aes.c ****     AES_CRYP_KeyInitStructure.CRYP_Key3Right= __REV(*(uint32_t*)(keyaddr));
 2700              		.loc 1 729 5 is_stmt 1 view .LVU1052
 2701              	.LVL388:
 730:./Library/stm32f4xx_cryp_aes.c ****     break;
 2702              		.loc 1 730 5 view .LVU1053
 730:./Library/stm32f4xx_cryp_aes.c ****     break;
 2703              		.loc 1 730 47 is_stmt 0 view .LVU1054
 2704 0146 F369     		ldr	r3, [r6, #28]
 2705              	.LVL389:
 2706              	.LBB396:
 2707              	.LBI396:
 495:./CORE/core_cmInstr.h **** {
 2708              		.loc 2 495 57 is_stmt 1 view .LVU1055
 2709              	.LBB397:
 2710              		.loc 2 498 3 view .LVU1056
 2711              		.loc 2 498 10 is_stmt 0 view .LVU1057
 2712 0148 1BBA     		rev	r3, r3
 2713              	.LVL390:
 2714              		.loc 2 498 10 view .LVU1058
 2715              	.LBE397:
 2716              	.LBE396:
 730:./Library/stm32f4xx_cryp_aes.c ****     break;
 2717              		.loc 1 730 45 view .LVU1059
 2718 014a 1193     		str	r3, [sp, #68]
 731:./Library/stm32f4xx_cryp_aes.c ****     default:
