ARM GAS  /tmp/ccGY1Mdk.s 			page 1


   1              		.cpu cortex-m4
   2              		.arch armv7e-m
   3              		.fpu fpv4-sp-d16
   4              		.eabi_attribute 27, 1
   5              		.eabi_attribute 28, 1
   6              		.eabi_attribute 20, 1
   7              		.eabi_attribute 21, 1
   8              		.eabi_attribute 23, 3
   9              		.eabi_attribute 24, 1
  10              		.eabi_attribute 25, 1
  11              		.eabi_attribute 26, 1
  12              		.eabi_attribute 30, 1
  13              		.eabi_attribute 34, 1
  14              		.eabi_attribute 18, 4
  15              		.file	"stm32f4xx_rcc.c"
  16              		.text
  17              	.Ltext0:
  18              		.cfi_sections	.debug_frame
  19              		.file 1 "./Library/stm32f4xx_rcc.c"
  20              		.section	.text.RCC_DeInit,"ax",%progbits
  21              		.align	1
  22              		.global	RCC_DeInit
  23              		.syntax unified
  24              		.thumb
  25              		.thumb_func
  27              	RCC_DeInit:
  28              	.LFB123:
   1:./Library/stm32f4xx_rcc.c **** /**
   2:./Library/stm32f4xx_rcc.c ****   ******************************************************************************
   3:./Library/stm32f4xx_rcc.c ****   * @file    stm32f4xx_rcc.c
   4:./Library/stm32f4xx_rcc.c ****   * @author  MCD Application Team
   5:./Library/stm32f4xx_rcc.c ****   * @version V1.8.1
   6:./Library/stm32f4xx_rcc.c ****   * @date    27-January-2022
   7:./Library/stm32f4xx_rcc.c ****   * @brief   This file provides firmware functions to manage the following 
   8:./Library/stm32f4xx_rcc.c ****   *          functionalities of the Reset and clock control (RCC) peripheral:
   9:./Library/stm32f4xx_rcc.c ****   *           + Internal/external clocks, PLL, CSS and MCO configuration
  10:./Library/stm32f4xx_rcc.c ****   *           + System, AHB and APB busses clocks configuration
  11:./Library/stm32f4xx_rcc.c ****   *           + Peripheral clocks configuration
  12:./Library/stm32f4xx_rcc.c ****   *           + Interrupts and flags management
  13:./Library/stm32f4xx_rcc.c ****   *
  14:./Library/stm32f4xx_rcc.c ****  @verbatim
  15:./Library/stm32f4xx_rcc.c ****  ===============================================================================
  16:./Library/stm32f4xx_rcc.c ****                       ##### RCC specific features #####
  17:./Library/stm32f4xx_rcc.c ****  ===============================================================================
  18:./Library/stm32f4xx_rcc.c ****     [..]  
  19:./Library/stm32f4xx_rcc.c ****       After reset the device is running from Internal High Speed oscillator 
  20:./Library/stm32f4xx_rcc.c ****       (HSI 16MHz) with Flash 0 wait state, Flash prefetch buffer, D-Cache 
  21:./Library/stm32f4xx_rcc.c ****       and I-Cache are disabled, and all peripherals are off except internal
  22:./Library/stm32f4xx_rcc.c ****       SRAM, Flash and JTAG.
  23:./Library/stm32f4xx_rcc.c ****       (+) There is no prescaler on High speed (AHB) and Low speed (APB) busses;
  24:./Library/stm32f4xx_rcc.c ****           all peripherals mapped on these busses are running at HSI speed.
  25:./Library/stm32f4xx_rcc.c ****       (+) The clock for all peripherals is switched off, except the SRAM and FLASH.
  26:./Library/stm32f4xx_rcc.c ****       (+) All GPIOs are in input floating state, except the JTAG pins which
  27:./Library/stm32f4xx_rcc.c ****           are assigned to be used for debug purpose.
  28:./Library/stm32f4xx_rcc.c ****     [..]          
  29:./Library/stm32f4xx_rcc.c ****       Once the device started from reset, the user application has to:
  30:./Library/stm32f4xx_rcc.c ****       (+) Configure the clock source to be used to drive the System clock
ARM GAS  /tmp/ccGY1Mdk.s 			page 2


  31:./Library/stm32f4xx_rcc.c ****           (if the application needs higher frequency/performance)
  32:./Library/stm32f4xx_rcc.c ****       (+) Configure the System clock frequency and Flash settings  
  33:./Library/stm32f4xx_rcc.c ****       (+) Configure the AHB and APB busses prescalers
  34:./Library/stm32f4xx_rcc.c ****       (+) Enable the clock for the peripheral(s) to be used
  35:./Library/stm32f4xx_rcc.c ****       (+) Configure the clock source(s) for peripherals which clocks are not
  36:./Library/stm32f4xx_rcc.c ****           derived from the System clock (I2S, RTC, ADC, USB OTG FS/SDIO/RNG)
  37:./Library/stm32f4xx_rcc.c ****  @endverbatim    
  38:./Library/stm32f4xx_rcc.c ****   ******************************************************************************
  39:./Library/stm32f4xx_rcc.c ****   * @attention
  40:./Library/stm32f4xx_rcc.c ****   *
  41:./Library/stm32f4xx_rcc.c ****   * Copyright (c) 2016 STMicroelectronics.
  42:./Library/stm32f4xx_rcc.c ****   * All rights reserved.
  43:./Library/stm32f4xx_rcc.c ****   *
  44:./Library/stm32f4xx_rcc.c ****   * This software is licensed under terms that can be found in the LICENSE file
  45:./Library/stm32f4xx_rcc.c ****   * in the root directory of this software component.
  46:./Library/stm32f4xx_rcc.c ****   * If no LICENSE file comes with this software, it is provided AS-IS.
  47:./Library/stm32f4xx_rcc.c ****   *
  48:./Library/stm32f4xx_rcc.c ****   ******************************************************************************
  49:./Library/stm32f4xx_rcc.c ****   */
  50:./Library/stm32f4xx_rcc.c **** 
  51:./Library/stm32f4xx_rcc.c **** /* Includes ------------------------------------------------------------------*/
  52:./Library/stm32f4xx_rcc.c **** #include "stm32f4xx_rcc.h"
  53:./Library/stm32f4xx_rcc.c **** 
  54:./Library/stm32f4xx_rcc.c **** /** @addtogroup STM32F4xx_StdPeriph_Driver
  55:./Library/stm32f4xx_rcc.c ****   * @{
  56:./Library/stm32f4xx_rcc.c ****   */
  57:./Library/stm32f4xx_rcc.c **** 
  58:./Library/stm32f4xx_rcc.c **** /** @defgroup RCC 
  59:./Library/stm32f4xx_rcc.c ****   * @brief RCC driver modules
  60:./Library/stm32f4xx_rcc.c ****   * @{
  61:./Library/stm32f4xx_rcc.c ****   */ 
  62:./Library/stm32f4xx_rcc.c **** 
  63:./Library/stm32f4xx_rcc.c **** /* Private typedef -----------------------------------------------------------*/
  64:./Library/stm32f4xx_rcc.c **** /* Private define ------------------------------------------------------------*/
  65:./Library/stm32f4xx_rcc.c **** /* ------------ RCC registers bit address in the alias region ----------- */
  66:./Library/stm32f4xx_rcc.c **** #define RCC_OFFSET                (RCC_BASE - PERIPH_BASE)
  67:./Library/stm32f4xx_rcc.c **** /* --- CR Register ---*/
  68:./Library/stm32f4xx_rcc.c **** /* Alias word address of HSION bit */
  69:./Library/stm32f4xx_rcc.c **** #define CR_OFFSET                 (RCC_OFFSET + 0x00)
  70:./Library/stm32f4xx_rcc.c **** #define HSION_BitNumber           0x00
  71:./Library/stm32f4xx_rcc.c **** #define CR_HSION_BB               (PERIPH_BB_BASE + (CR_OFFSET * 32) + (HSION_BitNumber * 4))
  72:./Library/stm32f4xx_rcc.c **** /* Alias word address of CSSON bit */
  73:./Library/stm32f4xx_rcc.c **** #define CSSON_BitNumber           0x13
  74:./Library/stm32f4xx_rcc.c **** #define CR_CSSON_BB               (PERIPH_BB_BASE + (CR_OFFSET * 32) + (CSSON_BitNumber * 4))
  75:./Library/stm32f4xx_rcc.c **** /* Alias word address of PLLON bit */
  76:./Library/stm32f4xx_rcc.c **** #define PLLON_BitNumber           0x18
  77:./Library/stm32f4xx_rcc.c **** #define CR_PLLON_BB               (PERIPH_BB_BASE + (CR_OFFSET * 32) + (PLLON_BitNumber * 4))
  78:./Library/stm32f4xx_rcc.c **** /* Alias word address of PLLI2SON bit */
  79:./Library/stm32f4xx_rcc.c **** #define PLLI2SON_BitNumber        0x1A
  80:./Library/stm32f4xx_rcc.c **** #define CR_PLLI2SON_BB            (PERIPH_BB_BASE + (CR_OFFSET * 32) + (PLLI2SON_BitNumber * 4))
  81:./Library/stm32f4xx_rcc.c **** 
  82:./Library/stm32f4xx_rcc.c **** /* Alias word address of PLLSAION bit */
  83:./Library/stm32f4xx_rcc.c **** #define PLLSAION_BitNumber        0x1C
  84:./Library/stm32f4xx_rcc.c **** #define CR_PLLSAION_BB            (PERIPH_BB_BASE + (CR_OFFSET * 32) + (PLLSAION_BitNumber * 4))
  85:./Library/stm32f4xx_rcc.c **** 
  86:./Library/stm32f4xx_rcc.c **** /* --- CFGR Register ---*/
  87:./Library/stm32f4xx_rcc.c **** /* Alias word address of I2SSRC bit */
ARM GAS  /tmp/ccGY1Mdk.s 			page 3


  88:./Library/stm32f4xx_rcc.c **** #define CFGR_OFFSET               (RCC_OFFSET + 0x08)
  89:./Library/stm32f4xx_rcc.c **** #define I2SSRC_BitNumber          0x17
  90:./Library/stm32f4xx_rcc.c **** #define CFGR_I2SSRC_BB            (PERIPH_BB_BASE + (CFGR_OFFSET * 32) + (I2SSRC_BitNumber * 4))
  91:./Library/stm32f4xx_rcc.c **** 
  92:./Library/stm32f4xx_rcc.c **** /* --- BDCR Register ---*/
  93:./Library/stm32f4xx_rcc.c **** /* Alias word address of RTCEN bit */
  94:./Library/stm32f4xx_rcc.c **** #define BDCR_OFFSET               (RCC_OFFSET + 0x70)
  95:./Library/stm32f4xx_rcc.c **** #define RTCEN_BitNumber           0x0F
  96:./Library/stm32f4xx_rcc.c **** #define BDCR_RTCEN_BB             (PERIPH_BB_BASE + (BDCR_OFFSET * 32) + (RTCEN_BitNumber * 4))
  97:./Library/stm32f4xx_rcc.c **** /* Alias word address of BDRST bit */
  98:./Library/stm32f4xx_rcc.c **** #define BDRST_BitNumber           0x10
  99:./Library/stm32f4xx_rcc.c **** #define BDCR_BDRST_BB             (PERIPH_BB_BASE + (BDCR_OFFSET * 32) + (BDRST_BitNumber * 4))
 100:./Library/stm32f4xx_rcc.c **** 
 101:./Library/stm32f4xx_rcc.c **** /* --- CSR Register ---*/
 102:./Library/stm32f4xx_rcc.c **** /* Alias word address of LSION bit */
 103:./Library/stm32f4xx_rcc.c **** #define CSR_OFFSET                (RCC_OFFSET + 0x74)
 104:./Library/stm32f4xx_rcc.c **** #define LSION_BitNumber           0x00
 105:./Library/stm32f4xx_rcc.c **** #define CSR_LSION_BB              (PERIPH_BB_BASE + (CSR_OFFSET * 32) + (LSION_BitNumber * 4))
 106:./Library/stm32f4xx_rcc.c **** 
 107:./Library/stm32f4xx_rcc.c **** /* --- DCKCFGR Register ---*/
 108:./Library/stm32f4xx_rcc.c **** /* Alias word address of TIMPRE bit */
 109:./Library/stm32f4xx_rcc.c **** #define DCKCFGR_OFFSET            (RCC_OFFSET + 0x8C)
 110:./Library/stm32f4xx_rcc.c **** #define TIMPRE_BitNumber          0x18
 111:./Library/stm32f4xx_rcc.c **** #define DCKCFGR_TIMPRE_BB         (PERIPH_BB_BASE + (DCKCFGR_OFFSET * 32) + (TIMPRE_BitNumber * 4))
 112:./Library/stm32f4xx_rcc.c ****     
 113:./Library/stm32f4xx_rcc.c **** /* --- CFGR Register ---*/
 114:./Library/stm32f4xx_rcc.c **** #define RCC_CFGR_OFFSET            (RCC_OFFSET + 0x08)
 115:./Library/stm32f4xx_rcc.c ****  #if defined(STM32F410xx)
 116:./Library/stm32f4xx_rcc.c **** /* Alias word address of MCO1EN bit */
 117:./Library/stm32f4xx_rcc.c **** #define RCC_MCO1EN_BIT_NUMBER      0x8
 118:./Library/stm32f4xx_rcc.c **** #define RCC_CFGR_MCO1EN_BB         (PERIPH_BB_BASE + (RCC_CFGR_OFFSET * 32) + (RCC_MCO1EN_BIT_NUMBE
 119:./Library/stm32f4xx_rcc.c **** 
 120:./Library/stm32f4xx_rcc.c **** /* Alias word address of MCO2EN bit */
 121:./Library/stm32f4xx_rcc.c **** #define RCC_MCO2EN_BIT_NUMBER      0x9
 122:./Library/stm32f4xx_rcc.c **** #define RCC_CFGR_MCO2EN_BB         (PERIPH_BB_BASE + (RCC_CFGR_OFFSET * 32) + (RCC_MCO2EN_BIT_NUMBE
 123:./Library/stm32f4xx_rcc.c **** #endif /* STM32F410xx */
 124:./Library/stm32f4xx_rcc.c **** /* ---------------------- RCC registers bit mask ------------------------ */
 125:./Library/stm32f4xx_rcc.c **** /* CFGR register bit mask */
 126:./Library/stm32f4xx_rcc.c **** #define CFGR_MCO2_RESET_MASK      ((uint32_t)0x07FFFFFF)
 127:./Library/stm32f4xx_rcc.c **** #define CFGR_MCO1_RESET_MASK      ((uint32_t)0xF89FFFFF)
 128:./Library/stm32f4xx_rcc.c **** 
 129:./Library/stm32f4xx_rcc.c **** /* RCC Flag Mask */
 130:./Library/stm32f4xx_rcc.c **** #define FLAG_MASK                 ((uint8_t)0x1F)
 131:./Library/stm32f4xx_rcc.c **** 
 132:./Library/stm32f4xx_rcc.c **** /* CR register byte 3 (Bits[23:16]) base address */
 133:./Library/stm32f4xx_rcc.c **** #define CR_BYTE3_ADDRESS          ((uint32_t)0x40023802)
 134:./Library/stm32f4xx_rcc.c **** 
 135:./Library/stm32f4xx_rcc.c **** /* CIR register byte 2 (Bits[15:8]) base address */
 136:./Library/stm32f4xx_rcc.c **** #define CIR_BYTE2_ADDRESS         ((uint32_t)(RCC_BASE + 0x0C + 0x01))
 137:./Library/stm32f4xx_rcc.c **** 
 138:./Library/stm32f4xx_rcc.c **** /* CIR register byte 3 (Bits[23:16]) base address */
 139:./Library/stm32f4xx_rcc.c **** #define CIR_BYTE3_ADDRESS         ((uint32_t)(RCC_BASE + 0x0C + 0x02))
 140:./Library/stm32f4xx_rcc.c **** 
 141:./Library/stm32f4xx_rcc.c **** /* BDCR register base address */
 142:./Library/stm32f4xx_rcc.c **** #define BDCR_ADDRESS              (PERIPH_BASE + BDCR_OFFSET)
 143:./Library/stm32f4xx_rcc.c **** 
 144:./Library/stm32f4xx_rcc.c **** /* Private macro -------------------------------------------------------------*/
ARM GAS  /tmp/ccGY1Mdk.s 			page 4


 145:./Library/stm32f4xx_rcc.c **** /* Private variables ---------------------------------------------------------*/
 146:./Library/stm32f4xx_rcc.c **** static __I uint8_t APBAHBPrescTable[16] = {0, 0, 0, 0, 1, 2, 3, 4, 1, 2, 3, 4, 6, 7, 8, 9};
 147:./Library/stm32f4xx_rcc.c **** 
 148:./Library/stm32f4xx_rcc.c **** /* Private function prototypes -----------------------------------------------*/
 149:./Library/stm32f4xx_rcc.c **** /* Private functions ---------------------------------------------------------*/
 150:./Library/stm32f4xx_rcc.c **** 
 151:./Library/stm32f4xx_rcc.c **** /** @defgroup RCC_Private_Functions
 152:./Library/stm32f4xx_rcc.c ****   * @{
 153:./Library/stm32f4xx_rcc.c ****   */ 
 154:./Library/stm32f4xx_rcc.c **** 
 155:./Library/stm32f4xx_rcc.c **** /** @defgroup RCC_Group1 Internal and external clocks, PLL, CSS and MCO configuration functions
 156:./Library/stm32f4xx_rcc.c ****  *  @brief   Internal and external clocks, PLL, CSS and MCO configuration functions 
 157:./Library/stm32f4xx_rcc.c ****  *
 158:./Library/stm32f4xx_rcc.c **** @verbatim   
 159:./Library/stm32f4xx_rcc.c ****  ===================================================================================
 160:./Library/stm32f4xx_rcc.c ****  ##### Internal and  external clocks, PLL, CSS and MCO configuration functions #####
 161:./Library/stm32f4xx_rcc.c ****  ===================================================================================
 162:./Library/stm32f4xx_rcc.c ****     [..]
 163:./Library/stm32f4xx_rcc.c ****       This section provide functions allowing to configure the internal/external clocks,
 164:./Library/stm32f4xx_rcc.c ****       PLLs, CSS and MCO pins.
 165:./Library/stm32f4xx_rcc.c ****   
 166:./Library/stm32f4xx_rcc.c ****       (#) HSI (high-speed internal), 16 MHz factory-trimmed RC used directly or through
 167:./Library/stm32f4xx_rcc.c ****           the PLL as System clock source.
 168:./Library/stm32f4xx_rcc.c **** 
 169:./Library/stm32f4xx_rcc.c ****       (#) LSI (low-speed internal), 32 KHz low consumption RC used as IWDG and/or RTC
 170:./Library/stm32f4xx_rcc.c ****           clock source.
 171:./Library/stm32f4xx_rcc.c **** 
 172:./Library/stm32f4xx_rcc.c ****       (#) HSE (high-speed external), 4 to 26 MHz crystal oscillator used directly or
 173:./Library/stm32f4xx_rcc.c ****           through the PLL as System clock source. Can be used also as RTC clock source.
 174:./Library/stm32f4xx_rcc.c **** 
 175:./Library/stm32f4xx_rcc.c ****       (#) LSE (low-speed external), 32 KHz oscillator used as RTC clock source.   
 176:./Library/stm32f4xx_rcc.c **** 
 177:./Library/stm32f4xx_rcc.c ****       (#) PLL (clocked by HSI or HSE), featuring two different output clocks:
 178:./Library/stm32f4xx_rcc.c ****         (++) The first output is used to generate the high speed system clock (up to 168 MHz)
 179:./Library/stm32f4xx_rcc.c ****         (++) The second output is used to generate the clock for the USB OTG FS (48 MHz),
 180:./Library/stm32f4xx_rcc.c ****              the random analog generator (<=48 MHz) and the SDIO (<= 48 MHz).
 181:./Library/stm32f4xx_rcc.c **** 
 182:./Library/stm32f4xx_rcc.c ****       (#) PLLI2S (clocked by HSI or HSE), used to generate an accurate clock to achieve 
 183:./Library/stm32f4xx_rcc.c ****           high-quality audio performance on the I2S interface or SAI interface in case 
 184:./Library/stm32f4xx_rcc.c ****           of STM32F429x/439x devices.
 185:./Library/stm32f4xx_rcc.c ****      
 186:./Library/stm32f4xx_rcc.c ****       (#) PLLSAI clocked by (HSI or HSE), used to generate an accurate clock to SAI 
 187:./Library/stm32f4xx_rcc.c ****           interface and LCD TFT controller available only for STM32F42xxx/43xxx/446xx/469xx/479xx d
 188:./Library/stm32f4xx_rcc.c ****   
 189:./Library/stm32f4xx_rcc.c ****       (#) CSS (Clock security system), once enable and if a HSE clock failure occurs 
 190:./Library/stm32f4xx_rcc.c ****          (HSE used directly or through PLL as System clock source), the System clock
 191:./Library/stm32f4xx_rcc.c ****          is automatically switched to HSI and an interrupt is generated if enabled. 
 192:./Library/stm32f4xx_rcc.c ****          The interrupt is linked to the Cortex-M4 NMI (Non-Maskable Interrupt) 
 193:./Library/stm32f4xx_rcc.c ****          exception vector.   
 194:./Library/stm32f4xx_rcc.c **** 
 195:./Library/stm32f4xx_rcc.c ****       (#) MCO1 (microcontroller clock output), used to output HSI, LSE, HSE or PLL
 196:./Library/stm32f4xx_rcc.c ****           clock (through a configurable prescaler) on PA8 pin.
 197:./Library/stm32f4xx_rcc.c **** 
 198:./Library/stm32f4xx_rcc.c ****       (#) MCO2 (microcontroller clock output), used to output HSE, PLL, SYSCLK or PLLI2S
 199:./Library/stm32f4xx_rcc.c ****           clock (through a configurable prescaler) on PC9 pin.
 200:./Library/stm32f4xx_rcc.c ****  @endverbatim
 201:./Library/stm32f4xx_rcc.c ****   * @{
ARM GAS  /tmp/ccGY1Mdk.s 			page 5


 202:./Library/stm32f4xx_rcc.c ****   */
 203:./Library/stm32f4xx_rcc.c **** 
 204:./Library/stm32f4xx_rcc.c **** /**
 205:./Library/stm32f4xx_rcc.c ****   * @brief  Resets the RCC clock configuration to the default reset state.
 206:./Library/stm32f4xx_rcc.c ****   * @note   The default reset state of the clock configuration is given below:
 207:./Library/stm32f4xx_rcc.c ****   *            - HSI ON and used as system clock source
 208:./Library/stm32f4xx_rcc.c ****   *            - HSE, PLL and PLLI2S OFF
 209:./Library/stm32f4xx_rcc.c ****   *            - AHB, APB1 and APB2 prescaler set to 1.
 210:./Library/stm32f4xx_rcc.c ****   *            - CSS, MCO1 and MCO2 OFF
 211:./Library/stm32f4xx_rcc.c ****   *            - All interrupts disabled
 212:./Library/stm32f4xx_rcc.c ****   * @note   This function doesn't modify the configuration of the
 213:./Library/stm32f4xx_rcc.c ****   *            - Peripheral clocks  
 214:./Library/stm32f4xx_rcc.c ****   *            - LSI, LSE and RTC clocks 
 215:./Library/stm32f4xx_rcc.c ****   * @param  None
 216:./Library/stm32f4xx_rcc.c ****   * @retval None
 217:./Library/stm32f4xx_rcc.c ****   */
 218:./Library/stm32f4xx_rcc.c **** void RCC_DeInit(void)
 219:./Library/stm32f4xx_rcc.c **** {
  29              		.loc 1 219 1 view -0
  30              		.cfi_startproc
  31              		@ args = 0, pretend = 0, frame = 0
  32              		@ frame_needed = 0, uses_anonymous_args = 0
  33              		@ link register save eliminated.
 220:./Library/stm32f4xx_rcc.c ****   /* Set HSION bit */
 221:./Library/stm32f4xx_rcc.c ****   RCC->CR |= (uint32_t)0x00000001;
  34              		.loc 1 221 3 view .LVU1
  35              		.loc 1 221 6 is_stmt 0 view .LVU2
  36 0000 0C4B     		ldr	r3, .L2
  37 0002 1A68     		ldr	r2, [r3]
  38              		.loc 1 221 11 view .LVU3
  39 0004 42F00102 		orr	r2, r2, #1
  40 0008 1A60     		str	r2, [r3]
 222:./Library/stm32f4xx_rcc.c **** 
 223:./Library/stm32f4xx_rcc.c ****   /* Reset CFGR register */
 224:./Library/stm32f4xx_rcc.c ****   RCC->CFGR = 0x00000000;
  41              		.loc 1 224 3 is_stmt 1 view .LVU4
  42              		.loc 1 224 13 is_stmt 0 view .LVU5
  43 000a 0021     		movs	r1, #0
  44 000c 9960     		str	r1, [r3, #8]
 225:./Library/stm32f4xx_rcc.c **** 
 226:./Library/stm32f4xx_rcc.c ****   /* Reset HSEON, CSSON, PLLON, PLLI2S and PLLSAI(STM32F42xxx/43xxx/446xx/469xx/479xx devices) bits
 227:./Library/stm32f4xx_rcc.c ****   RCC->CR &= (uint32_t)0xEAF6FFFF;
  45              		.loc 1 227 3 is_stmt 1 view .LVU6
  46              		.loc 1 227 6 is_stmt 0 view .LVU7
  47 000e 1A68     		ldr	r2, [r3]
  48              		.loc 1 227 11 view .LVU8
  49 0010 22F0A852 		bic	r2, r2, #352321536
  50 0014 22F41022 		bic	r2, r2, #589824
  51 0018 1A60     		str	r2, [r3]
 228:./Library/stm32f4xx_rcc.c ****   
 229:./Library/stm32f4xx_rcc.c ****   /* Reset PLLCFGR register */
 230:./Library/stm32f4xx_rcc.c ****   RCC->PLLCFGR = 0x24003010;
  52              		.loc 1 230 3 is_stmt 1 view .LVU9
  53              		.loc 1 230 16 is_stmt 0 view .LVU10
  54 001a 074A     		ldr	r2, .L2+4
  55 001c 5A60     		str	r2, [r3, #4]
 231:./Library/stm32f4xx_rcc.c **** 
ARM GAS  /tmp/ccGY1Mdk.s 			page 6


 232:./Library/stm32f4xx_rcc.c **** #if defined(STM32F40_41xxx) || defined(STM32F427_437xx) || defined(STM32F429_439xx) || defined(STM3
 233:./Library/stm32f4xx_rcc.c ****   /* Reset PLLI2SCFGR register */
 234:./Library/stm32f4xx_rcc.c ****   RCC->PLLI2SCFGR = 0x20003000;
  56              		.loc 1 234 3 is_stmt 1 view .LVU11
  57              		.loc 1 234 19 is_stmt 0 view .LVU12
  58 001e 074A     		ldr	r2, .L2+8
  59 0020 C3F88420 		str	r2, [r3, #132]
 235:./Library/stm32f4xx_rcc.c **** #endif /* STM32F40_41xxx || STM32F427_437xx || STM32F429_439xx || STM32F401xx || STM32F411xE || STM
 236:./Library/stm32f4xx_rcc.c **** 
 237:./Library/stm32f4xx_rcc.c **** #if defined(STM32F40_41xxx) || defined(STM32F427_437xx) || defined(STM32F429_439xx) || defined(STM3
 238:./Library/stm32f4xx_rcc.c ****   /* Reset PLLSAICFGR register, only available for STM32F42xxx/43xxx/446xx/469xx/479xx devices */
 239:./Library/stm32f4xx_rcc.c ****   RCC->PLLSAICFGR = 0x24003000;
 240:./Library/stm32f4xx_rcc.c **** #endif /* STM32F40_41xxx || STM32F427_437xx || STM32F429_439xx || STM32F446xx || STM32F469_479xx */
 241:./Library/stm32f4xx_rcc.c ****   
 242:./Library/stm32f4xx_rcc.c ****   /* Reset HSEBYP bit */
 243:./Library/stm32f4xx_rcc.c ****   RCC->CR &= (uint32_t)0xFFFBFFFF;
  60              		.loc 1 243 3 is_stmt 1 view .LVU13
  61              		.loc 1 243 6 is_stmt 0 view .LVU14
  62 0024 1A68     		ldr	r2, [r3]
  63              		.loc 1 243 11 view .LVU15
  64 0026 22F48022 		bic	r2, r2, #262144
  65 002a 1A60     		str	r2, [r3]
 244:./Library/stm32f4xx_rcc.c **** 
 245:./Library/stm32f4xx_rcc.c ****   /* Disable all interrupts */
 246:./Library/stm32f4xx_rcc.c ****   RCC->CIR = 0x00000000;
  66              		.loc 1 246 3 is_stmt 1 view .LVU16
  67              		.loc 1 246 12 is_stmt 0 view .LVU17
  68 002c D960     		str	r1, [r3, #12]
 247:./Library/stm32f4xx_rcc.c **** 
 248:./Library/stm32f4xx_rcc.c ****   /* Disable Timers clock prescalers selection, only available for STM32F42/43xxx and STM32F413_423
 249:./Library/stm32f4xx_rcc.c ****   RCC->DCKCFGR = 0x00000000;
  69              		.loc 1 249 3 is_stmt 1 view .LVU18
  70              		.loc 1 249 16 is_stmt 0 view .LVU19
  71 002e C3F88C10 		str	r1, [r3, #140]
 250:./Library/stm32f4xx_rcc.c ****   
 251:./Library/stm32f4xx_rcc.c **** #if defined(STM32F410xx) || defined(STM32F413_423xx)
 252:./Library/stm32f4xx_rcc.c ****   /* Disable LPTIM and FMPI2C clock prescalers selection, only available for STM32F410xx and STM32F
 253:./Library/stm32f4xx_rcc.c ****   RCC->DCKCFGR2 = 0x00000000;
 254:./Library/stm32f4xx_rcc.c **** #endif /* STM32F410xx || STM32F413_423xx */  
 255:./Library/stm32f4xx_rcc.c **** }
  72              		.loc 1 255 1 view .LVU20
  73 0032 7047     		bx	lr
  74              	.L3:
  75              		.align	2
  76              	.L2:
  77 0034 00380240 		.word	1073887232
  78 0038 10300024 		.word	603992080
  79 003c 00300020 		.word	536883200
  80              		.cfi_endproc
  81              	.LFE123:
  83              		.section	.text.RCC_HSEConfig,"ax",%progbits
  84              		.align	1
  85              		.global	RCC_HSEConfig
  86              		.syntax unified
  87              		.thumb
  88              		.thumb_func
  90              	RCC_HSEConfig:
ARM GAS  /tmp/ccGY1Mdk.s 			page 7


  91              	.LVL0:
  92              	.LFB124:
 256:./Library/stm32f4xx_rcc.c **** 
 257:./Library/stm32f4xx_rcc.c **** /**
 258:./Library/stm32f4xx_rcc.c ****   * @brief  Configures the External High Speed oscillator (HSE).
 259:./Library/stm32f4xx_rcc.c ****   * @note   After enabling the HSE (RCC_HSE_ON or RCC_HSE_Bypass), the application
 260:./Library/stm32f4xx_rcc.c ****   *         software should wait on HSERDY flag to be set indicating that HSE clock
 261:./Library/stm32f4xx_rcc.c ****   *         is stable and can be used to clock the PLL and/or system clock.
 262:./Library/stm32f4xx_rcc.c ****   * @note   HSE state can not be changed if it is used directly or through the
 263:./Library/stm32f4xx_rcc.c ****   *         PLL as system clock. In this case, you have to select another source
 264:./Library/stm32f4xx_rcc.c ****   *         of the system clock then change the HSE state (ex. disable it).
 265:./Library/stm32f4xx_rcc.c ****   * @note   The HSE is stopped by hardware when entering STOP and STANDBY modes.  
 266:./Library/stm32f4xx_rcc.c ****   * @note   This function reset the CSSON bit, so if the Clock security system(CSS)
 267:./Library/stm32f4xx_rcc.c ****   *         was previously enabled you have to enable it again after calling this
 268:./Library/stm32f4xx_rcc.c ****   *         function.    
 269:./Library/stm32f4xx_rcc.c ****   * @param  RCC_HSE: specifies the new state of the HSE.
 270:./Library/stm32f4xx_rcc.c ****   *          This parameter can be one of the following values:
 271:./Library/stm32f4xx_rcc.c ****   *            @arg RCC_HSE_OFF: turn OFF the HSE oscillator, HSERDY flag goes low after
 272:./Library/stm32f4xx_rcc.c ****   *                              6 HSE oscillator clock cycles.
 273:./Library/stm32f4xx_rcc.c ****   *            @arg RCC_HSE_ON: turn ON the HSE oscillator
 274:./Library/stm32f4xx_rcc.c ****   *            @arg RCC_HSE_Bypass: HSE oscillator bypassed with external clock
 275:./Library/stm32f4xx_rcc.c ****   * @retval None
 276:./Library/stm32f4xx_rcc.c ****   */
 277:./Library/stm32f4xx_rcc.c **** void RCC_HSEConfig(uint8_t RCC_HSE)
 278:./Library/stm32f4xx_rcc.c **** {
  93              		.loc 1 278 1 is_stmt 1 view -0
  94              		.cfi_startproc
  95              		@ args = 0, pretend = 0, frame = 0
  96              		@ frame_needed = 0, uses_anonymous_args = 0
  97              		@ link register save eliminated.
 279:./Library/stm32f4xx_rcc.c ****   /* Check the parameters */
 280:./Library/stm32f4xx_rcc.c ****   assert_param(IS_RCC_HSE(RCC_HSE));
  98              		.loc 1 280 3 view .LVU22
 281:./Library/stm32f4xx_rcc.c **** 
 282:./Library/stm32f4xx_rcc.c ****   /* Reset HSEON and HSEBYP bits before configuring the HSE ------------------*/
 283:./Library/stm32f4xx_rcc.c ****   *(__IO uint8_t *) CR_BYTE3_ADDRESS = RCC_HSE_OFF;
  99              		.loc 1 283 3 view .LVU23
 100              		.loc 1 283 38 is_stmt 0 view .LVU24
 101 0000 024B     		ldr	r3, .L5
 102 0002 0022     		movs	r2, #0
 103 0004 9A70     		strb	r2, [r3, #2]
 284:./Library/stm32f4xx_rcc.c **** 
 285:./Library/stm32f4xx_rcc.c ****   /* Set the new HSE configuration -------------------------------------------*/
 286:./Library/stm32f4xx_rcc.c ****   *(__IO uint8_t *) CR_BYTE3_ADDRESS = RCC_HSE;
 104              		.loc 1 286 3 is_stmt 1 view .LVU25
 105              		.loc 1 286 38 is_stmt 0 view .LVU26
 106 0006 9870     		strb	r0, [r3, #2]
 287:./Library/stm32f4xx_rcc.c **** }
 107              		.loc 1 287 1 view .LVU27
 108 0008 7047     		bx	lr
 109              	.L6:
 110 000a 00BF     		.align	2
 111              	.L5:
 112 000c 00380240 		.word	1073887232
 113              		.cfi_endproc
 114              	.LFE124:
 116              		.section	.text.RCC_AdjustHSICalibrationValue,"ax",%progbits
ARM GAS  /tmp/ccGY1Mdk.s 			page 8


 117              		.align	1
 118              		.global	RCC_AdjustHSICalibrationValue
 119              		.syntax unified
 120              		.thumb
 121              		.thumb_func
 123              	RCC_AdjustHSICalibrationValue:
 124              	.LVL1:
 125              	.LFB126:
 288:./Library/stm32f4xx_rcc.c **** 
 289:./Library/stm32f4xx_rcc.c **** /**
 290:./Library/stm32f4xx_rcc.c ****   * @brief  Waits for HSE start-up.
 291:./Library/stm32f4xx_rcc.c ****   * @note   This functions waits on HSERDY flag to be set and return SUCCESS if 
 292:./Library/stm32f4xx_rcc.c ****   *         this flag is set, otherwise returns ERROR if the timeout is reached 
 293:./Library/stm32f4xx_rcc.c ****   *         and this flag is not set. The timeout value is defined by the constant
 294:./Library/stm32f4xx_rcc.c ****   *         HSE_STARTUP_TIMEOUT in stm32f4xx.h file. You can tailor it depending
 295:./Library/stm32f4xx_rcc.c ****   *         on the HSE crystal used in your application. 
 296:./Library/stm32f4xx_rcc.c ****   * @param  None
 297:./Library/stm32f4xx_rcc.c ****   * @retval An ErrorStatus enumeration value:
 298:./Library/stm32f4xx_rcc.c ****   *          - SUCCESS: HSE oscillator is stable and ready to use
 299:./Library/stm32f4xx_rcc.c ****   *          - ERROR: HSE oscillator not yet ready
 300:./Library/stm32f4xx_rcc.c ****   */
 301:./Library/stm32f4xx_rcc.c **** ErrorStatus RCC_WaitForHSEStartUp(void)
 302:./Library/stm32f4xx_rcc.c **** {
 303:./Library/stm32f4xx_rcc.c ****   __IO uint32_t startupcounter = 0;
 304:./Library/stm32f4xx_rcc.c ****   ErrorStatus status = ERROR;
 305:./Library/stm32f4xx_rcc.c ****   FlagStatus hsestatus = RESET;
 306:./Library/stm32f4xx_rcc.c ****   /* Wait till HSE is ready and if Time out is reached exit */
 307:./Library/stm32f4xx_rcc.c ****   do
 308:./Library/stm32f4xx_rcc.c ****   {
 309:./Library/stm32f4xx_rcc.c ****     hsestatus = RCC_GetFlagStatus(RCC_FLAG_HSERDY);
 310:./Library/stm32f4xx_rcc.c ****     startupcounter++;
 311:./Library/stm32f4xx_rcc.c ****   } while((startupcounter != HSE_STARTUP_TIMEOUT) && (hsestatus == RESET));
 312:./Library/stm32f4xx_rcc.c **** 
 313:./Library/stm32f4xx_rcc.c ****   if (RCC_GetFlagStatus(RCC_FLAG_HSERDY) != RESET)
 314:./Library/stm32f4xx_rcc.c ****   {
 315:./Library/stm32f4xx_rcc.c ****     status = SUCCESS;
 316:./Library/stm32f4xx_rcc.c ****   }
 317:./Library/stm32f4xx_rcc.c ****   else
 318:./Library/stm32f4xx_rcc.c ****   {
 319:./Library/stm32f4xx_rcc.c ****     status = ERROR;
 320:./Library/stm32f4xx_rcc.c ****   }
 321:./Library/stm32f4xx_rcc.c ****   return (status);
 322:./Library/stm32f4xx_rcc.c **** }
 323:./Library/stm32f4xx_rcc.c **** 
 324:./Library/stm32f4xx_rcc.c **** /**
 325:./Library/stm32f4xx_rcc.c ****   * @brief  Adjusts the Internal High Speed oscillator (HSI) calibration value.
 326:./Library/stm32f4xx_rcc.c ****   * @note   The calibration is used to compensate for the variations in voltage
 327:./Library/stm32f4xx_rcc.c ****   *         and temperature that influence the frequency of the internal HSI RC.
 328:./Library/stm32f4xx_rcc.c ****   * @param  HSICalibrationValue: specifies the calibration trimming value.
 329:./Library/stm32f4xx_rcc.c ****   *         This parameter must be a number between 0 and 0x1F.
 330:./Library/stm32f4xx_rcc.c ****   * @retval None
 331:./Library/stm32f4xx_rcc.c ****   */
 332:./Library/stm32f4xx_rcc.c **** void RCC_AdjustHSICalibrationValue(uint8_t HSICalibrationValue)
 333:./Library/stm32f4xx_rcc.c **** {
 126              		.loc 1 333 1 is_stmt 1 view -0
 127              		.cfi_startproc
 128              		@ args = 0, pretend = 0, frame = 0
ARM GAS  /tmp/ccGY1Mdk.s 			page 9


 129              		@ frame_needed = 0, uses_anonymous_args = 0
 130              		@ link register save eliminated.
 334:./Library/stm32f4xx_rcc.c ****   uint32_t tmpreg = 0;
 131              		.loc 1 334 3 view .LVU29
 335:./Library/stm32f4xx_rcc.c ****   /* Check the parameters */
 336:./Library/stm32f4xx_rcc.c ****   assert_param(IS_RCC_CALIBRATION_VALUE(HSICalibrationValue));
 132              		.loc 1 336 3 view .LVU30
 337:./Library/stm32f4xx_rcc.c **** 
 338:./Library/stm32f4xx_rcc.c ****   tmpreg = RCC->CR;
 133              		.loc 1 338 3 view .LVU31
 134              		.loc 1 338 10 is_stmt 0 view .LVU32
 135 0000 034A     		ldr	r2, .L8
 136 0002 1368     		ldr	r3, [r2]
 137              	.LVL2:
 339:./Library/stm32f4xx_rcc.c **** 
 340:./Library/stm32f4xx_rcc.c ****   /* Clear HSITRIM[4:0] bits */
 341:./Library/stm32f4xx_rcc.c ****   tmpreg &= ~RCC_CR_HSITRIM;
 138              		.loc 1 341 3 is_stmt 1 view .LVU33
 139              		.loc 1 341 10 is_stmt 0 view .LVU34
 140 0004 23F0F803 		bic	r3, r3, #248
 141              	.LVL3:
 342:./Library/stm32f4xx_rcc.c **** 
 343:./Library/stm32f4xx_rcc.c ****   /* Set the HSITRIM[4:0] bits according to HSICalibrationValue value */
 344:./Library/stm32f4xx_rcc.c ****   tmpreg |= (uint32_t)HSICalibrationValue << 3;
 142              		.loc 1 344 3 is_stmt 1 view .LVU35
 143              		.loc 1 344 10 is_stmt 0 view .LVU36
 144 0008 43EAC003 		orr	r3, r3, r0, lsl #3
 145              	.LVL4:
 345:./Library/stm32f4xx_rcc.c **** 
 346:./Library/stm32f4xx_rcc.c ****   /* Store the new value */
 347:./Library/stm32f4xx_rcc.c ****   RCC->CR = tmpreg;
 146              		.loc 1 347 3 is_stmt 1 view .LVU37
 147              		.loc 1 347 11 is_stmt 0 view .LVU38
 148 000c 1360     		str	r3, [r2]
 348:./Library/stm32f4xx_rcc.c **** }
 149              		.loc 1 348 1 view .LVU39
 150 000e 7047     		bx	lr
 151              	.L9:
 152              		.align	2
 153              	.L8:
 154 0010 00380240 		.word	1073887232
 155              		.cfi_endproc
 156              	.LFE126:
 158              		.section	.text.RCC_HSICmd,"ax",%progbits
 159              		.align	1
 160              		.global	RCC_HSICmd
 161              		.syntax unified
 162              		.thumb
 163              		.thumb_func
 165              	RCC_HSICmd:
 166              	.LVL5:
 167              	.LFB127:
 349:./Library/stm32f4xx_rcc.c **** 
 350:./Library/stm32f4xx_rcc.c **** /**
 351:./Library/stm32f4xx_rcc.c ****   * @brief  Enables or disables the Internal High Speed oscillator (HSI).
 352:./Library/stm32f4xx_rcc.c ****   * @note   The HSI is stopped by hardware when entering STOP and STANDBY modes.
 353:./Library/stm32f4xx_rcc.c ****   *         It is used (enabled by hardware) as system clock source after startup
ARM GAS  /tmp/ccGY1Mdk.s 			page 10


 354:./Library/stm32f4xx_rcc.c ****   *         from Reset, wakeup from STOP and STANDBY mode, or in case of failure
 355:./Library/stm32f4xx_rcc.c ****   *         of the HSE used directly or indirectly as system clock (if the Clock
 356:./Library/stm32f4xx_rcc.c ****   *         Security System CSS is enabled).             
 357:./Library/stm32f4xx_rcc.c ****   * @note   HSI can not be stopped if it is used as system clock source. In this case,
 358:./Library/stm32f4xx_rcc.c ****   *         you have to select another source of the system clock then stop the HSI.  
 359:./Library/stm32f4xx_rcc.c ****   * @note   After enabling the HSI, the application software should wait on HSIRDY
 360:./Library/stm32f4xx_rcc.c ****   *         flag to be set indicating that HSI clock is stable and can be used as
 361:./Library/stm32f4xx_rcc.c ****   *         system clock source.  
 362:./Library/stm32f4xx_rcc.c ****   * @param  NewState: new state of the HSI.
 363:./Library/stm32f4xx_rcc.c ****   *          This parameter can be: ENABLE or DISABLE.
 364:./Library/stm32f4xx_rcc.c ****   * @note   When the HSI is stopped, HSIRDY flag goes low after 6 HSI oscillator
 365:./Library/stm32f4xx_rcc.c ****   *         clock cycles.  
 366:./Library/stm32f4xx_rcc.c ****   * @retval None
 367:./Library/stm32f4xx_rcc.c ****   */
 368:./Library/stm32f4xx_rcc.c **** void RCC_HSICmd(FunctionalState NewState)
 369:./Library/stm32f4xx_rcc.c **** {
 168              		.loc 1 369 1 is_stmt 1 view -0
 169              		.cfi_startproc
 170              		@ args = 0, pretend = 0, frame = 0
 171              		@ frame_needed = 0, uses_anonymous_args = 0
 172              		@ link register save eliminated.
 370:./Library/stm32f4xx_rcc.c ****   /* Check the parameters */
 371:./Library/stm32f4xx_rcc.c ****   assert_param(IS_FUNCTIONAL_STATE(NewState));
 173              		.loc 1 371 3 view .LVU41
 372:./Library/stm32f4xx_rcc.c **** 
 373:./Library/stm32f4xx_rcc.c ****   *(__IO uint32_t *) CR_HSION_BB = (uint32_t)NewState;
 174              		.loc 1 373 3 view .LVU42
 175              		.loc 1 373 34 is_stmt 0 view .LVU43
 176 0000 014B     		ldr	r3, .L11
 177 0002 1860     		str	r0, [r3]
 374:./Library/stm32f4xx_rcc.c **** }
 178              		.loc 1 374 1 view .LVU44
 179 0004 7047     		bx	lr
 180              	.L12:
 181 0006 00BF     		.align	2
 182              	.L11:
 183 0008 00004742 		.word	1111949312
 184              		.cfi_endproc
 185              	.LFE127:
 187              		.section	.text.RCC_LSEConfig,"ax",%progbits
 188              		.align	1
 189              		.global	RCC_LSEConfig
 190              		.syntax unified
 191              		.thumb
 192              		.thumb_func
 194              	RCC_LSEConfig:
 195              	.LVL6:
 196              	.LFB128:
 375:./Library/stm32f4xx_rcc.c **** 
 376:./Library/stm32f4xx_rcc.c **** /**
 377:./Library/stm32f4xx_rcc.c ****   * @brief  Configures the External Low Speed oscillator (LSE).
 378:./Library/stm32f4xx_rcc.c ****   * @note   As the LSE is in the Backup domain and write access is denied to
 379:./Library/stm32f4xx_rcc.c ****   *         this domain after reset, you have to enable write access using 
 380:./Library/stm32f4xx_rcc.c ****   *         PWR_BackupAccessCmd(ENABLE) function before to configure the LSE
 381:./Library/stm32f4xx_rcc.c ****   *         (to be done once after reset).  
 382:./Library/stm32f4xx_rcc.c ****   * @note   After enabling the LSE (RCC_LSE_ON or RCC_LSE_Bypass), the application
 383:./Library/stm32f4xx_rcc.c ****   *         software should wait on LSERDY flag to be set indicating that LSE clock
ARM GAS  /tmp/ccGY1Mdk.s 			page 11


 384:./Library/stm32f4xx_rcc.c ****   *         is stable and can be used to clock the RTC.
 385:./Library/stm32f4xx_rcc.c ****   * @param  RCC_LSE: specifies the new state of the LSE.
 386:./Library/stm32f4xx_rcc.c ****   *          This parameter can be one of the following values:
 387:./Library/stm32f4xx_rcc.c ****   *            @arg RCC_LSE_OFF: turn OFF the LSE oscillator, LSERDY flag goes low after
 388:./Library/stm32f4xx_rcc.c ****   *                              6 LSE oscillator clock cycles.
 389:./Library/stm32f4xx_rcc.c ****   *            @arg RCC_LSE_ON: turn ON the LSE oscillator
 390:./Library/stm32f4xx_rcc.c ****   *            @arg RCC_LSE_Bypass: LSE oscillator bypassed with external clock
 391:./Library/stm32f4xx_rcc.c ****   * @retval None
 392:./Library/stm32f4xx_rcc.c ****   */
 393:./Library/stm32f4xx_rcc.c **** void RCC_LSEConfig(uint8_t RCC_LSE)
 394:./Library/stm32f4xx_rcc.c **** {
 197              		.loc 1 394 1 is_stmt 1 view -0
 198              		.cfi_startproc
 199              		@ args = 0, pretend = 0, frame = 0
 200              		@ frame_needed = 0, uses_anonymous_args = 0
 201              		@ link register save eliminated.
 395:./Library/stm32f4xx_rcc.c ****   /* Check the parameters */
 396:./Library/stm32f4xx_rcc.c ****   assert_param(IS_RCC_LSE(RCC_LSE));
 202              		.loc 1 396 3 view .LVU46
 397:./Library/stm32f4xx_rcc.c **** 
 398:./Library/stm32f4xx_rcc.c ****   /* Reset LSEON and LSEBYP bits before configuring the LSE ------------------*/
 399:./Library/stm32f4xx_rcc.c ****   /* Reset LSEON bit */
 400:./Library/stm32f4xx_rcc.c ****   *(__IO uint8_t *) BDCR_ADDRESS = RCC_LSE_OFF;
 203              		.loc 1 400 3 view .LVU47
 204              		.loc 1 400 34 is_stmt 0 view .LVU48
 205 0000 0A4B     		ldr	r3, .L17
 206 0002 0022     		movs	r2, #0
 207 0004 83F87020 		strb	r2, [r3, #112]
 401:./Library/stm32f4xx_rcc.c **** 
 402:./Library/stm32f4xx_rcc.c ****   /* Reset LSEBYP bit */
 403:./Library/stm32f4xx_rcc.c ****   *(__IO uint8_t *) BDCR_ADDRESS = RCC_LSE_OFF;
 208              		.loc 1 403 3 is_stmt 1 view .LVU49
 209              		.loc 1 403 34 is_stmt 0 view .LVU50
 210 0008 83F87020 		strb	r2, [r3, #112]
 404:./Library/stm32f4xx_rcc.c **** 
 405:./Library/stm32f4xx_rcc.c ****   /* Configure LSE (RCC_LSE_OFF is already covered by the code section above) */
 406:./Library/stm32f4xx_rcc.c ****   switch (RCC_LSE)
 211              		.loc 1 406 3 is_stmt 1 view .LVU51
 212 000c 0128     		cmp	r0, #1
 213 000e 02D0     		beq	.L14
 214 0010 0428     		cmp	r0, #4
 215 0012 05D0     		beq	.L15
 216 0014 7047     		bx	lr
 217              	.L14:
 407:./Library/stm32f4xx_rcc.c ****   {
 408:./Library/stm32f4xx_rcc.c ****     case RCC_LSE_ON:
 409:./Library/stm32f4xx_rcc.c ****       /* Set LSEON bit */
 410:./Library/stm32f4xx_rcc.c ****       *(__IO uint8_t *) BDCR_ADDRESS = RCC_LSE_ON;
 218              		.loc 1 410 7 view .LVU52
 219              		.loc 1 410 38 is_stmt 0 view .LVU53
 220 0016 054B     		ldr	r3, .L17
 221 0018 0122     		movs	r2, #1
 222 001a 83F87020 		strb	r2, [r3, #112]
 411:./Library/stm32f4xx_rcc.c ****       break;
 223              		.loc 1 411 7 is_stmt 1 view .LVU54
 224 001e 7047     		bx	lr
 225              	.L15:
ARM GAS  /tmp/ccGY1Mdk.s 			page 12


 412:./Library/stm32f4xx_rcc.c ****     case RCC_LSE_Bypass:
 413:./Library/stm32f4xx_rcc.c ****       /* Set LSEBYP and LSEON bits */
 414:./Library/stm32f4xx_rcc.c ****       *(__IO uint8_t *) BDCR_ADDRESS = RCC_LSE_Bypass | RCC_LSE_ON;
 226              		.loc 1 414 7 view .LVU55
 227              		.loc 1 414 38 is_stmt 0 view .LVU56
 228 0020 024B     		ldr	r3, .L17
 229 0022 0522     		movs	r2, #5
 230 0024 83F87020 		strb	r2, [r3, #112]
 415:./Library/stm32f4xx_rcc.c ****       break;
 231              		.loc 1 415 7 is_stmt 1 view .LVU57
 416:./Library/stm32f4xx_rcc.c ****     default:
 417:./Library/stm32f4xx_rcc.c ****       break;
 418:./Library/stm32f4xx_rcc.c ****   }
 419:./Library/stm32f4xx_rcc.c **** }
 232              		.loc 1 419 1 is_stmt 0 view .LVU58
 233 0028 7047     		bx	lr
 234              	.L18:
 235 002a 00BF     		.align	2
 236              	.L17:
 237 002c 00380240 		.word	1073887232
 238              		.cfi_endproc
 239              	.LFE128:
 241              		.section	.text.RCC_LSICmd,"ax",%progbits
 242              		.align	1
 243              		.global	RCC_LSICmd
 244              		.syntax unified
 245              		.thumb
 246              		.thumb_func
 248              	RCC_LSICmd:
 249              	.LVL7:
 250              	.LFB129:
 420:./Library/stm32f4xx_rcc.c **** 
 421:./Library/stm32f4xx_rcc.c **** /**
 422:./Library/stm32f4xx_rcc.c ****   * @brief  Enables or disables the Internal Low Speed oscillator (LSI).
 423:./Library/stm32f4xx_rcc.c ****   * @note   After enabling the LSI, the application software should wait on 
 424:./Library/stm32f4xx_rcc.c ****   *         LSIRDY flag to be set indicating that LSI clock is stable and can
 425:./Library/stm32f4xx_rcc.c ****   *         be used to clock the IWDG and/or the RTC.
 426:./Library/stm32f4xx_rcc.c ****   * @note   LSI can not be disabled if the IWDG is running.  
 427:./Library/stm32f4xx_rcc.c ****   * @param  NewState: new state of the LSI.
 428:./Library/stm32f4xx_rcc.c ****   *          This parameter can be: ENABLE or DISABLE.
 429:./Library/stm32f4xx_rcc.c ****   * @note   When the LSI is stopped, LSIRDY flag goes low after 6 LSI oscillator
 430:./Library/stm32f4xx_rcc.c ****   *         clock cycles. 
 431:./Library/stm32f4xx_rcc.c ****   * @retval None
 432:./Library/stm32f4xx_rcc.c ****   */
 433:./Library/stm32f4xx_rcc.c **** void RCC_LSICmd(FunctionalState NewState)
 434:./Library/stm32f4xx_rcc.c **** {
 251              		.loc 1 434 1 is_stmt 1 view -0
 252              		.cfi_startproc
 253              		@ args = 0, pretend = 0, frame = 0
 254              		@ frame_needed = 0, uses_anonymous_args = 0
 255              		@ link register save eliminated.
 435:./Library/stm32f4xx_rcc.c ****   /* Check the parameters */
 436:./Library/stm32f4xx_rcc.c ****   assert_param(IS_FUNCTIONAL_STATE(NewState));
 256              		.loc 1 436 3 view .LVU60
 437:./Library/stm32f4xx_rcc.c **** 
 438:./Library/stm32f4xx_rcc.c ****   *(__IO uint32_t *) CSR_LSION_BB = (uint32_t)NewState;
 257              		.loc 1 438 3 view .LVU61
ARM GAS  /tmp/ccGY1Mdk.s 			page 13


 258              		.loc 1 438 35 is_stmt 0 view .LVU62
 259 0000 014B     		ldr	r3, .L20
 260 0002 C3F8800E 		str	r0, [r3, #3712]
 439:./Library/stm32f4xx_rcc.c **** }
 261              		.loc 1 439 1 view .LVU63
 262 0006 7047     		bx	lr
 263              	.L21:
 264              		.align	2
 265              	.L20:
 266 0008 00004742 		.word	1111949312
 267              		.cfi_endproc
 268              	.LFE129:
 270              		.section	.text.RCC_PLLConfig,"ax",%progbits
 271              		.align	1
 272              		.global	RCC_PLLConfig
 273              		.syntax unified
 274              		.thumb
 275              		.thumb_func
 277              	RCC_PLLConfig:
 278              	.LVL8:
 279              	.LFB130:
 440:./Library/stm32f4xx_rcc.c **** 
 441:./Library/stm32f4xx_rcc.c **** #if defined(STM32F410xx) || defined(STM32F412xG) || defined(STM32F413_423xx) || defined(STM32F446xx
 442:./Library/stm32f4xx_rcc.c **** /**
 443:./Library/stm32f4xx_rcc.c ****   * @brief  Configures the main PLL clock source, multiplication and division factors.
 444:./Library/stm32f4xx_rcc.c ****   * @note   This function must be used only when the main PLL is disabled.
 445:./Library/stm32f4xx_rcc.c ****   *  
 446:./Library/stm32f4xx_rcc.c ****   * @param  RCC_PLLSource: specifies the PLL entry clock source.
 447:./Library/stm32f4xx_rcc.c ****   *          This parameter can be one of the following values:
 448:./Library/stm32f4xx_rcc.c ****   *            @arg RCC_PLLSource_HSI: HSI oscillator clock selected as PLL clock entry
 449:./Library/stm32f4xx_rcc.c ****   *            @arg RCC_PLLSource_HSE: HSE oscillator clock selected as PLL clock entry
 450:./Library/stm32f4xx_rcc.c ****   * @note   This clock source (RCC_PLLSource) is common for the main PLL and PLLI2S.  
 451:./Library/stm32f4xx_rcc.c ****   *  
 452:./Library/stm32f4xx_rcc.c ****   * @param  PLLM: specifies the division factor for PLL VCO input clock
 453:./Library/stm32f4xx_rcc.c ****   *          This parameter must be a number between 0 and 63.
 454:./Library/stm32f4xx_rcc.c ****   * @note   You have to set the PLLM parameter correctly to ensure that the VCO input
 455:./Library/stm32f4xx_rcc.c ****   *         frequency ranges from 1 to 2 MHz. It is recommended to select a frequency
 456:./Library/stm32f4xx_rcc.c ****   *         of 2 MHz to limit PLL jitter.
 457:./Library/stm32f4xx_rcc.c ****   *  
 458:./Library/stm32f4xx_rcc.c ****   * @param  PLLN: specifies the multiplication factor for PLL VCO output clock
 459:./Library/stm32f4xx_rcc.c ****   *          This parameter must be a number between 50 and 432.
 460:./Library/stm32f4xx_rcc.c ****   * @note   You have to set the PLLN parameter correctly to ensure that the VCO
 461:./Library/stm32f4xx_rcc.c ****   *         output frequency is between 100 and 432 MHz.
 462:./Library/stm32f4xx_rcc.c ****   *   
 463:./Library/stm32f4xx_rcc.c ****   * @param  PLLP: specifies the division factor for main system clock (SYSCLK)
 464:./Library/stm32f4xx_rcc.c ****   *          This parameter must be a number in the range {2, 4, 6, or 8}.
 465:./Library/stm32f4xx_rcc.c ****   * @note   You have to set the PLLP parameter correctly to not exceed 168 MHz on
 466:./Library/stm32f4xx_rcc.c ****   *         the System clock frequency.
 467:./Library/stm32f4xx_rcc.c ****   *  
 468:./Library/stm32f4xx_rcc.c ****   * @param  PLLQ: specifies the division factor for OTG FS, SDIO and RNG clocks
 469:./Library/stm32f4xx_rcc.c ****   *          This parameter must be a number between 4 and 15.
 470:./Library/stm32f4xx_rcc.c ****   *
 471:./Library/stm32f4xx_rcc.c ****   * @param  PLLR: specifies the division factor for I2S, SAI, SYSTEM, SPDIF in STM32F446xx devices
 472:./Library/stm32f4xx_rcc.c ****   *          This parameter must be a number between 2 and 7.
 473:./Library/stm32f4xx_rcc.c ****   *
 474:./Library/stm32f4xx_rcc.c ****   * @note   If the USB OTG FS is used in your application, you have to set the
 475:./Library/stm32f4xx_rcc.c ****   *         PLLQ parameter correctly to have 48 MHz clock for the USB. However,
ARM GAS  /tmp/ccGY1Mdk.s 			page 14


 476:./Library/stm32f4xx_rcc.c ****   *         the SDIO and RNG need a frequency lower than or equal to 48 MHz to work
 477:./Library/stm32f4xx_rcc.c ****   *         correctly.
 478:./Library/stm32f4xx_rcc.c ****   *   
 479:./Library/stm32f4xx_rcc.c ****   * @retval None
 480:./Library/stm32f4xx_rcc.c ****   */
 481:./Library/stm32f4xx_rcc.c **** void RCC_PLLConfig(uint32_t RCC_PLLSource, uint32_t PLLM, uint32_t PLLN, uint32_t PLLP, uint32_t PL
 482:./Library/stm32f4xx_rcc.c **** {
 483:./Library/stm32f4xx_rcc.c ****   /* Check the parameters */
 484:./Library/stm32f4xx_rcc.c ****   assert_param(IS_RCC_PLL_SOURCE(RCC_PLLSource));
 485:./Library/stm32f4xx_rcc.c ****   assert_param(IS_RCC_PLLM_VALUE(PLLM));
 486:./Library/stm32f4xx_rcc.c ****   assert_param(IS_RCC_PLLN_VALUE(PLLN));
 487:./Library/stm32f4xx_rcc.c ****   assert_param(IS_RCC_PLLP_VALUE(PLLP));
 488:./Library/stm32f4xx_rcc.c ****   assert_param(IS_RCC_PLLQ_VALUE(PLLQ));
 489:./Library/stm32f4xx_rcc.c ****   assert_param(IS_RCC_PLLR_VALUE(PLLR));
 490:./Library/stm32f4xx_rcc.c ****   
 491:./Library/stm32f4xx_rcc.c ****   RCC->PLLCFGR = PLLM | (PLLN << 6) | (((PLLP >> 1) -1) << 16) | (RCC_PLLSource) |
 492:./Library/stm32f4xx_rcc.c ****                  (PLLQ << 24) | (PLLR << 28);
 493:./Library/stm32f4xx_rcc.c **** }
 494:./Library/stm32f4xx_rcc.c **** #endif /* STM32F410xx || STM32F412xG || STM32F413_423xx || STM32F446xx || STM32F469_479xx */
 495:./Library/stm32f4xx_rcc.c **** 
 496:./Library/stm32f4xx_rcc.c **** #if defined(STM32F40_41xxx) || defined(STM32F427_437xx) || defined(STM32F429_439xx) || defined(STM3
 497:./Library/stm32f4xx_rcc.c **** /**
 498:./Library/stm32f4xx_rcc.c ****   * @brief  Configures the main PLL clock source, multiplication and division factors.
 499:./Library/stm32f4xx_rcc.c ****   * @note   This function must be used only when the main PLL is disabled.
 500:./Library/stm32f4xx_rcc.c ****   *  
 501:./Library/stm32f4xx_rcc.c ****   * @param  RCC_PLLSource: specifies the PLL entry clock source.
 502:./Library/stm32f4xx_rcc.c ****   *          This parameter can be one of the following values:
 503:./Library/stm32f4xx_rcc.c ****   *            @arg RCC_PLLSource_HSI: HSI oscillator clock selected as PLL clock entry
 504:./Library/stm32f4xx_rcc.c ****   *            @arg RCC_PLLSource_HSE: HSE oscillator clock selected as PLL clock entry
 505:./Library/stm32f4xx_rcc.c ****   * @note   This clock source (RCC_PLLSource) is common for the main PLL and PLLI2S.  
 506:./Library/stm32f4xx_rcc.c ****   *  
 507:./Library/stm32f4xx_rcc.c ****   * @param  PLLM: specifies the division factor for PLL VCO input clock
 508:./Library/stm32f4xx_rcc.c ****   *          This parameter must be a number between 0 and 63.
 509:./Library/stm32f4xx_rcc.c ****   * @note   You have to set the PLLM parameter correctly to ensure that the VCO input
 510:./Library/stm32f4xx_rcc.c ****   *         frequency ranges from 1 to 2 MHz. It is recommended to select a frequency
 511:./Library/stm32f4xx_rcc.c ****   *         of 2 MHz to limit PLL jitter.
 512:./Library/stm32f4xx_rcc.c ****   *  
 513:./Library/stm32f4xx_rcc.c ****   * @param  PLLN: specifies the multiplication factor for PLL VCO output clock
 514:./Library/stm32f4xx_rcc.c ****   *          This parameter must be a number between 50 and 432.
 515:./Library/stm32f4xx_rcc.c ****   * @note   You have to set the PLLN parameter correctly to ensure that the VCO
 516:./Library/stm32f4xx_rcc.c ****   *         output frequency is between 100 and 432 MHz.
 517:./Library/stm32f4xx_rcc.c ****   *   
 518:./Library/stm32f4xx_rcc.c ****   * @param  PLLP: specifies the division factor for main system clock (SYSCLK)
 519:./Library/stm32f4xx_rcc.c ****   *          This parameter must be a number in the range {2, 4, 6, or 8}.
 520:./Library/stm32f4xx_rcc.c ****   * @note   You have to set the PLLP parameter correctly to not exceed 168 MHz on
 521:./Library/stm32f4xx_rcc.c ****   *         the System clock frequency.
 522:./Library/stm32f4xx_rcc.c ****   *  
 523:./Library/stm32f4xx_rcc.c ****   * @param  PLLQ: specifies the division factor for OTG FS, SDIO and RNG clocks
 524:./Library/stm32f4xx_rcc.c ****   *          This parameter must be a number between 4 and 15.
 525:./Library/stm32f4xx_rcc.c ****   * @note   If the USB OTG FS is used in your application, you have to set the
 526:./Library/stm32f4xx_rcc.c ****   *         PLLQ parameter correctly to have 48 MHz clock for the USB. However,
 527:./Library/stm32f4xx_rcc.c ****   *         the SDIO and RNG need a frequency lower than or equal to 48 MHz to work
 528:./Library/stm32f4xx_rcc.c ****   *         correctly.
 529:./Library/stm32f4xx_rcc.c ****   *   
 530:./Library/stm32f4xx_rcc.c ****   * @retval None
 531:./Library/stm32f4xx_rcc.c ****   */
 532:./Library/stm32f4xx_rcc.c **** void RCC_PLLConfig(uint32_t RCC_PLLSource, uint32_t PLLM, uint32_t PLLN, uint32_t PLLP, uint32_t PL
ARM GAS  /tmp/ccGY1Mdk.s 			page 15


 533:./Library/stm32f4xx_rcc.c **** {
 280              		.loc 1 533 1 is_stmt 1 view -0
 281              		.cfi_startproc
 282              		@ args = 4, pretend = 0, frame = 0
 283              		@ frame_needed = 0, uses_anonymous_args = 0
 284              		@ link register save eliminated.
 534:./Library/stm32f4xx_rcc.c ****   /* Check the parameters */
 535:./Library/stm32f4xx_rcc.c ****   assert_param(IS_RCC_PLL_SOURCE(RCC_PLLSource));
 285              		.loc 1 535 3 view .LVU65
 536:./Library/stm32f4xx_rcc.c ****   assert_param(IS_RCC_PLLM_VALUE(PLLM));
 286              		.loc 1 536 3 view .LVU66
 537:./Library/stm32f4xx_rcc.c ****   assert_param(IS_RCC_PLLN_VALUE(PLLN));
 287              		.loc 1 537 3 view .LVU67
 538:./Library/stm32f4xx_rcc.c ****   assert_param(IS_RCC_PLLP_VALUE(PLLP));
 288              		.loc 1 538 3 view .LVU68
 539:./Library/stm32f4xx_rcc.c ****   assert_param(IS_RCC_PLLQ_VALUE(PLLQ));
 289              		.loc 1 539 3 view .LVU69
 540:./Library/stm32f4xx_rcc.c **** 
 541:./Library/stm32f4xx_rcc.c ****   RCC->PLLCFGR = PLLM | (PLLN << 6) | (((PLLP >> 1) -1) << 16) | (RCC_PLLSource) |
 290              		.loc 1 541 3 view .LVU70
 291              		.loc 1 541 23 is_stmt 0 view .LVU71
 292 0000 41EA8211 		orr	r1, r1, r2, lsl #6
 293              	.LVL9:
 294              		.loc 1 541 47 view .LVU72
 295 0004 5B08     		lsrs	r3, r3, #1
 296              	.LVL10:
 297              		.loc 1 541 53 view .LVU73
 298 0006 013B     		subs	r3, r3, #1
 299              		.loc 1 541 37 view .LVU74
 300 0008 41EA0341 		orr	r1, r1, r3, lsl #16
 301              		.loc 1 541 64 view .LVU75
 302 000c 0143     		orrs	r1, r1, r0
 303              		.loc 1 541 82 view .LVU76
 304 000e 009B     		ldr	r3, [sp]
 305 0010 41EA0361 		orr	r1, r1, r3, lsl #24
 306              		.loc 1 541 16 view .LVU77
 307 0014 014B     		ldr	r3, .L23
 308 0016 5960     		str	r1, [r3, #4]
 309              	.LVL11:
 542:./Library/stm32f4xx_rcc.c ****                  (PLLQ << 24);
 543:./Library/stm32f4xx_rcc.c **** }
 310              		.loc 1 543 1 view .LVU78
 311 0018 7047     		bx	lr
 312              	.L24:
 313 001a 00BF     		.align	2
 314              	.L23:
 315 001c 00380240 		.word	1073887232
 316              		.cfi_endproc
 317              	.LFE130:
 319              		.section	.text.RCC_PLLCmd,"ax",%progbits
 320              		.align	1
 321              		.global	RCC_PLLCmd
 322              		.syntax unified
 323              		.thumb
 324              		.thumb_func
 326              	RCC_PLLCmd:
 327              	.LVL12:
ARM GAS  /tmp/ccGY1Mdk.s 			page 16


 328              	.LFB131:
 544:./Library/stm32f4xx_rcc.c **** #endif /* STM32F40_41xxx || STM32F427_437xx || STM32F429_439xx || STM32F401xx || STM32F411xE */
 545:./Library/stm32f4xx_rcc.c **** 
 546:./Library/stm32f4xx_rcc.c **** /**
 547:./Library/stm32f4xx_rcc.c ****   * @brief  Enables or disables the main PLL.
 548:./Library/stm32f4xx_rcc.c ****   * @note   After enabling the main PLL, the application software should wait on 
 549:./Library/stm32f4xx_rcc.c ****   *         PLLRDY flag to be set indicating that PLL clock is stable and can
 550:./Library/stm32f4xx_rcc.c ****   *         be used as system clock source.
 551:./Library/stm32f4xx_rcc.c ****   * @note   The main PLL can not be disabled if it is used as system clock source
 552:./Library/stm32f4xx_rcc.c ****   * @note   The main PLL is disabled by hardware when entering STOP and STANDBY modes.
 553:./Library/stm32f4xx_rcc.c ****   * @param  NewState: new state of the main PLL. This parameter can be: ENABLE or DISABLE.
 554:./Library/stm32f4xx_rcc.c ****   * @retval None
 555:./Library/stm32f4xx_rcc.c ****   */
 556:./Library/stm32f4xx_rcc.c **** void RCC_PLLCmd(FunctionalState NewState)
 557:./Library/stm32f4xx_rcc.c **** {
 329              		.loc 1 557 1 is_stmt 1 view -0
 330              		.cfi_startproc
 331              		@ args = 0, pretend = 0, frame = 0
 332              		@ frame_needed = 0, uses_anonymous_args = 0
 333              		@ link register save eliminated.
 558:./Library/stm32f4xx_rcc.c ****   /* Check the parameters */
 559:./Library/stm32f4xx_rcc.c ****   assert_param(IS_FUNCTIONAL_STATE(NewState));
 334              		.loc 1 559 3 view .LVU80
 560:./Library/stm32f4xx_rcc.c ****   *(__IO uint32_t *) CR_PLLON_BB = (uint32_t)NewState;
 335              		.loc 1 560 3 view .LVU81
 336              		.loc 1 560 34 is_stmt 0 view .LVU82
 337 0000 014B     		ldr	r3, .L26
 338 0002 1866     		str	r0, [r3, #96]
 561:./Library/stm32f4xx_rcc.c **** }
 339              		.loc 1 561 1 view .LVU83
 340 0004 7047     		bx	lr
 341              	.L27:
 342 0006 00BF     		.align	2
 343              	.L26:
 344 0008 00004742 		.word	1111949312
 345              		.cfi_endproc
 346              	.LFE131:
 348              		.section	.text.RCC_PLLI2SConfig,"ax",%progbits
 349              		.align	1
 350              		.global	RCC_PLLI2SConfig
 351              		.syntax unified
 352              		.thumb
 353              		.thumb_func
 355              	RCC_PLLI2SConfig:
 356              	.LVL13:
 357              	.LFB132:
 562:./Library/stm32f4xx_rcc.c **** 
 563:./Library/stm32f4xx_rcc.c **** #if defined(STM32F40_41xxx) || defined(STM32F401xx)
 564:./Library/stm32f4xx_rcc.c **** /**
 565:./Library/stm32f4xx_rcc.c ****   * @brief  Configures the PLLI2S clock multiplication and division factors.
 566:./Library/stm32f4xx_rcc.c ****   *  
 567:./Library/stm32f4xx_rcc.c ****   * @note   This function can be used only for STM32F405xx/407xx, STM32F415xx/417xx 
 568:./Library/stm32f4xx_rcc.c ****   *         or STM32F401xx devices. 
 569:./Library/stm32f4xx_rcc.c ****   *    
 570:./Library/stm32f4xx_rcc.c ****   * @note   This function must be used only when the PLLI2S is disabled.
 571:./Library/stm32f4xx_rcc.c ****   * @note   PLLI2S clock source is common with the main PLL (configured in 
 572:./Library/stm32f4xx_rcc.c ****   *         RCC_PLLConfig function )  
ARM GAS  /tmp/ccGY1Mdk.s 			page 17


 573:./Library/stm32f4xx_rcc.c ****   *             
 574:./Library/stm32f4xx_rcc.c ****   * @param  PLLI2SN: specifies the multiplication factor for PLLI2S VCO output clock
 575:./Library/stm32f4xx_rcc.c ****   *          This parameter must be a number between 50 and 432.
 576:./Library/stm32f4xx_rcc.c ****   * @note   You have to set the PLLI2SN parameter correctly to ensure that the VCO 
 577:./Library/stm32f4xx_rcc.c ****   *         output frequency is between 100 and 432 MHz.
 578:./Library/stm32f4xx_rcc.c ****   *    
 579:./Library/stm32f4xx_rcc.c ****   * @param  PLLI2SR: specifies the division factor for I2S clock
 580:./Library/stm32f4xx_rcc.c ****   *          This parameter must be a number between 2 and 7.
 581:./Library/stm32f4xx_rcc.c ****   * @note   You have to set the PLLI2SR parameter correctly to not exceed 192 MHz
 582:./Library/stm32f4xx_rcc.c ****   *         on the I2S clock frequency.
 583:./Library/stm32f4xx_rcc.c ****   *   
 584:./Library/stm32f4xx_rcc.c ****   * @retval None
 585:./Library/stm32f4xx_rcc.c ****   */
 586:./Library/stm32f4xx_rcc.c **** void RCC_PLLI2SConfig(uint32_t PLLI2SN, uint32_t PLLI2SR)
 587:./Library/stm32f4xx_rcc.c **** {
 358              		.loc 1 587 1 is_stmt 1 view -0
 359              		.cfi_startproc
 360              		@ args = 0, pretend = 0, frame = 0
 361              		@ frame_needed = 0, uses_anonymous_args = 0
 362              		@ link register save eliminated.
 588:./Library/stm32f4xx_rcc.c ****   /* Check the parameters */
 589:./Library/stm32f4xx_rcc.c ****   assert_param(IS_RCC_PLLI2SN_VALUE(PLLI2SN));
 363              		.loc 1 589 3 view .LVU85
 590:./Library/stm32f4xx_rcc.c ****   assert_param(IS_RCC_PLLI2SR_VALUE(PLLI2SR));
 364              		.loc 1 590 3 view .LVU86
 591:./Library/stm32f4xx_rcc.c **** 
 592:./Library/stm32f4xx_rcc.c ****   RCC->PLLI2SCFGR = (PLLI2SN << 6) | (PLLI2SR << 28);
 365              		.loc 1 592 3 view .LVU87
 366              		.loc 1 592 47 is_stmt 0 view .LVU88
 367 0000 0907     		lsls	r1, r1, #28
 368              	.LVL14:
 369              		.loc 1 592 36 view .LVU89
 370 0002 41EA8011 		orr	r1, r1, r0, lsl #6
 371              		.loc 1 592 19 view .LVU90
 372 0006 024B     		ldr	r3, .L29
 373 0008 C3F88410 		str	r1, [r3, #132]
 593:./Library/stm32f4xx_rcc.c **** }
 374              		.loc 1 593 1 view .LVU91
 375 000c 7047     		bx	lr
 376              	.L30:
 377 000e 00BF     		.align	2
 378              	.L29:
 379 0010 00380240 		.word	1073887232
 380              		.cfi_endproc
 381              	.LFE132:
 383              		.section	.text.RCC_PLLI2SCmd,"ax",%progbits
 384              		.align	1
 385              		.global	RCC_PLLI2SCmd
 386              		.syntax unified
 387              		.thumb
 388              		.thumb_func
 390              	RCC_PLLI2SCmd:
 391              	.LVL15:
 392              	.LFB133:
 594:./Library/stm32f4xx_rcc.c **** #endif /* STM32F40_41xxx || STM32F401xx */
 595:./Library/stm32f4xx_rcc.c **** 
 596:./Library/stm32f4xx_rcc.c **** #if defined(STM32F411xE)
ARM GAS  /tmp/ccGY1Mdk.s 			page 18


 597:./Library/stm32f4xx_rcc.c **** /**
 598:./Library/stm32f4xx_rcc.c ****   * @brief  Configures the PLLI2S clock multiplication and division factors.
 599:./Library/stm32f4xx_rcc.c ****   *  
 600:./Library/stm32f4xx_rcc.c ****   * @note   This function can be used only for STM32F411xE devices. 
 601:./Library/stm32f4xx_rcc.c ****   *    
 602:./Library/stm32f4xx_rcc.c ****   * @note   This function must be used only when the PLLI2S is disabled.
 603:./Library/stm32f4xx_rcc.c ****   * @note   PLLI2S clock source is common with the main PLL (configured in 
 604:./Library/stm32f4xx_rcc.c ****   *         RCC_PLLConfig function )  
 605:./Library/stm32f4xx_rcc.c ****   *
 606:./Library/stm32f4xx_rcc.c ****   * @param  PLLI2SM: specifies the division factor for PLLI2S VCO input clock
 607:./Library/stm32f4xx_rcc.c ****   *         This parameter must be a number between Min_Data = 2 and Max_Data = 63.
 608:./Library/stm32f4xx_rcc.c ****   * @note   You have to set the PLLI2SM parameter correctly to ensure that the VCO input
 609:./Library/stm32f4xx_rcc.c ****   *         frequency ranges from 1 to 2 MHz. It is recommended to select a frequency
 610:./Library/stm32f4xx_rcc.c ****   *         of 2 MHz to limit PLLI2S jitter.
 611:./Library/stm32f4xx_rcc.c ****   *
 612:./Library/stm32f4xx_rcc.c ****   * @param  PLLI2SN: specifies the multiplication factor for PLLI2S VCO output clock
 613:./Library/stm32f4xx_rcc.c ****   *          This parameter must be a number between 50 and 432.
 614:./Library/stm32f4xx_rcc.c ****   * @note   You have to set the PLLI2SN parameter correctly to ensure that the VCO 
 615:./Library/stm32f4xx_rcc.c ****   *         output frequency is between 100 and 432 MHz.
 616:./Library/stm32f4xx_rcc.c ****   *    
 617:./Library/stm32f4xx_rcc.c ****   * @param  PLLI2SR: specifies the division factor for I2S clock
 618:./Library/stm32f4xx_rcc.c ****   *          This parameter must be a number between 2 and 7.
 619:./Library/stm32f4xx_rcc.c ****   * @note   You have to set the PLLI2SR parameter correctly to not exceed 192 MHz
 620:./Library/stm32f4xx_rcc.c ****   *         on the I2S clock frequency.
 621:./Library/stm32f4xx_rcc.c ****   *   
 622:./Library/stm32f4xx_rcc.c ****   * @retval None
 623:./Library/stm32f4xx_rcc.c ****   */
 624:./Library/stm32f4xx_rcc.c **** void RCC_PLLI2SConfig(uint32_t PLLI2SN, uint32_t PLLI2SR, uint32_t PLLI2SM)
 625:./Library/stm32f4xx_rcc.c **** {
 626:./Library/stm32f4xx_rcc.c ****   /* Check the parameters */
 627:./Library/stm32f4xx_rcc.c ****   assert_param(IS_RCC_PLLI2SN_VALUE(PLLI2SN));
 628:./Library/stm32f4xx_rcc.c ****   assert_param(IS_RCC_PLLI2SM_VALUE(PLLI2SM));
 629:./Library/stm32f4xx_rcc.c ****   assert_param(IS_RCC_PLLI2SR_VALUE(PLLI2SR));
 630:./Library/stm32f4xx_rcc.c **** 
 631:./Library/stm32f4xx_rcc.c ****   RCC->PLLI2SCFGR = (PLLI2SN << 6) | (PLLI2SR << 28) | PLLI2SM;
 632:./Library/stm32f4xx_rcc.c **** }
 633:./Library/stm32f4xx_rcc.c **** #endif /* STM32F411xE */
 634:./Library/stm32f4xx_rcc.c **** 
 635:./Library/stm32f4xx_rcc.c **** #if defined(STM32F427_437xx) || defined(STM32F429_439xx) || defined(STM32F469_479xx)
 636:./Library/stm32f4xx_rcc.c **** /**
 637:./Library/stm32f4xx_rcc.c ****   * @brief  Configures the PLLI2S clock multiplication and division factors.
 638:./Library/stm32f4xx_rcc.c ****   * 
 639:./Library/stm32f4xx_rcc.c ****   * @note   This function can be used only for STM32F42xxx/43xxx devices 
 640:./Library/stm32f4xx_rcc.c ****   *         
 641:./Library/stm32f4xx_rcc.c ****   * @note   This function must be used only when the PLLI2S is disabled.
 642:./Library/stm32f4xx_rcc.c ****   * @note   PLLI2S clock source is common with the main PLL (configured in 
 643:./Library/stm32f4xx_rcc.c ****   *         RCC_PLLConfig function )  
 644:./Library/stm32f4xx_rcc.c ****   *             
 645:./Library/stm32f4xx_rcc.c ****   * @param  PLLI2SN: specifies the multiplication factor for PLLI2S VCO output clock
 646:./Library/stm32f4xx_rcc.c ****   *          This parameter must be a number between 50 and 432.
 647:./Library/stm32f4xx_rcc.c ****   * @note   You have to set the PLLI2SN parameter correctly to ensure that the VCO 
 648:./Library/stm32f4xx_rcc.c ****   *         output frequency is between 100 and 432 MHz.
 649:./Library/stm32f4xx_rcc.c ****   * 
 650:./Library/stm32f4xx_rcc.c ****   * @param  PLLI2SQ: specifies the division factor for SAI1 clock
 651:./Library/stm32f4xx_rcc.c ****   *          This parameter must be a number between 2 and 15.
 652:./Library/stm32f4xx_rcc.c ****   *                 
 653:./Library/stm32f4xx_rcc.c ****   * @param  PLLI2SR: specifies the division factor for I2S clock
ARM GAS  /tmp/ccGY1Mdk.s 			page 19


 654:./Library/stm32f4xx_rcc.c ****   *          This parameter must be a number between 2 and 7.
 655:./Library/stm32f4xx_rcc.c ****   * @note   You have to set the PLLI2SR parameter correctly to not exceed 192 MHz
 656:./Library/stm32f4xx_rcc.c ****   *         on the I2S clock frequency.
 657:./Library/stm32f4xx_rcc.c ****   *   
 658:./Library/stm32f4xx_rcc.c ****   * @retval None
 659:./Library/stm32f4xx_rcc.c ****   */
 660:./Library/stm32f4xx_rcc.c **** void RCC_PLLI2SConfig(uint32_t PLLI2SN, uint32_t PLLI2SQ, uint32_t PLLI2SR)
 661:./Library/stm32f4xx_rcc.c **** {
 662:./Library/stm32f4xx_rcc.c ****   /* Check the parameters */
 663:./Library/stm32f4xx_rcc.c ****   assert_param(IS_RCC_PLLI2SN_VALUE(PLLI2SN));
 664:./Library/stm32f4xx_rcc.c ****   assert_param(IS_RCC_PLLI2SQ_VALUE(PLLI2SQ));
 665:./Library/stm32f4xx_rcc.c ****   assert_param(IS_RCC_PLLI2SR_VALUE(PLLI2SR));
 666:./Library/stm32f4xx_rcc.c **** 
 667:./Library/stm32f4xx_rcc.c ****   RCC->PLLI2SCFGR = (PLLI2SN << 6) | (PLLI2SQ << 24) | (PLLI2SR << 28);
 668:./Library/stm32f4xx_rcc.c **** }
 669:./Library/stm32f4xx_rcc.c **** #endif /* STM32F427_437xx || STM32F429_439xx || STM32F469_479xx */
 670:./Library/stm32f4xx_rcc.c **** 
 671:./Library/stm32f4xx_rcc.c **** #if defined(STM32F412xG ) || defined(STM32F413_423xx) || defined(STM32F446xx)
 672:./Library/stm32f4xx_rcc.c **** /**
 673:./Library/stm32f4xx_rcc.c ****   * @brief  Configures the PLLI2S clock multiplication and division factors.
 674:./Library/stm32f4xx_rcc.c ****   * 
 675:./Library/stm32f4xx_rcc.c ****   * @note   This function can be used only for STM32F446xx devices 
 676:./Library/stm32f4xx_rcc.c ****   *         
 677:./Library/stm32f4xx_rcc.c ****   * @note   This function must be used only when the PLLI2S is disabled.
 678:./Library/stm32f4xx_rcc.c ****   * @note   PLLI2S clock source is common with the main PLL (configured in 
 679:./Library/stm32f4xx_rcc.c ****   *         RCC_PLLConfig function )  
 680:./Library/stm32f4xx_rcc.c ****   * 
 681:./Library/stm32f4xx_rcc.c ****   * @param  PLLI2SM: specifies the division factor for PLLI2S VCO input clock
 682:./Library/stm32f4xx_rcc.c ****   *         This parameter must be a number between Min_Data = 2 and Max_Data = 63.
 683:./Library/stm32f4xx_rcc.c ****   * @note   You have to set the PLLI2SM parameter correctly to ensure that the VCO input
 684:./Library/stm32f4xx_rcc.c ****   *         frequency ranges from 1 to 2 MHz. It is recommended to select a frequency
 685:./Library/stm32f4xx_rcc.c ****   *         of 2 MHz to limit PLLI2S jitter.
 686:./Library/stm32f4xx_rcc.c ****   *
 687:./Library/stm32f4xx_rcc.c ****   * @param  PLLI2SN: specifies the multiplication factor for PLLI2S VCO output clock
 688:./Library/stm32f4xx_rcc.c ****   *          This parameter must be a number between 50 and 432.
 689:./Library/stm32f4xx_rcc.c ****   * @note   You have to set the PLLI2SN parameter correctly to ensure that the VCO 
 690:./Library/stm32f4xx_rcc.c ****   *         output frequency is between 100 and 432 MHz.
 691:./Library/stm32f4xx_rcc.c ****   *
 692:./Library/stm32f4xx_rcc.c ****   * @param  PLLI2SP: specifies the division factor for PLL 48Mhz clock output
 693:./Library/stm32f4xx_rcc.c ****   *          This parameter must be a number in the range {2, 4, 6, or 8}.
 694:./Library/stm32f4xx_rcc.c ****   *
 695:./Library/stm32f4xx_rcc.c ****   * @param  PLLI2SQ: specifies the division factor for SAI1 clock
 696:./Library/stm32f4xx_rcc.c ****   *          This parameter must be a number between 2 and 15.
 697:./Library/stm32f4xx_rcc.c ****   *                 
 698:./Library/stm32f4xx_rcc.c ****   * @param  PLLI2SR: specifies the division factor for I2S clock
 699:./Library/stm32f4xx_rcc.c ****   *          This parameter must be a number between 2 and 7.
 700:./Library/stm32f4xx_rcc.c ****   * @note   You have to set the PLLI2SR parameter correctly to not exceed 192 MHz
 701:./Library/stm32f4xx_rcc.c ****   *         on the I2S clock frequency.
 702:./Library/stm32f4xx_rcc.c ****   * @note   the PLLI2SR parameter is only available with STM32F42xxx/43xxx devices.  
 703:./Library/stm32f4xx_rcc.c ****   *   
 704:./Library/stm32f4xx_rcc.c ****   * @retval None
 705:./Library/stm32f4xx_rcc.c ****   */
 706:./Library/stm32f4xx_rcc.c **** void RCC_PLLI2SConfig(uint32_t PLLI2SM, uint32_t PLLI2SN, uint32_t PLLI2SP, uint32_t PLLI2SQ, uint3
 707:./Library/stm32f4xx_rcc.c **** {
 708:./Library/stm32f4xx_rcc.c ****   /* Check the parameters */
 709:./Library/stm32f4xx_rcc.c ****   assert_param(IS_RCC_PLLI2SM_VALUE(PLLI2SM));
 710:./Library/stm32f4xx_rcc.c ****   assert_param(IS_RCC_PLLI2SN_VALUE(PLLI2SN));
ARM GAS  /tmp/ccGY1Mdk.s 			page 20


 711:./Library/stm32f4xx_rcc.c ****   assert_param(IS_RCC_PLLI2SP_VALUE(PLLI2SP));
 712:./Library/stm32f4xx_rcc.c ****   assert_param(IS_RCC_PLLI2SQ_VALUE(PLLI2SQ));
 713:./Library/stm32f4xx_rcc.c ****   assert_param(IS_RCC_PLLI2SR_VALUE(PLLI2SR));
 714:./Library/stm32f4xx_rcc.c **** 
 715:./Library/stm32f4xx_rcc.c ****   RCC->PLLI2SCFGR =  PLLI2SM | (PLLI2SN << 6) | (((PLLI2SP >> 1) -1) << 16) | (PLLI2SQ << 24) | (PL
 716:./Library/stm32f4xx_rcc.c **** }
 717:./Library/stm32f4xx_rcc.c **** #endif /* STM32F412xG || STM32F413_423xx || STM32F446xx */
 718:./Library/stm32f4xx_rcc.c **** 
 719:./Library/stm32f4xx_rcc.c **** /**
 720:./Library/stm32f4xx_rcc.c ****   * @brief  Enables or disables the PLLI2S. 
 721:./Library/stm32f4xx_rcc.c ****   * @note   The PLLI2S is disabled by hardware when entering STOP and STANDBY modes.  
 722:./Library/stm32f4xx_rcc.c ****   * @param  NewState: new state of the PLLI2S. This parameter can be: ENABLE or DISABLE.
 723:./Library/stm32f4xx_rcc.c ****   * @retval None
 724:./Library/stm32f4xx_rcc.c ****   */
 725:./Library/stm32f4xx_rcc.c **** void RCC_PLLI2SCmd(FunctionalState NewState)
 726:./Library/stm32f4xx_rcc.c **** {
 393              		.loc 1 726 1 is_stmt 1 view -0
 394              		.cfi_startproc
 395              		@ args = 0, pretend = 0, frame = 0
 396              		@ frame_needed = 0, uses_anonymous_args = 0
 397              		@ link register save eliminated.
 727:./Library/stm32f4xx_rcc.c ****   /* Check the parameters */
 728:./Library/stm32f4xx_rcc.c ****   assert_param(IS_FUNCTIONAL_STATE(NewState));
 398              		.loc 1 728 3 view .LVU93
 729:./Library/stm32f4xx_rcc.c ****   *(__IO uint32_t *) CR_PLLI2SON_BB = (uint32_t)NewState;
 399              		.loc 1 729 3 view .LVU94
 400              		.loc 1 729 37 is_stmt 0 view .LVU95
 401 0000 014B     		ldr	r3, .L32
 402 0002 9866     		str	r0, [r3, #104]
 730:./Library/stm32f4xx_rcc.c **** }
 403              		.loc 1 730 1 view .LVU96
 404 0004 7047     		bx	lr
 405              	.L33:
 406 0006 00BF     		.align	2
 407              	.L32:
 408 0008 00004742 		.word	1111949312
 409              		.cfi_endproc
 410              	.LFE133:
 412              		.section	.text.RCC_PLLSAIConfig,"ax",%progbits
 413              		.align	1
 414              		.global	RCC_PLLSAIConfig
 415              		.syntax unified
 416              		.thumb
 417              		.thumb_func
 419              	RCC_PLLSAIConfig:
 420              	.LVL16:
 421              	.LFB134:
 731:./Library/stm32f4xx_rcc.c **** 
 732:./Library/stm32f4xx_rcc.c **** #if defined(STM32F469_479xx)
 733:./Library/stm32f4xx_rcc.c **** /**
 734:./Library/stm32f4xx_rcc.c ****   * @brief  Configures the PLLSAI clock multiplication and division factors.
 735:./Library/stm32f4xx_rcc.c ****   *
 736:./Library/stm32f4xx_rcc.c ****   * @note   This function can be used only for STM32F469_479xx devices 
 737:./Library/stm32f4xx_rcc.c ****   *        
 738:./Library/stm32f4xx_rcc.c ****   * @note   This function must be used only when the PLLSAI is disabled.
 739:./Library/stm32f4xx_rcc.c ****   * @note   PLLSAI clock source is common with the main PLL (configured in 
 740:./Library/stm32f4xx_rcc.c ****   *         RCC_PLLConfig function )  
ARM GAS  /tmp/ccGY1Mdk.s 			page 21


 741:./Library/stm32f4xx_rcc.c ****   *
 742:./Library/stm32f4xx_rcc.c ****   * @param  PLLSAIN: specifies the multiplication factor for PLLSAI VCO output clock
 743:./Library/stm32f4xx_rcc.c ****   *         This parameter must be a number between 50 and 432.
 744:./Library/stm32f4xx_rcc.c ****   * @note   You have to set the PLLSAIN parameter correctly to ensure that the VCO 
 745:./Library/stm32f4xx_rcc.c ****   *         output frequency is between 100 and 432 MHz.
 746:./Library/stm32f4xx_rcc.c ****   *
 747:./Library/stm32f4xx_rcc.c ****   * @param  PLLSAIP: specifies the division factor for PLL 48Mhz clock output
 748:./Library/stm32f4xx_rcc.c ****   *         This parameter must be a number in the range {2, 4, 6, or 8}..
 749:./Library/stm32f4xx_rcc.c ****   *           
 750:./Library/stm32f4xx_rcc.c ****   * @param  PLLSAIQ: specifies the division factor for SAI1 clock
 751:./Library/stm32f4xx_rcc.c ****   *         This parameter must be a number between 2 and 15.
 752:./Library/stm32f4xx_rcc.c ****   *            
 753:./Library/stm32f4xx_rcc.c ****   * @param  PLLSAIR: specifies the division factor for LTDC clock
 754:./Library/stm32f4xx_rcc.c ****   *          This parameter must be a number between 2 and 7.
 755:./Library/stm32f4xx_rcc.c ****   *   
 756:./Library/stm32f4xx_rcc.c ****   * @retval None
 757:./Library/stm32f4xx_rcc.c ****   */
 758:./Library/stm32f4xx_rcc.c **** void RCC_PLLSAIConfig(uint32_t PLLSAIN, uint32_t PLLSAIP, uint32_t PLLSAIQ, uint32_t PLLSAIR)
 759:./Library/stm32f4xx_rcc.c **** {
 760:./Library/stm32f4xx_rcc.c ****   /* Check the parameters */
 761:./Library/stm32f4xx_rcc.c ****   assert_param(IS_RCC_PLLSAIN_VALUE(PLLSAIN));
 762:./Library/stm32f4xx_rcc.c ****   assert_param(IS_RCC_PLLSAIP_VALUE(PLLSAIP));
 763:./Library/stm32f4xx_rcc.c ****   assert_param(IS_RCC_PLLSAIQ_VALUE(PLLSAIQ));
 764:./Library/stm32f4xx_rcc.c ****   assert_param(IS_RCC_PLLSAIR_VALUE(PLLSAIR));
 765:./Library/stm32f4xx_rcc.c **** 
 766:./Library/stm32f4xx_rcc.c ****   RCC->PLLSAICFGR = (PLLSAIN << 6) | (((PLLSAIP >> 1) -1) << 16) | (PLLSAIQ << 24) | (PLLSAIR << 28
 767:./Library/stm32f4xx_rcc.c **** }
 768:./Library/stm32f4xx_rcc.c **** #endif /* STM32F469_479xx */
 769:./Library/stm32f4xx_rcc.c **** 
 770:./Library/stm32f4xx_rcc.c **** #if defined(STM32F446xx)
 771:./Library/stm32f4xx_rcc.c **** /**
 772:./Library/stm32f4xx_rcc.c ****   * @brief  Configures the PLLSAI clock multiplication and division factors.
 773:./Library/stm32f4xx_rcc.c ****   *
 774:./Library/stm32f4xx_rcc.c ****   * @note   This function can be used only for STM32F446xx devices 
 775:./Library/stm32f4xx_rcc.c ****   *        
 776:./Library/stm32f4xx_rcc.c ****   * @note   This function must be used only when the PLLSAI is disabled.
 777:./Library/stm32f4xx_rcc.c ****   * @note   PLLSAI clock source is common with the main PLL (configured in 
 778:./Library/stm32f4xx_rcc.c ****   *         RCC_PLLConfig function )  
 779:./Library/stm32f4xx_rcc.c ****   * 
 780:./Library/stm32f4xx_rcc.c ****   * @param  PLLSAIM: specifies the division factor for PLLSAI VCO input clock
 781:./Library/stm32f4xx_rcc.c ****   *         This parameter must be a number between Min_Data = 2 and Max_Data = 63.
 782:./Library/stm32f4xx_rcc.c ****   * @note   You have to set the PLLSAIM parameter correctly to ensure that the VCO input
 783:./Library/stm32f4xx_rcc.c ****   *         frequency ranges from 1 to 2 MHz. It is recommended to select a frequency
 784:./Library/stm32f4xx_rcc.c ****   *         of 2 MHz to limit PLLSAI jitter.
 785:./Library/stm32f4xx_rcc.c ****   *
 786:./Library/stm32f4xx_rcc.c ****   * @param  PLLSAIN: specifies the multiplication factor for PLLSAI VCO output clock
 787:./Library/stm32f4xx_rcc.c ****   *         This parameter must be a number between 50 and 432.
 788:./Library/stm32f4xx_rcc.c ****   * @note   You have to set the PLLSAIN parameter correctly to ensure that the VCO 
 789:./Library/stm32f4xx_rcc.c ****   *         output frequency is between 100 and 432 MHz.
 790:./Library/stm32f4xx_rcc.c ****   * 
 791:./Library/stm32f4xx_rcc.c ****   * @param  PLLSAIP: specifies the division factor for PLL 48Mhz clock output
 792:./Library/stm32f4xx_rcc.c ****   *         This parameter must be a number in the range {2, 4, 6, or 8}.
 793:./Library/stm32f4xx_rcc.c ****   *
 794:./Library/stm32f4xx_rcc.c ****   * @param  PLLSAIQ: specifies the division factor for SAI1 clock
 795:./Library/stm32f4xx_rcc.c ****   *         This parameter must be a number between 2 and 15.
 796:./Library/stm32f4xx_rcc.c ****   *   
 797:./Library/stm32f4xx_rcc.c ****   * @retval None
ARM GAS  /tmp/ccGY1Mdk.s 			page 22


 798:./Library/stm32f4xx_rcc.c ****   */
 799:./Library/stm32f4xx_rcc.c **** void RCC_PLLSAIConfig(uint32_t PLLSAIM, uint32_t PLLSAIN, uint32_t PLLSAIP, uint32_t PLLSAIQ)
 800:./Library/stm32f4xx_rcc.c **** {
 801:./Library/stm32f4xx_rcc.c ****   /* Check the parameters */
 802:./Library/stm32f4xx_rcc.c ****   assert_param(IS_RCC_PLLSAIM_VALUE(PLLSAIM));
 803:./Library/stm32f4xx_rcc.c ****   assert_param(IS_RCC_PLLSAIN_VALUE(PLLSAIN));
 804:./Library/stm32f4xx_rcc.c ****   assert_param(IS_RCC_PLLSAIP_VALUE(PLLSAIP));
 805:./Library/stm32f4xx_rcc.c ****   assert_param(IS_RCC_PLLSAIQ_VALUE(PLLSAIQ));
 806:./Library/stm32f4xx_rcc.c **** 
 807:./Library/stm32f4xx_rcc.c ****   RCC->PLLSAICFGR = PLLSAIM | (PLLSAIN << 6) | (((PLLSAIP >> 1) -1) << 16)  | (PLLSAIQ << 24);
 808:./Library/stm32f4xx_rcc.c **** }
 809:./Library/stm32f4xx_rcc.c **** #endif /* STM32F446xx */
 810:./Library/stm32f4xx_rcc.c **** 
 811:./Library/stm32f4xx_rcc.c **** #if defined(STM32F40_41xxx) || defined(STM32F427_437xx) || defined(STM32F429_439xx) || defined(STM3
 812:./Library/stm32f4xx_rcc.c **** /**
 813:./Library/stm32f4xx_rcc.c ****   * @brief  Configures the PLLSAI clock multiplication and division factors.
 814:./Library/stm32f4xx_rcc.c ****   *
 815:./Library/stm32f4xx_rcc.c ****   * @note   This function can be used only for STM32F42xxx/43xxx devices 
 816:./Library/stm32f4xx_rcc.c ****   *        
 817:./Library/stm32f4xx_rcc.c ****   * @note   This function must be used only when the PLLSAI is disabled.
 818:./Library/stm32f4xx_rcc.c ****   * @note   PLLSAI clock source is common with the main PLL (configured in 
 819:./Library/stm32f4xx_rcc.c ****   *         RCC_PLLConfig function )  
 820:./Library/stm32f4xx_rcc.c ****   *             
 821:./Library/stm32f4xx_rcc.c ****   * @param  PLLSAIN: specifies the multiplication factor for PLLSAI VCO output clock
 822:./Library/stm32f4xx_rcc.c ****   *          This parameter must be a number between 50 and 432.
 823:./Library/stm32f4xx_rcc.c ****   * @note   You have to set the PLLSAIN parameter correctly to ensure that the VCO 
 824:./Library/stm32f4xx_rcc.c ****   *         output frequency is between 100 and 432 MHz.
 825:./Library/stm32f4xx_rcc.c ****   *           
 826:./Library/stm32f4xx_rcc.c ****   * @param  PLLSAIQ: specifies the division factor for SAI1 clock
 827:./Library/stm32f4xx_rcc.c ****   *          This parameter must be a number between 2 and 15.
 828:./Library/stm32f4xx_rcc.c ****   *            
 829:./Library/stm32f4xx_rcc.c ****   * @param  PLLSAIR: specifies the division factor for LTDC clock
 830:./Library/stm32f4xx_rcc.c ****   *          This parameter must be a number between 2 and 7.
 831:./Library/stm32f4xx_rcc.c ****   *   
 832:./Library/stm32f4xx_rcc.c ****   * @retval None
 833:./Library/stm32f4xx_rcc.c ****   */
 834:./Library/stm32f4xx_rcc.c **** void RCC_PLLSAIConfig(uint32_t PLLSAIN, uint32_t PLLSAIQ, uint32_t PLLSAIR)
 835:./Library/stm32f4xx_rcc.c **** {
 422              		.loc 1 835 1 is_stmt 1 view -0
 423              		.cfi_startproc
 424              		@ args = 0, pretend = 0, frame = 0
 425              		@ frame_needed = 0, uses_anonymous_args = 0
 426              		@ link register save eliminated.
 836:./Library/stm32f4xx_rcc.c ****   /* Check the parameters */
 837:./Library/stm32f4xx_rcc.c ****   assert_param(IS_RCC_PLLSAIN_VALUE(PLLSAIN));
 427              		.loc 1 837 3 view .LVU98
 838:./Library/stm32f4xx_rcc.c ****   assert_param(IS_RCC_PLLSAIR_VALUE(PLLSAIR));
 428              		.loc 1 838 3 view .LVU99
 839:./Library/stm32f4xx_rcc.c ****   assert_param(IS_RCC_PLLSAIQ_VALUE(PLLSAIQ));
 429              		.loc 1 839 3 view .LVU100
 840:./Library/stm32f4xx_rcc.c ****   
 841:./Library/stm32f4xx_rcc.c ****   RCC->PLLSAICFGR = (PLLSAIN << 6) | (PLLSAIQ << 24) | (PLLSAIR << 28);
 430              		.loc 1 841 3 view .LVU101
 431              		.loc 1 841 47 is_stmt 0 view .LVU102
 432 0000 0906     		lsls	r1, r1, #24
 433              	.LVL17:
 434              		.loc 1 841 36 view .LVU103
ARM GAS  /tmp/ccGY1Mdk.s 			page 23


 435 0002 41EA8011 		orr	r1, r1, r0, lsl #6
 436              		.loc 1 841 54 view .LVU104
 437 0006 41EA0271 		orr	r1, r1, r2, lsl #28
 438              		.loc 1 841 19 view .LVU105
 439 000a 024B     		ldr	r3, .L35
 440 000c C3F88810 		str	r1, [r3, #136]
 842:./Library/stm32f4xx_rcc.c **** }
 441              		.loc 1 842 1 view .LVU106
 442 0010 7047     		bx	lr
 443              	.L36:
 444 0012 00BF     		.align	2
 445              	.L35:
 446 0014 00380240 		.word	1073887232
 447              		.cfi_endproc
 448              	.LFE134:
 450              		.section	.text.RCC_PLLSAICmd,"ax",%progbits
 451              		.align	1
 452              		.global	RCC_PLLSAICmd
 453              		.syntax unified
 454              		.thumb
 455              		.thumb_func
 457              	RCC_PLLSAICmd:
 458              	.LVL18:
 459              	.LFB135:
 843:./Library/stm32f4xx_rcc.c **** #endif /* STM32F40_41xxx || STM32F427_437xx || STM32F429_439xx || STM32F401xx || STM32F411xE */
 844:./Library/stm32f4xx_rcc.c **** 
 845:./Library/stm32f4xx_rcc.c **** /**
 846:./Library/stm32f4xx_rcc.c ****   * @brief  Enables or disables the PLLSAI. 
 847:./Library/stm32f4xx_rcc.c ****   * 
 848:./Library/stm32f4xx_rcc.c ****   * @note   This function can be used only for STM32F42xxx/43xxx/446xx/469xx/479xx devices 
 849:./Library/stm32f4xx_rcc.c ****   *       
 850:./Library/stm32f4xx_rcc.c ****   * @note   The PLLSAI is disabled by hardware when entering STOP and STANDBY modes.  
 851:./Library/stm32f4xx_rcc.c ****   * @param  NewState: new state of the PLLSAI. This parameter can be: ENABLE or DISABLE.
 852:./Library/stm32f4xx_rcc.c ****   * @retval None
 853:./Library/stm32f4xx_rcc.c ****   */
 854:./Library/stm32f4xx_rcc.c **** void RCC_PLLSAICmd(FunctionalState NewState)
 855:./Library/stm32f4xx_rcc.c **** {
 460              		.loc 1 855 1 is_stmt 1 view -0
 461              		.cfi_startproc
 462              		@ args = 0, pretend = 0, frame = 0
 463              		@ frame_needed = 0, uses_anonymous_args = 0
 464              		@ link register save eliminated.
 856:./Library/stm32f4xx_rcc.c ****   /* Check the parameters */
 857:./Library/stm32f4xx_rcc.c ****   assert_param(IS_FUNCTIONAL_STATE(NewState));
 465              		.loc 1 857 3 view .LVU108
 858:./Library/stm32f4xx_rcc.c ****   *(__IO uint32_t *) CR_PLLSAION_BB = (uint32_t)NewState;
 466              		.loc 1 858 3 view .LVU109
 467              		.loc 1 858 37 is_stmt 0 view .LVU110
 468 0000 014B     		ldr	r3, .L38
 469 0002 1867     		str	r0, [r3, #112]
 859:./Library/stm32f4xx_rcc.c **** }
 470              		.loc 1 859 1 view .LVU111
 471 0004 7047     		bx	lr
 472              	.L39:
 473 0006 00BF     		.align	2
 474              	.L38:
 475 0008 00004742 		.word	1111949312
ARM GAS  /tmp/ccGY1Mdk.s 			page 24


 476              		.cfi_endproc
 477              	.LFE135:
 479              		.section	.text.RCC_ClockSecuritySystemCmd,"ax",%progbits
 480              		.align	1
 481              		.global	RCC_ClockSecuritySystemCmd
 482              		.syntax unified
 483              		.thumb
 484              		.thumb_func
 486              	RCC_ClockSecuritySystemCmd:
 487              	.LVL19:
 488              	.LFB136:
 860:./Library/stm32f4xx_rcc.c **** 
 861:./Library/stm32f4xx_rcc.c **** /**
 862:./Library/stm32f4xx_rcc.c ****   * @brief  Enables or disables the Clock Security System.
 863:./Library/stm32f4xx_rcc.c ****   * @note   If a failure is detected on the HSE oscillator clock, this oscillator
 864:./Library/stm32f4xx_rcc.c ****   *         is automatically disabled and an interrupt is generated to inform the
 865:./Library/stm32f4xx_rcc.c ****   *         software about the failure (Clock Security System Interrupt, CSSI),
 866:./Library/stm32f4xx_rcc.c ****   *         allowing the MCU to perform rescue operations. The CSSI is linked to 
 867:./Library/stm32f4xx_rcc.c ****   *         the Cortex-M4 NMI (Non-Maskable Interrupt) exception vector.  
 868:./Library/stm32f4xx_rcc.c ****   * @param  NewState: new state of the Clock Security System.
 869:./Library/stm32f4xx_rcc.c ****   *         This parameter can be: ENABLE or DISABLE.
 870:./Library/stm32f4xx_rcc.c ****   * @retval None
 871:./Library/stm32f4xx_rcc.c ****   */
 872:./Library/stm32f4xx_rcc.c **** void RCC_ClockSecuritySystemCmd(FunctionalState NewState)
 873:./Library/stm32f4xx_rcc.c **** {
 489              		.loc 1 873 1 is_stmt 1 view -0
 490              		.cfi_startproc
 491              		@ args = 0, pretend = 0, frame = 0
 492              		@ frame_needed = 0, uses_anonymous_args = 0
 493              		@ link register save eliminated.
 874:./Library/stm32f4xx_rcc.c ****   /* Check the parameters */
 875:./Library/stm32f4xx_rcc.c ****   assert_param(IS_FUNCTIONAL_STATE(NewState));
 494              		.loc 1 875 3 view .LVU113
 876:./Library/stm32f4xx_rcc.c ****   *(__IO uint32_t *) CR_CSSON_BB = (uint32_t)NewState;
 495              		.loc 1 876 3 view .LVU114
 496              		.loc 1 876 34 is_stmt 0 view .LVU115
 497 0000 014B     		ldr	r3, .L41
 498 0002 D864     		str	r0, [r3, #76]
 877:./Library/stm32f4xx_rcc.c **** }
 499              		.loc 1 877 1 view .LVU116
 500 0004 7047     		bx	lr
 501              	.L42:
 502 0006 00BF     		.align	2
 503              	.L41:
 504 0008 00004742 		.word	1111949312
 505              		.cfi_endproc
 506              	.LFE136:
 508              		.section	.text.RCC_MCO1Config,"ax",%progbits
 509              		.align	1
 510              		.global	RCC_MCO1Config
 511              		.syntax unified
 512              		.thumb
 513              		.thumb_func
 515              	RCC_MCO1Config:
 516              	.LVL20:
 517              	.LFB137:
 878:./Library/stm32f4xx_rcc.c **** 
ARM GAS  /tmp/ccGY1Mdk.s 			page 25


 879:./Library/stm32f4xx_rcc.c **** /**
 880:./Library/stm32f4xx_rcc.c ****   * @brief  Selects the clock source to output on MCO1 pin(PA8).
 881:./Library/stm32f4xx_rcc.c ****   * @note   PA8 should be configured in alternate function mode.
 882:./Library/stm32f4xx_rcc.c ****   * @param  RCC_MCO1Source: specifies the clock source to output.
 883:./Library/stm32f4xx_rcc.c ****   *          This parameter can be one of the following values:
 884:./Library/stm32f4xx_rcc.c ****   *            @arg RCC_MCO1Source_HSI: HSI clock selected as MCO1 source
 885:./Library/stm32f4xx_rcc.c ****   *            @arg RCC_MCO1Source_LSE: LSE clock selected as MCO1 source
 886:./Library/stm32f4xx_rcc.c ****   *            @arg RCC_MCO1Source_HSE: HSE clock selected as MCO1 source
 887:./Library/stm32f4xx_rcc.c ****   *            @arg RCC_MCO1Source_PLLCLK: main PLL clock selected as MCO1 source
 888:./Library/stm32f4xx_rcc.c ****   * @param  RCC_MCO1Div: specifies the MCO1 prescaler.
 889:./Library/stm32f4xx_rcc.c ****   *          This parameter can be one of the following values:
 890:./Library/stm32f4xx_rcc.c ****   *            @arg RCC_MCO1Div_1: no division applied to MCO1 clock
 891:./Library/stm32f4xx_rcc.c ****   *            @arg RCC_MCO1Div_2: division by 2 applied to MCO1 clock
 892:./Library/stm32f4xx_rcc.c ****   *            @arg RCC_MCO1Div_3: division by 3 applied to MCO1 clock
 893:./Library/stm32f4xx_rcc.c ****   *            @arg RCC_MCO1Div_4: division by 4 applied to MCO1 clock
 894:./Library/stm32f4xx_rcc.c ****   *            @arg RCC_MCO1Div_5: division by 5 applied to MCO1 clock
 895:./Library/stm32f4xx_rcc.c ****   * @retval None
 896:./Library/stm32f4xx_rcc.c ****   */
 897:./Library/stm32f4xx_rcc.c **** void RCC_MCO1Config(uint32_t RCC_MCO1Source, uint32_t RCC_MCO1Div)
 898:./Library/stm32f4xx_rcc.c **** {
 518              		.loc 1 898 1 is_stmt 1 view -0
 519              		.cfi_startproc
 520              		@ args = 0, pretend = 0, frame = 0
 521              		@ frame_needed = 0, uses_anonymous_args = 0
 522              		@ link register save eliminated.
 899:./Library/stm32f4xx_rcc.c ****   uint32_t tmpreg = 0;
 523              		.loc 1 899 3 view .LVU118
 900:./Library/stm32f4xx_rcc.c ****   
 901:./Library/stm32f4xx_rcc.c ****   /* Check the parameters */
 902:./Library/stm32f4xx_rcc.c ****   assert_param(IS_RCC_MCO1SOURCE(RCC_MCO1Source));
 524              		.loc 1 902 3 view .LVU119
 903:./Library/stm32f4xx_rcc.c ****   assert_param(IS_RCC_MCO1DIV(RCC_MCO1Div));  
 525              		.loc 1 903 3 view .LVU120
 904:./Library/stm32f4xx_rcc.c **** 
 905:./Library/stm32f4xx_rcc.c ****   tmpreg = RCC->CFGR;
 526              		.loc 1 905 3 view .LVU121
 527              		.loc 1 905 10 is_stmt 0 view .LVU122
 528 0000 034A     		ldr	r2, .L44
 529 0002 9368     		ldr	r3, [r2, #8]
 530              	.LVL21:
 906:./Library/stm32f4xx_rcc.c **** 
 907:./Library/stm32f4xx_rcc.c ****   /* Clear MCO1[1:0] and MCO1PRE[2:0] bits */
 908:./Library/stm32f4xx_rcc.c ****   tmpreg &= CFGR_MCO1_RESET_MASK;
 531              		.loc 1 908 3 is_stmt 1 view .LVU123
 532              		.loc 1 908 10 is_stmt 0 view .LVU124
 533 0004 23F0EC63 		bic	r3, r3, #123731968
 534              	.LVL22:
 909:./Library/stm32f4xx_rcc.c **** 
 910:./Library/stm32f4xx_rcc.c ****   /* Select MCO1 clock source and prescaler */
 911:./Library/stm32f4xx_rcc.c ****   tmpreg |= RCC_MCO1Source | RCC_MCO1Div;
 535              		.loc 1 911 3 is_stmt 1 view .LVU125
 536              		.loc 1 911 28 is_stmt 0 view .LVU126
 537 0008 0843     		orrs	r0, r0, r1
 538              	.LVL23:
 539              		.loc 1 911 10 view .LVU127
 540 000a 1843     		orrs	r0, r0, r3
 541              	.LVL24:
ARM GAS  /tmp/ccGY1Mdk.s 			page 26


 912:./Library/stm32f4xx_rcc.c ****   
 913:./Library/stm32f4xx_rcc.c ****   /* Store the new value */
 914:./Library/stm32f4xx_rcc.c ****   RCC->CFGR = tmpreg;
 542              		.loc 1 914 3 is_stmt 1 view .LVU128
 543              		.loc 1 914 13 is_stmt 0 view .LVU129
 544 000c 9060     		str	r0, [r2, #8]
 915:./Library/stm32f4xx_rcc.c **** 
 916:./Library/stm32f4xx_rcc.c **** #if defined(STM32F410xx)
 917:./Library/stm32f4xx_rcc.c ****   RCC_MCO1Cmd(ENABLE);
 918:./Library/stm32f4xx_rcc.c **** #endif /* STM32F410xx */   
 919:./Library/stm32f4xx_rcc.c **** }
 545              		.loc 1 919 1 view .LVU130
 546 000e 7047     		bx	lr
 547              	.L45:
 548              		.align	2
 549              	.L44:
 550 0010 00380240 		.word	1073887232
 551              		.cfi_endproc
 552              	.LFE137:
 554              		.section	.text.RCC_MCO2Config,"ax",%progbits
 555              		.align	1
 556              		.global	RCC_MCO2Config
 557              		.syntax unified
 558              		.thumb
 559              		.thumb_func
 561              	RCC_MCO2Config:
 562              	.LVL25:
 563              	.LFB138:
 920:./Library/stm32f4xx_rcc.c **** 
 921:./Library/stm32f4xx_rcc.c **** /**
 922:./Library/stm32f4xx_rcc.c ****   * @brief  Selects the clock source to output on MCO2 pin(PC9).
 923:./Library/stm32f4xx_rcc.c ****   * @note   PC9 should be configured in alternate function mode.
 924:./Library/stm32f4xx_rcc.c ****   * @param  RCC_MCO2Source: specifies the clock source to output.
 925:./Library/stm32f4xx_rcc.c ****   *          This parameter can be one of the following values:
 926:./Library/stm32f4xx_rcc.c ****   *            @arg RCC_MCO2Source_SYSCLK: System clock (SYSCLK) selected as MCO2 source
 927:./Library/stm32f4xx_rcc.c ****   *            @arg RCC_MCO2SOURCE_PLLI2SCLK: PLLI2S clock selected as MCO2 source, available for a
 928:./Library/stm32f4xx_rcc.c ****   *            @arg RCC_MCO2SOURCE_I2SCLK: I2SCLK clock selected as MCO2 source, available only for
 929:./Library/stm32f4xx_rcc.c ****   *            @arg RCC_MCO2Source_HSE: HSE clock selected as MCO2 source
 930:./Library/stm32f4xx_rcc.c ****   *            @arg RCC_MCO2Source_PLLCLK: main PLL clock selected as MCO2 source
 931:./Library/stm32f4xx_rcc.c ****   * @param  RCC_MCO2Div: specifies the MCO2 prescaler.
 932:./Library/stm32f4xx_rcc.c ****   *          This parameter can be one of the following values:
 933:./Library/stm32f4xx_rcc.c ****   *            @arg RCC_MCO2Div_1: no division applied to MCO2 clock
 934:./Library/stm32f4xx_rcc.c ****   *            @arg RCC_MCO2Div_2: division by 2 applied to MCO2 clock
 935:./Library/stm32f4xx_rcc.c ****   *            @arg RCC_MCO2Div_3: division by 3 applied to MCO2 clock
 936:./Library/stm32f4xx_rcc.c ****   *            @arg RCC_MCO2Div_4: division by 4 applied to MCO2 clock
 937:./Library/stm32f4xx_rcc.c ****   *            @arg RCC_MCO2Div_5: division by 5 applied to MCO2 clock
 938:./Library/stm32f4xx_rcc.c ****   * @note  For STM32F410xx devices to output I2SCLK clock on MCO2 you should have
 939:./Library/stm32f4xx_rcc.c ****   *        at last one of the SPI clocks enabled (SPI1, SPI2 or SPI5).
 940:./Library/stm32f4xx_rcc.c ****   * @retval None
 941:./Library/stm32f4xx_rcc.c ****   */
 942:./Library/stm32f4xx_rcc.c **** void RCC_MCO2Config(uint32_t RCC_MCO2Source, uint32_t RCC_MCO2Div)
 943:./Library/stm32f4xx_rcc.c **** {
 564              		.loc 1 943 1 is_stmt 1 view -0
 565              		.cfi_startproc
 566              		@ args = 0, pretend = 0, frame = 0
 567              		@ frame_needed = 0, uses_anonymous_args = 0
 568              		@ link register save eliminated.
ARM GAS  /tmp/ccGY1Mdk.s 			page 27


 944:./Library/stm32f4xx_rcc.c ****   uint32_t tmpreg = 0;
 569              		.loc 1 944 3 view .LVU132
 945:./Library/stm32f4xx_rcc.c ****   
 946:./Library/stm32f4xx_rcc.c ****   /* Check the parameters */
 947:./Library/stm32f4xx_rcc.c ****   assert_param(IS_RCC_MCO2SOURCE(RCC_MCO2Source));
 570              		.loc 1 947 3 view .LVU133
 948:./Library/stm32f4xx_rcc.c ****   assert_param(IS_RCC_MCO2DIV(RCC_MCO2Div));
 571              		.loc 1 948 3 view .LVU134
 949:./Library/stm32f4xx_rcc.c ****   
 950:./Library/stm32f4xx_rcc.c ****   tmpreg = RCC->CFGR;
 572              		.loc 1 950 3 view .LVU135
 573              		.loc 1 950 10 is_stmt 0 view .LVU136
 574 0000 034A     		ldr	r2, .L47
 575 0002 9368     		ldr	r3, [r2, #8]
 576              	.LVL26:
 951:./Library/stm32f4xx_rcc.c ****   
 952:./Library/stm32f4xx_rcc.c ****   /* Clear MCO2 and MCO2PRE[2:0] bits */
 953:./Library/stm32f4xx_rcc.c ****   tmpreg &= CFGR_MCO2_RESET_MASK;
 577              		.loc 1 953 3 is_stmt 1 view .LVU137
 578              		.loc 1 953 10 is_stmt 0 view .LVU138
 579 0004 23F07843 		bic	r3, r3, #-134217728
 580              	.LVL27:
 954:./Library/stm32f4xx_rcc.c **** 
 955:./Library/stm32f4xx_rcc.c ****   /* Select MCO2 clock source and prescaler */
 956:./Library/stm32f4xx_rcc.c ****   tmpreg |= RCC_MCO2Source | RCC_MCO2Div;
 581              		.loc 1 956 3 is_stmt 1 view .LVU139
 582              		.loc 1 956 28 is_stmt 0 view .LVU140
 583 0008 0843     		orrs	r0, r0, r1
 584              	.LVL28:
 585              		.loc 1 956 10 view .LVU141
 586 000a 1843     		orrs	r0, r0, r3
 587              	.LVL29:
 957:./Library/stm32f4xx_rcc.c ****   
 958:./Library/stm32f4xx_rcc.c ****   /* Store the new value */
 959:./Library/stm32f4xx_rcc.c ****   RCC->CFGR = tmpreg;
 588              		.loc 1 959 3 is_stmt 1 view .LVU142
 589              		.loc 1 959 13 is_stmt 0 view .LVU143
 590 000c 9060     		str	r0, [r2, #8]
 960:./Library/stm32f4xx_rcc.c **** 
 961:./Library/stm32f4xx_rcc.c **** #if defined(STM32F410xx)
 962:./Library/stm32f4xx_rcc.c ****   RCC_MCO2Cmd(ENABLE);
 963:./Library/stm32f4xx_rcc.c **** #endif /* STM32F410xx */   
 964:./Library/stm32f4xx_rcc.c **** }
 591              		.loc 1 964 1 view .LVU144
 592 000e 7047     		bx	lr
 593              	.L48:
 594              		.align	2
 595              	.L47:
 596 0010 00380240 		.word	1073887232
 597              		.cfi_endproc
 598              	.LFE138:
 600              		.section	.text.RCC_SYSCLKConfig,"ax",%progbits
 601              		.align	1
 602              		.global	RCC_SYSCLKConfig
 603              		.syntax unified
 604              		.thumb
 605              		.thumb_func
ARM GAS  /tmp/ccGY1Mdk.s 			page 28


 607              	RCC_SYSCLKConfig:
 608              	.LVL30:
 609              	.LFB139:
 965:./Library/stm32f4xx_rcc.c **** 
 966:./Library/stm32f4xx_rcc.c **** /**
 967:./Library/stm32f4xx_rcc.c ****   * @}
 968:./Library/stm32f4xx_rcc.c ****   */
 969:./Library/stm32f4xx_rcc.c **** 
 970:./Library/stm32f4xx_rcc.c **** /** @defgroup RCC_Group2 System AHB and APB busses clocks configuration functions
 971:./Library/stm32f4xx_rcc.c ****  *  @brief   System, AHB and APB busses clocks configuration functions
 972:./Library/stm32f4xx_rcc.c ****  *
 973:./Library/stm32f4xx_rcc.c **** @verbatim   
 974:./Library/stm32f4xx_rcc.c ****  ===============================================================================
 975:./Library/stm32f4xx_rcc.c ****       ##### System, AHB and APB busses clocks configuration functions #####
 976:./Library/stm32f4xx_rcc.c ****  ===============================================================================  
 977:./Library/stm32f4xx_rcc.c ****     [..]
 978:./Library/stm32f4xx_rcc.c ****       This section provide functions allowing to configure the System, AHB, APB1 and 
 979:./Library/stm32f4xx_rcc.c ****       APB2 busses clocks.
 980:./Library/stm32f4xx_rcc.c ****   
 981:./Library/stm32f4xx_rcc.c ****       (#) Several clock sources can be used to drive the System clock (SYSCLK): HSI,
 982:./Library/stm32f4xx_rcc.c ****           HSE and PLL.
 983:./Library/stm32f4xx_rcc.c ****           The AHB clock (HCLK) is derived from System clock through configurable 
 984:./Library/stm32f4xx_rcc.c ****           prescaler and used to clock the CPU, memory and peripherals mapped 
 985:./Library/stm32f4xx_rcc.c ****           on AHB bus (DMA, GPIO...). APB1 (PCLK1) and APB2 (PCLK2) clocks are derived 
 986:./Library/stm32f4xx_rcc.c ****           from AHB clock through configurable prescalers and used to clock 
 987:./Library/stm32f4xx_rcc.c ****           the peripherals mapped on these busses. You can use 
 988:./Library/stm32f4xx_rcc.c ****           "RCC_GetClocksFreq()" function to retrieve the frequencies of these clocks.  
 989:./Library/stm32f4xx_rcc.c **** 
 990:./Library/stm32f4xx_rcc.c ****       -@- All the peripheral clocks are derived from the System clock (SYSCLK) except:
 991:./Library/stm32f4xx_rcc.c ****         (+@) I2S: the I2S clock can be derived either from a specific PLL (PLLI2S) or
 992:./Library/stm32f4xx_rcc.c ****              from an external clock mapped on the I2S_CKIN pin. 
 993:./Library/stm32f4xx_rcc.c ****              You have to use RCC_I2SCLKConfig() function to configure this clock. 
 994:./Library/stm32f4xx_rcc.c ****         (+@) RTC: the RTC clock can be derived either from the LSI, LSE or HSE clock
 995:./Library/stm32f4xx_rcc.c ****              divided by 2 to 31. You have to use RCC_RTCCLKConfig() and RCC_RTCCLKCmd()
 996:./Library/stm32f4xx_rcc.c ****              functions to configure this clock. 
 997:./Library/stm32f4xx_rcc.c ****         (+@) USB OTG FS, SDIO and RTC: USB OTG FS require a frequency equal to 48 MHz
 998:./Library/stm32f4xx_rcc.c ****              to work correctly, while the SDIO require a frequency equal or lower than
 999:./Library/stm32f4xx_rcc.c ****              to 48. This clock is derived of the main PLL through PLLQ divider.
1000:./Library/stm32f4xx_rcc.c ****         (+@) IWDG clock which is always the LSI clock.
1001:./Library/stm32f4xx_rcc.c ****        
1002:./Library/stm32f4xx_rcc.c ****       (#) For STM32F405xx/407xx and STM32F415xx/417xx devices, the maximum frequency 
1003:./Library/stm32f4xx_rcc.c ****          of the SYSCLK and HCLK is 168 MHz, PCLK2 84 MHz and PCLK1 42 MHz. Depending 
1004:./Library/stm32f4xx_rcc.c ****          on the device voltage range, the maximum frequency should be adapted accordingly:
1005:./Library/stm32f4xx_rcc.c ****  +-------------------------------------------------------------------------------------+
1006:./Library/stm32f4xx_rcc.c ****  | Latency       |                HCLK clock frequency (MHz)                           |
1007:./Library/stm32f4xx_rcc.c ****  |               |---------------------------------------------------------------------|
1008:./Library/stm32f4xx_rcc.c ****  |               | voltage range  | voltage range  | voltage range   | voltage range   |
1009:./Library/stm32f4xx_rcc.c ****  |               | 2.7 V - 3.6 V  | 2.4 V - 2.7 V  | 2.1 V - 2.4 V   | 1.8 V - 2.1 V   |
1010:./Library/stm32f4xx_rcc.c ****  |---------------|----------------|----------------|-----------------|-----------------|
1011:./Library/stm32f4xx_rcc.c ****  |0WS(1CPU cycle)|0 < HCLK <= 30  |0 < HCLK <= 24  |0 < HCLK <= 22   |0 < HCLK <= 20   |
1012:./Library/stm32f4xx_rcc.c ****  |---------------|----------------|----------------|-----------------|-----------------|
1013:./Library/stm32f4xx_rcc.c ****  |1WS(2CPU cycle)|30 < HCLK <= 60 |24 < HCLK <= 48 |22 < HCLK <= 44  |20 < HCLK <= 40  |
1014:./Library/stm32f4xx_rcc.c ****  |---------------|----------------|----------------|-----------------|-----------------|
1015:./Library/stm32f4xx_rcc.c ****  |2WS(3CPU cycle)|60 < HCLK <= 90 |48 < HCLK <= 72 |44 < HCLK <= 66  |40 < HCLK <= 60  |
1016:./Library/stm32f4xx_rcc.c ****  |---------------|----------------|----------------|-----------------|-----------------|
1017:./Library/stm32f4xx_rcc.c ****  |3WS(4CPU cycle)|90 < HCLK <= 120|72 < HCLK <= 96 |66 < HCLK <= 88  |60 < HCLK <= 80  |
1018:./Library/stm32f4xx_rcc.c ****  |---------------|----------------|----------------|-----------------|-----------------|
ARM GAS  /tmp/ccGY1Mdk.s 			page 29


1019:./Library/stm32f4xx_rcc.c ****  |4WS(5CPU cycle)|120< HCLK <= 150|96 < HCLK <= 120|88 < HCLK <= 110 |80 < HCLK <= 100 |
1020:./Library/stm32f4xx_rcc.c ****  |---------------|----------------|----------------|-----------------|-----------------|
1021:./Library/stm32f4xx_rcc.c ****  |5WS(6CPU cycle)|150< HCLK <= 168|120< HCLK <= 144|110 < HCLK <= 132|100 < HCLK <= 120|
1022:./Library/stm32f4xx_rcc.c ****  |---------------|----------------|----------------|-----------------|-----------------|
1023:./Library/stm32f4xx_rcc.c ****  |6WS(7CPU cycle)|      NA        |144< HCLK <= 168|132 < HCLK <= 154|120 < HCLK <= 140|
1024:./Library/stm32f4xx_rcc.c ****  |---------------|----------------|----------------|-----------------|-----------------|
1025:./Library/stm32f4xx_rcc.c ****  |7WS(8CPU cycle)|      NA        |      NA        |154 < HCLK <= 168|140 < HCLK <= 160|
1026:./Library/stm32f4xx_rcc.c ****  +---------------|----------------|----------------|-----------------|-----------------+
1027:./Library/stm32f4xx_rcc.c ****       (#) For STM32F42xxx/43xxx/469xx/479xx devices, the maximum frequency of the SYSCLK and HCLK i
1028:./Library/stm32f4xx_rcc.c ****           PCLK2 90 MHz and PCLK1 45 MHz. Depending on the device voltage range, the maximum 
1029:./Library/stm32f4xx_rcc.c ****           frequency should be adapted accordingly:
1030:./Library/stm32f4xx_rcc.c ****  +-------------------------------------------------------------------------------------+
1031:./Library/stm32f4xx_rcc.c ****  | Latency       |                HCLK clock frequency (MHz)                           |
1032:./Library/stm32f4xx_rcc.c ****  |               |---------------------------------------------------------------------|
1033:./Library/stm32f4xx_rcc.c ****  |               | voltage range  | voltage range  | voltage range   | voltage range   |
1034:./Library/stm32f4xx_rcc.c ****  |               | 2.7 V - 3.6 V  | 2.4 V - 2.7 V  | 2.1 V - 2.4 V   | 1.8 V - 2.1 V   |
1035:./Library/stm32f4xx_rcc.c ****  |---------------|----------------|----------------|-----------------|-----------------|
1036:./Library/stm32f4xx_rcc.c ****  |0WS(1CPU cycle)|0 < HCLK <= 30  |0 < HCLK <= 24  |0 < HCLK <= 22   |0 < HCLK <= 20   |
1037:./Library/stm32f4xx_rcc.c ****  |---------------|----------------|----------------|-----------------|-----------------|
1038:./Library/stm32f4xx_rcc.c ****  |1WS(2CPU cycle)|30 < HCLK <= 60 |24 < HCLK <= 48 |22 < HCLK <= 44  |20 < HCLK <= 40  |
1039:./Library/stm32f4xx_rcc.c ****  |---------------|----------------|----------------|-----------------|-----------------|
1040:./Library/stm32f4xx_rcc.c ****  |2WS(3CPU cycle)|60 < HCLK <= 90 |48 < HCLK <= 72 |44 < HCLK <= 66  |40 < HCLK <= 60  |
1041:./Library/stm32f4xx_rcc.c ****  |---------------|----------------|----------------|-----------------|-----------------|
1042:./Library/stm32f4xx_rcc.c ****  |3WS(4CPU cycle)|90 < HCLK <= 120|72 < HCLK <= 96 |66 < HCLK <= 88  |60 < HCLK <= 80  |
1043:./Library/stm32f4xx_rcc.c ****  |---------------|----------------|----------------|-----------------|-----------------|
1044:./Library/stm32f4xx_rcc.c ****  |4WS(5CPU cycle)|120< HCLK <= 150|96 < HCLK <= 120|88 < HCLK <= 110 |80 < HCLK <= 100 |
1045:./Library/stm32f4xx_rcc.c ****  |---------------|----------------|----------------|-----------------|-----------------|
1046:./Library/stm32f4xx_rcc.c ****  |5WS(6CPU cycle)|120< HCLK <= 180|120< HCLK <= 144|110 < HCLK <= 132|100 < HCLK <= 120|
1047:./Library/stm32f4xx_rcc.c ****  |---------------|----------------|----------------|-----------------|-----------------|
1048:./Library/stm32f4xx_rcc.c ****  |6WS(7CPU cycle)|      NA        |144< HCLK <= 168|132 < HCLK <= 154|120 < HCLK <= 140|
1049:./Library/stm32f4xx_rcc.c ****  |---------------|----------------|----------------|-----------------|-----------------|
1050:./Library/stm32f4xx_rcc.c ****  |7WS(8CPU cycle)|      NA        |168< HCLK <= 180|154 < HCLK <= 176|140 < HCLK <= 160|
1051:./Library/stm32f4xx_rcc.c ****  |---------------|----------------|----------------|-----------------|-----------------|
1052:./Library/stm32f4xx_rcc.c ****  |8WS(9CPU cycle)|      NA        |      NA        |176 < HCLK <= 180|160 < HCLK <= 168|
1053:./Library/stm32f4xx_rcc.c ****  +-------------------------------------------------------------------------------------+
1054:./Library/stm32f4xx_rcc.c ****    
1055:./Library/stm32f4xx_rcc.c ****       (#) For STM32F401xx devices, the maximum frequency of the SYSCLK and HCLK is 84 MHz, 
1056:./Library/stm32f4xx_rcc.c ****           PCLK2 84 MHz and PCLK1 42 MHz. Depending on the device voltage range, the maximum 
1057:./Library/stm32f4xx_rcc.c ****           frequency should be adapted accordingly:
1058:./Library/stm32f4xx_rcc.c ****  +-------------------------------------------------------------------------------------+
1059:./Library/stm32f4xx_rcc.c ****  | Latency       |                HCLK clock frequency (MHz)                           |
1060:./Library/stm32f4xx_rcc.c ****  |               |---------------------------------------------------------------------|
1061:./Library/stm32f4xx_rcc.c ****  |               | voltage range  | voltage range  | voltage range   | voltage range   |
1062:./Library/stm32f4xx_rcc.c ****  |               | 2.7 V - 3.6 V  | 2.4 V - 2.7 V  | 2.1 V - 2.4 V   | 1.8 V - 2.1 V   |
1063:./Library/stm32f4xx_rcc.c ****  |---------------|----------------|----------------|-----------------|-----------------|
1064:./Library/stm32f4xx_rcc.c ****  |0WS(1CPU cycle)|0 < HCLK <= 30  |0 < HCLK <= 24  |0 < HCLK <= 22   |0 < HCLK <= 20   |
1065:./Library/stm32f4xx_rcc.c ****  |---------------|----------------|----------------|-----------------|-----------------|
1066:./Library/stm32f4xx_rcc.c ****  |1WS(2CPU cycle)|30 < HCLK <= 60 |24 < HCLK <= 48 |22 < HCLK <= 44  |20 < HCLK <= 40  |
1067:./Library/stm32f4xx_rcc.c ****  |---------------|----------------|----------------|-----------------|-----------------|
1068:./Library/stm32f4xx_rcc.c ****  |2WS(3CPU cycle)|60 < HCLK <= 84 |48 < HCLK <= 72 |44 < HCLK <= 66  |40 < HCLK <= 60  |
1069:./Library/stm32f4xx_rcc.c ****  |---------------|----------------|----------------|-----------------|-----------------|
1070:./Library/stm32f4xx_rcc.c ****  |3WS(4CPU cycle)|      NA        |72 < HCLK <= 84 |66 < HCLK <= 84  |60 < HCLK <= 80  |
1071:./Library/stm32f4xx_rcc.c ****  |---------------|----------------|----------------|-----------------|-----------------|
1072:./Library/stm32f4xx_rcc.c ****  |4WS(5CPU cycle)|      NA        |      NA        |      NA         |80 < HCLK <= 84  |
1073:./Library/stm32f4xx_rcc.c ****  +-------------------------------------------------------------------------------------+
1074:./Library/stm32f4xx_rcc.c **** 
1075:./Library/stm32f4xx_rcc.c ****       (#) For STM32F410xx/STM32F411xE devices, the maximum frequency of the SYSCLK and HCLK is 100 
ARM GAS  /tmp/ccGY1Mdk.s 			page 30


1076:./Library/stm32f4xx_rcc.c ****           PCLK2 100 MHz and PCLK1 50 MHz. Depending on the device voltage range, the maximum 
1077:./Library/stm32f4xx_rcc.c ****           frequency should be adapted accordingly:
1078:./Library/stm32f4xx_rcc.c ****  +-------------------------------------------------------------------------------------+
1079:./Library/stm32f4xx_rcc.c ****  | Latency       |                HCLK clock frequency (MHz)                           |
1080:./Library/stm32f4xx_rcc.c ****  |               |---------------------------------------------------------------------|
1081:./Library/stm32f4xx_rcc.c ****  |               | voltage range  | voltage range  | voltage range   | voltage range   |
1082:./Library/stm32f4xx_rcc.c ****  |               | 2.7 V - 3.6 V  | 2.4 V - 2.7 V  | 2.1 V - 2.4 V   | 1.8 V - 2.1 V   |
1083:./Library/stm32f4xx_rcc.c ****  |---------------|----------------|----------------|-----------------|-----------------|
1084:./Library/stm32f4xx_rcc.c ****  |0WS(1CPU cycle)|0 < HCLK <= 30  |0 < HCLK <= 24  |0 < HCLK <= 18   |0 < HCLK <= 16   |
1085:./Library/stm32f4xx_rcc.c ****  |---------------|----------------|----------------|-----------------|-----------------|
1086:./Library/stm32f4xx_rcc.c ****  |1WS(2CPU cycle)|30 < HCLK <= 64 |24 < HCLK <= 48 |18 < HCLK <= 36  |16 < HCLK <= 32  |
1087:./Library/stm32f4xx_rcc.c ****  |---------------|----------------|----------------|-----------------|-----------------|
1088:./Library/stm32f4xx_rcc.c ****  |2WS(3CPU cycle)|64 < HCLK <= 90 |48 < HCLK <= 72 |36 < HCLK <= 54  |32 < HCLK <= 48  |
1089:./Library/stm32f4xx_rcc.c ****  |---------------|----------------|----------------|-----------------|-----------------|
1090:./Library/stm32f4xx_rcc.c ****  |3WS(4CPU cycle)|90 < HCLK <= 100|72 < HCLK <= 96 |54 < HCLK <= 72  |48 < HCLK <= 64  |
1091:./Library/stm32f4xx_rcc.c ****  |---------------|----------------|----------------|-----------------|-----------------|
1092:./Library/stm32f4xx_rcc.c ****  |4WS(5CPU cycle)|      NA        |96 < HCLK <= 100|72 < HCLK <= 90  |64 < HCLK <= 80  |
1093:./Library/stm32f4xx_rcc.c ****  |---------------|----------------|----------------|-----------------|-----------------|
1094:./Library/stm32f4xx_rcc.c ****  |5WS(6CPU cycle)|      NA        |       NA       |90 < HCLK <= 100 |80 < HCLK <= 96  |
1095:./Library/stm32f4xx_rcc.c ****  |---------------|----------------|----------------|-----------------|-----------------|
1096:./Library/stm32f4xx_rcc.c ****  |6WS(7CPU cycle)|      NA        |       NA       |        NA       |96 < HCLK <= 100 |
1097:./Library/stm32f4xx_rcc.c ****  +-------------------------------------------------------------------------------------+
1098:./Library/stm32f4xx_rcc.c ****   
1099:./Library/stm32f4xx_rcc.c ****       -@- On STM32F405xx/407xx and STM32F415xx/417xx devices: 
1100:./Library/stm32f4xx_rcc.c ****            (++) when VOS = '0', the maximum value of fHCLK = 144MHz. 
1101:./Library/stm32f4xx_rcc.c ****            (++) when VOS = '1', the maximum value of fHCLK = 168MHz. 
1102:./Library/stm32f4xx_rcc.c ****           [..] 
1103:./Library/stm32f4xx_rcc.c ****           On STM32F42xxx/43xxx/469xx/479xx devices:
1104:./Library/stm32f4xx_rcc.c ****            (++) when VOS[1:0] = '0x01', the maximum value of fHCLK is 120MHz.
1105:./Library/stm32f4xx_rcc.c ****            (++) when VOS[1:0] = '0x10', the maximum value of fHCLK is 144MHz.
1106:./Library/stm32f4xx_rcc.c ****            (++) when VOS[1:0] = '0x11', the maximum value of f  is 168MHz 
1107:./Library/stm32f4xx_rcc.c ****           [..]  
1108:./Library/stm32f4xx_rcc.c ****           On STM32F401x devices:
1109:./Library/stm32f4xx_rcc.c ****            (++) when VOS[1:0] = '0x01', the maximum value of fHCLK is 64MHz.
1110:./Library/stm32f4xx_rcc.c ****            (++) when VOS[1:0] = '0x10', the maximum value of fHCLK is 84MHz.
1111:./Library/stm32f4xx_rcc.c ****           On STM32F410xx/STM32F411xE devices:
1112:./Library/stm32f4xx_rcc.c ****            (++) when VOS[1:0] = '0x01' the maximum value of fHCLK is 64MHz.
1113:./Library/stm32f4xx_rcc.c ****            (++) when VOS[1:0] = '0x10' the maximum value of fHCLK is 84MHz.
1114:./Library/stm32f4xx_rcc.c ****            (++) when VOS[1:0] = '0x11' the maximum value of fHCLK is 100MHz.
1115:./Library/stm32f4xx_rcc.c **** 
1116:./Library/stm32f4xx_rcc.c ****        You can use PWR_MainRegulatorModeConfig() function to control VOS bits.
1117:./Library/stm32f4xx_rcc.c **** 
1118:./Library/stm32f4xx_rcc.c **** @endverbatim
1119:./Library/stm32f4xx_rcc.c ****   * @{
1120:./Library/stm32f4xx_rcc.c ****   */
1121:./Library/stm32f4xx_rcc.c **** 
1122:./Library/stm32f4xx_rcc.c **** /**
1123:./Library/stm32f4xx_rcc.c ****   * @brief  Configures the system clock (SYSCLK).
1124:./Library/stm32f4xx_rcc.c ****   * @note   The HSI is used (enabled by hardware) as system clock source after
1125:./Library/stm32f4xx_rcc.c ****   *         startup from Reset, wake-up from STOP and STANDBY mode, or in case
1126:./Library/stm32f4xx_rcc.c ****   *         of failure of the HSE used directly or indirectly as system clock
1127:./Library/stm32f4xx_rcc.c ****   *         (if the Clock Security System CSS is enabled).
1128:./Library/stm32f4xx_rcc.c ****   * @note   A switch from one clock source to another occurs only if the target
1129:./Library/stm32f4xx_rcc.c ****   *         clock source is ready (clock stable after startup delay or PLL locked). 
1130:./Library/stm32f4xx_rcc.c ****   *         If a clock source which is not yet ready is selected, the switch will
1131:./Library/stm32f4xx_rcc.c ****   *         occur when the clock source will be ready. 
1132:./Library/stm32f4xx_rcc.c ****   *         You can use RCC_GetSYSCLKSource() function to know which clock is
ARM GAS  /tmp/ccGY1Mdk.s 			page 31


1133:./Library/stm32f4xx_rcc.c ****   *         currently used as system clock source. 
1134:./Library/stm32f4xx_rcc.c ****   * @param  RCC_SYSCLKSource: specifies the clock source used as system clock.
1135:./Library/stm32f4xx_rcc.c ****   *          This parameter can be one of the following values:
1136:./Library/stm32f4xx_rcc.c ****   *            @arg RCC_SYSCLKSource_HSI: HSI selected as system clock source
1137:./Library/stm32f4xx_rcc.c ****   *            @arg RCC_SYSCLKSource_HSE: HSE selected as system clock source
1138:./Library/stm32f4xx_rcc.c ****   *            @arg RCC_SYSCLKSource_PLLCLK: PLL selected as system clock source (RCC_SYSCLKSource_
1139:./Library/stm32f4xx_rcc.c ****   *            @arg RCC_SYSCLKSource_PLLRCLK: PLL R selected as system clock source only for STM32F
1140:./Library/stm32f4xx_rcc.c ****   * @retval None
1141:./Library/stm32f4xx_rcc.c ****   */
1142:./Library/stm32f4xx_rcc.c **** void RCC_SYSCLKConfig(uint32_t RCC_SYSCLKSource)
1143:./Library/stm32f4xx_rcc.c **** {
 610              		.loc 1 1143 1 is_stmt 1 view -0
 611              		.cfi_startproc
 612              		@ args = 0, pretend = 0, frame = 0
 613              		@ frame_needed = 0, uses_anonymous_args = 0
 614              		@ link register save eliminated.
1144:./Library/stm32f4xx_rcc.c ****   uint32_t tmpreg = 0;
 615              		.loc 1 1144 3 view .LVU146
1145:./Library/stm32f4xx_rcc.c **** 
1146:./Library/stm32f4xx_rcc.c ****   /* Check the parameters */
1147:./Library/stm32f4xx_rcc.c ****   assert_param(IS_RCC_SYSCLK_SOURCE(RCC_SYSCLKSource));
 616              		.loc 1 1147 3 view .LVU147
1148:./Library/stm32f4xx_rcc.c **** 
1149:./Library/stm32f4xx_rcc.c ****   tmpreg = RCC->CFGR;
 617              		.loc 1 1149 3 view .LVU148
 618              		.loc 1 1149 10 is_stmt 0 view .LVU149
 619 0000 034A     		ldr	r2, .L50
 620 0002 9368     		ldr	r3, [r2, #8]
 621              	.LVL31:
1150:./Library/stm32f4xx_rcc.c **** 
1151:./Library/stm32f4xx_rcc.c ****   /* Clear SW[1:0] bits */
1152:./Library/stm32f4xx_rcc.c ****   tmpreg &= ~RCC_CFGR_SW;
 622              		.loc 1 1152 3 is_stmt 1 view .LVU150
 623              		.loc 1 1152 10 is_stmt 0 view .LVU151
 624 0004 23F00303 		bic	r3, r3, #3
 625              	.LVL32:
1153:./Library/stm32f4xx_rcc.c **** 
1154:./Library/stm32f4xx_rcc.c ****   /* Set SW[1:0] bits according to RCC_SYSCLKSource value */
1155:./Library/stm32f4xx_rcc.c ****   tmpreg |= RCC_SYSCLKSource;
 626              		.loc 1 1155 3 is_stmt 1 view .LVU152
 627              		.loc 1 1155 10 is_stmt 0 view .LVU153
 628 0008 0343     		orrs	r3, r3, r0
 629              	.LVL33:
1156:./Library/stm32f4xx_rcc.c **** 
1157:./Library/stm32f4xx_rcc.c ****   /* Store the new value */
1158:./Library/stm32f4xx_rcc.c ****   RCC->CFGR = tmpreg;
 630              		.loc 1 1158 3 is_stmt 1 view .LVU154
 631              		.loc 1 1158 13 is_stmt 0 view .LVU155
 632 000a 9360     		str	r3, [r2, #8]
1159:./Library/stm32f4xx_rcc.c **** }
 633              		.loc 1 1159 1 view .LVU156
 634 000c 7047     		bx	lr
 635              	.L51:
 636 000e 00BF     		.align	2
 637              	.L50:
 638 0010 00380240 		.word	1073887232
 639              		.cfi_endproc
ARM GAS  /tmp/ccGY1Mdk.s 			page 32


 640              	.LFE139:
 642              		.section	.text.RCC_GetSYSCLKSource,"ax",%progbits
 643              		.align	1
 644              		.global	RCC_GetSYSCLKSource
 645              		.syntax unified
 646              		.thumb
 647              		.thumb_func
 649              	RCC_GetSYSCLKSource:
 650              	.LFB140:
1160:./Library/stm32f4xx_rcc.c **** 
1161:./Library/stm32f4xx_rcc.c **** /**
1162:./Library/stm32f4xx_rcc.c ****   * @brief  Returns the clock source used as system clock.
1163:./Library/stm32f4xx_rcc.c ****   * @param  None
1164:./Library/stm32f4xx_rcc.c ****   * @retval The clock source used as system clock. The returned value can be one
1165:./Library/stm32f4xx_rcc.c ****   *         of the following:
1166:./Library/stm32f4xx_rcc.c ****   *              - 0x00: HSI used as system clock
1167:./Library/stm32f4xx_rcc.c ****   *              - 0x04: HSE used as system clock
1168:./Library/stm32f4xx_rcc.c ****   *              - 0x08: PLL used as system clock (PLL P for STM32F446xx devices)
1169:./Library/stm32f4xx_rcc.c ****   *              - 0x0C: PLL R used as system clock (only for STM32F412xG, STM32F413_423xx and STM3
1170:./Library/stm32f4xx_rcc.c ****   */
1171:./Library/stm32f4xx_rcc.c **** uint8_t RCC_GetSYSCLKSource(void)
1172:./Library/stm32f4xx_rcc.c **** {
 651              		.loc 1 1172 1 is_stmt 1 view -0
 652              		.cfi_startproc
 653              		@ args = 0, pretend = 0, frame = 0
 654              		@ frame_needed = 0, uses_anonymous_args = 0
 655              		@ link register save eliminated.
1173:./Library/stm32f4xx_rcc.c ****   return ((uint8_t)(RCC->CFGR & RCC_CFGR_SWS));
 656              		.loc 1 1173 3 view .LVU158
 657              		.loc 1 1173 24 is_stmt 0 view .LVU159
 658 0000 024B     		ldr	r3, .L53
 659 0002 9868     		ldr	r0, [r3, #8]
1174:./Library/stm32f4xx_rcc.c **** }
 660              		.loc 1 1174 1 view .LVU160
 661 0004 00F00C00 		and	r0, r0, #12
 662 0008 7047     		bx	lr
 663              	.L54:
 664 000a 00BF     		.align	2
 665              	.L53:
 666 000c 00380240 		.word	1073887232
 667              		.cfi_endproc
 668              	.LFE140:
 670              		.section	.text.RCC_HCLKConfig,"ax",%progbits
 671              		.align	1
 672              		.global	RCC_HCLKConfig
 673              		.syntax unified
 674              		.thumb
 675              		.thumb_func
 677              	RCC_HCLKConfig:
 678              	.LVL34:
 679              	.LFB141:
1175:./Library/stm32f4xx_rcc.c **** 
1176:./Library/stm32f4xx_rcc.c **** /**
1177:./Library/stm32f4xx_rcc.c ****   * @brief  Configures the AHB clock (HCLK).
1178:./Library/stm32f4xx_rcc.c ****   * @note   Depending on the device voltage range, the software has to set correctly
1179:./Library/stm32f4xx_rcc.c ****   *         these bits to ensure that HCLK not exceed the maximum allowed frequency
1180:./Library/stm32f4xx_rcc.c ****   *         (for more details refer to section above
ARM GAS  /tmp/ccGY1Mdk.s 			page 33


1181:./Library/stm32f4xx_rcc.c ****   *           "CPU, AHB and APB busses clocks configuration functions")
1182:./Library/stm32f4xx_rcc.c ****   * @param  RCC_SYSCLK: defines the AHB clock divider. This clock is derived from 
1183:./Library/stm32f4xx_rcc.c ****   *         the system clock (SYSCLK).
1184:./Library/stm32f4xx_rcc.c ****   *          This parameter can be one of the following values:
1185:./Library/stm32f4xx_rcc.c ****   *            @arg RCC_SYSCLK_Div1: AHB clock = SYSCLK
1186:./Library/stm32f4xx_rcc.c ****   *            @arg RCC_SYSCLK_Div2: AHB clock = SYSCLK/2
1187:./Library/stm32f4xx_rcc.c ****   *            @arg RCC_SYSCLK_Div4: AHB clock = SYSCLK/4
1188:./Library/stm32f4xx_rcc.c ****   *            @arg RCC_SYSCLK_Div8: AHB clock = SYSCLK/8
1189:./Library/stm32f4xx_rcc.c ****   *            @arg RCC_SYSCLK_Div16: AHB clock = SYSCLK/16
1190:./Library/stm32f4xx_rcc.c ****   *            @arg RCC_SYSCLK_Div64: AHB clock = SYSCLK/64
1191:./Library/stm32f4xx_rcc.c ****   *            @arg RCC_SYSCLK_Div128: AHB clock = SYSCLK/128
1192:./Library/stm32f4xx_rcc.c ****   *            @arg RCC_SYSCLK_Div256: AHB clock = SYSCLK/256
1193:./Library/stm32f4xx_rcc.c ****   *            @arg RCC_SYSCLK_Div512: AHB clock = SYSCLK/512
1194:./Library/stm32f4xx_rcc.c ****   * @retval None
1195:./Library/stm32f4xx_rcc.c ****   */
1196:./Library/stm32f4xx_rcc.c **** void RCC_HCLKConfig(uint32_t RCC_SYSCLK)
1197:./Library/stm32f4xx_rcc.c **** {
 680              		.loc 1 1197 1 is_stmt 1 view -0
 681              		.cfi_startproc
 682              		@ args = 0, pretend = 0, frame = 0
 683              		@ frame_needed = 0, uses_anonymous_args = 0
 684              		@ link register save eliminated.
1198:./Library/stm32f4xx_rcc.c ****   uint32_t tmpreg = 0;
 685              		.loc 1 1198 3 view .LVU162
1199:./Library/stm32f4xx_rcc.c ****   
1200:./Library/stm32f4xx_rcc.c ****   /* Check the parameters */
1201:./Library/stm32f4xx_rcc.c ****   assert_param(IS_RCC_HCLK(RCC_SYSCLK));
 686              		.loc 1 1201 3 view .LVU163
1202:./Library/stm32f4xx_rcc.c **** 
1203:./Library/stm32f4xx_rcc.c ****   tmpreg = RCC->CFGR;
 687              		.loc 1 1203 3 view .LVU164
 688              		.loc 1 1203 10 is_stmt 0 view .LVU165
 689 0000 034A     		ldr	r2, .L56
 690 0002 9368     		ldr	r3, [r2, #8]
 691              	.LVL35:
1204:./Library/stm32f4xx_rcc.c **** 
1205:./Library/stm32f4xx_rcc.c ****   /* Clear HPRE[3:0] bits */
1206:./Library/stm32f4xx_rcc.c ****   tmpreg &= ~RCC_CFGR_HPRE;
 692              		.loc 1 1206 3 is_stmt 1 view .LVU166
 693              		.loc 1 1206 10 is_stmt 0 view .LVU167
 694 0004 23F0F003 		bic	r3, r3, #240
 695              	.LVL36:
1207:./Library/stm32f4xx_rcc.c **** 
1208:./Library/stm32f4xx_rcc.c ****   /* Set HPRE[3:0] bits according to RCC_SYSCLK value */
1209:./Library/stm32f4xx_rcc.c ****   tmpreg |= RCC_SYSCLK;
 696              		.loc 1 1209 3 is_stmt 1 view .LVU168
 697              		.loc 1 1209 10 is_stmt 0 view .LVU169
 698 0008 0343     		orrs	r3, r3, r0
 699              	.LVL37:
1210:./Library/stm32f4xx_rcc.c **** 
1211:./Library/stm32f4xx_rcc.c ****   /* Store the new value */
1212:./Library/stm32f4xx_rcc.c ****   RCC->CFGR = tmpreg;
 700              		.loc 1 1212 3 is_stmt 1 view .LVU170
 701              		.loc 1 1212 13 is_stmt 0 view .LVU171
 702 000a 9360     		str	r3, [r2, #8]
1213:./Library/stm32f4xx_rcc.c **** }
 703              		.loc 1 1213 1 view .LVU172
ARM GAS  /tmp/ccGY1Mdk.s 			page 34


 704 000c 7047     		bx	lr
 705              	.L57:
 706 000e 00BF     		.align	2
 707              	.L56:
 708 0010 00380240 		.word	1073887232
 709              		.cfi_endproc
 710              	.LFE141:
 712              		.section	.text.RCC_PCLK1Config,"ax",%progbits
 713              		.align	1
 714              		.global	RCC_PCLK1Config
 715              		.syntax unified
 716              		.thumb
 717              		.thumb_func
 719              	RCC_PCLK1Config:
 720              	.LVL38:
 721              	.LFB142:
1214:./Library/stm32f4xx_rcc.c **** 
1215:./Library/stm32f4xx_rcc.c **** /**
1216:./Library/stm32f4xx_rcc.c ****   * @brief  Configures the Low Speed APB clock (PCLK1).
1217:./Library/stm32f4xx_rcc.c ****   * @param  RCC_HCLK: defines the APB1 clock divider. This clock is derived from 
1218:./Library/stm32f4xx_rcc.c ****   *         the AHB clock (HCLK).
1219:./Library/stm32f4xx_rcc.c ****   *          This parameter can be one of the following values:
1220:./Library/stm32f4xx_rcc.c ****   *            @arg RCC_HCLK_Div1:  APB1 clock = HCLK
1221:./Library/stm32f4xx_rcc.c ****   *            @arg RCC_HCLK_Div2:  APB1 clock = HCLK/2
1222:./Library/stm32f4xx_rcc.c ****   *            @arg RCC_HCLK_Div4:  APB1 clock = HCLK/4
1223:./Library/stm32f4xx_rcc.c ****   *            @arg RCC_HCLK_Div8:  APB1 clock = HCLK/8
1224:./Library/stm32f4xx_rcc.c ****   *            @arg RCC_HCLK_Div16: APB1 clock = HCLK/16
1225:./Library/stm32f4xx_rcc.c ****   * @retval None
1226:./Library/stm32f4xx_rcc.c ****   */
1227:./Library/stm32f4xx_rcc.c **** void RCC_PCLK1Config(uint32_t RCC_HCLK)
1228:./Library/stm32f4xx_rcc.c **** {
 722              		.loc 1 1228 1 is_stmt 1 view -0
 723              		.cfi_startproc
 724              		@ args = 0, pretend = 0, frame = 0
 725              		@ frame_needed = 0, uses_anonymous_args = 0
 726              		@ link register save eliminated.
1229:./Library/stm32f4xx_rcc.c ****   uint32_t tmpreg = 0;
 727              		.loc 1 1229 3 view .LVU174
1230:./Library/stm32f4xx_rcc.c **** 
1231:./Library/stm32f4xx_rcc.c ****   /* Check the parameters */
1232:./Library/stm32f4xx_rcc.c ****   assert_param(IS_RCC_PCLK(RCC_HCLK));
 728              		.loc 1 1232 3 view .LVU175
1233:./Library/stm32f4xx_rcc.c **** 
1234:./Library/stm32f4xx_rcc.c ****   tmpreg = RCC->CFGR;
 729              		.loc 1 1234 3 view .LVU176
 730              		.loc 1 1234 10 is_stmt 0 view .LVU177
 731 0000 034A     		ldr	r2, .L59
 732 0002 9368     		ldr	r3, [r2, #8]
 733              	.LVL39:
1235:./Library/stm32f4xx_rcc.c **** 
1236:./Library/stm32f4xx_rcc.c ****   /* Clear PPRE1[2:0] bits */
1237:./Library/stm32f4xx_rcc.c ****   tmpreg &= ~RCC_CFGR_PPRE1;
 734              		.loc 1 1237 3 is_stmt 1 view .LVU178
 735              		.loc 1 1237 10 is_stmt 0 view .LVU179
 736 0004 23F4E053 		bic	r3, r3, #7168
 737              	.LVL40:
1238:./Library/stm32f4xx_rcc.c **** 
ARM GAS  /tmp/ccGY1Mdk.s 			page 35


1239:./Library/stm32f4xx_rcc.c ****   /* Set PPRE1[2:0] bits according to RCC_HCLK value */
1240:./Library/stm32f4xx_rcc.c ****   tmpreg |= RCC_HCLK;
 738              		.loc 1 1240 3 is_stmt 1 view .LVU180
 739              		.loc 1 1240 10 is_stmt 0 view .LVU181
 740 0008 0343     		orrs	r3, r3, r0
 741              	.LVL41:
1241:./Library/stm32f4xx_rcc.c **** 
1242:./Library/stm32f4xx_rcc.c ****   /* Store the new value */
1243:./Library/stm32f4xx_rcc.c ****   RCC->CFGR = tmpreg;
 742              		.loc 1 1243 3 is_stmt 1 view .LVU182
 743              		.loc 1 1243 13 is_stmt 0 view .LVU183
 744 000a 9360     		str	r3, [r2, #8]
1244:./Library/stm32f4xx_rcc.c **** }
 745              		.loc 1 1244 1 view .LVU184
 746 000c 7047     		bx	lr
 747              	.L60:
 748 000e 00BF     		.align	2
 749              	.L59:
 750 0010 00380240 		.word	1073887232
 751              		.cfi_endproc
 752              	.LFE142:
 754              		.section	.text.RCC_PCLK2Config,"ax",%progbits
 755              		.align	1
 756              		.global	RCC_PCLK2Config
 757              		.syntax unified
 758              		.thumb
 759              		.thumb_func
 761              	RCC_PCLK2Config:
 762              	.LVL42:
 763              	.LFB143:
1245:./Library/stm32f4xx_rcc.c **** 
1246:./Library/stm32f4xx_rcc.c **** /**
1247:./Library/stm32f4xx_rcc.c ****   * @brief  Configures the High Speed APB clock (PCLK2).
1248:./Library/stm32f4xx_rcc.c ****   * @param  RCC_HCLK: defines the APB2 clock divider. This clock is derived from 
1249:./Library/stm32f4xx_rcc.c ****   *         the AHB clock (HCLK).
1250:./Library/stm32f4xx_rcc.c ****   *          This parameter can be one of the following values:
1251:./Library/stm32f4xx_rcc.c ****   *            @arg RCC_HCLK_Div1:  APB2 clock = HCLK
1252:./Library/stm32f4xx_rcc.c ****   *            @arg RCC_HCLK_Div2:  APB2 clock = HCLK/2
1253:./Library/stm32f4xx_rcc.c ****   *            @arg RCC_HCLK_Div4:  APB2 clock = HCLK/4
1254:./Library/stm32f4xx_rcc.c ****   *            @arg RCC_HCLK_Div8:  APB2 clock = HCLK/8
1255:./Library/stm32f4xx_rcc.c ****   *            @arg RCC_HCLK_Div16: APB2 clock = HCLK/16
1256:./Library/stm32f4xx_rcc.c ****   * @retval None
1257:./Library/stm32f4xx_rcc.c ****   */
1258:./Library/stm32f4xx_rcc.c **** void RCC_PCLK2Config(uint32_t RCC_HCLK)
1259:./Library/stm32f4xx_rcc.c **** {
 764              		.loc 1 1259 1 is_stmt 1 view -0
 765              		.cfi_startproc
 766              		@ args = 0, pretend = 0, frame = 0
 767              		@ frame_needed = 0, uses_anonymous_args = 0
 768              		@ link register save eliminated.
1260:./Library/stm32f4xx_rcc.c ****   uint32_t tmpreg = 0;
 769              		.loc 1 1260 3 view .LVU186
1261:./Library/stm32f4xx_rcc.c **** 
1262:./Library/stm32f4xx_rcc.c ****   /* Check the parameters */
1263:./Library/stm32f4xx_rcc.c ****   assert_param(IS_RCC_PCLK(RCC_HCLK));
 770              		.loc 1 1263 3 view .LVU187
1264:./Library/stm32f4xx_rcc.c **** 
ARM GAS  /tmp/ccGY1Mdk.s 			page 36


1265:./Library/stm32f4xx_rcc.c ****   tmpreg = RCC->CFGR;
 771              		.loc 1 1265 3 view .LVU188
 772              		.loc 1 1265 10 is_stmt 0 view .LVU189
 773 0000 034A     		ldr	r2, .L62
 774 0002 9368     		ldr	r3, [r2, #8]
 775              	.LVL43:
1266:./Library/stm32f4xx_rcc.c **** 
1267:./Library/stm32f4xx_rcc.c ****   /* Clear PPRE2[2:0] bits */
1268:./Library/stm32f4xx_rcc.c ****   tmpreg &= ~RCC_CFGR_PPRE2;
 776              		.loc 1 1268 3 is_stmt 1 view .LVU190
 777              		.loc 1 1268 10 is_stmt 0 view .LVU191
 778 0004 23F46043 		bic	r3, r3, #57344
 779              	.LVL44:
1269:./Library/stm32f4xx_rcc.c **** 
1270:./Library/stm32f4xx_rcc.c ****   /* Set PPRE2[2:0] bits according to RCC_HCLK value */
1271:./Library/stm32f4xx_rcc.c ****   tmpreg |= RCC_HCLK << 3;
 780              		.loc 1 1271 3 is_stmt 1 view .LVU192
 781              		.loc 1 1271 10 is_stmt 0 view .LVU193
 782 0008 43EAC003 		orr	r3, r3, r0, lsl #3
 783              	.LVL45:
1272:./Library/stm32f4xx_rcc.c **** 
1273:./Library/stm32f4xx_rcc.c ****   /* Store the new value */
1274:./Library/stm32f4xx_rcc.c ****   RCC->CFGR = tmpreg;
 784              		.loc 1 1274 3 is_stmt 1 view .LVU194
 785              		.loc 1 1274 13 is_stmt 0 view .LVU195
 786 000c 9360     		str	r3, [r2, #8]
1275:./Library/stm32f4xx_rcc.c **** }
 787              		.loc 1 1275 1 view .LVU196
 788 000e 7047     		bx	lr
 789              	.L63:
 790              		.align	2
 791              	.L62:
 792 0010 00380240 		.word	1073887232
 793              		.cfi_endproc
 794              	.LFE143:
 796              		.section	.text.RCC_GetClocksFreq,"ax",%progbits
 797              		.align	1
 798              		.global	RCC_GetClocksFreq
 799              		.syntax unified
 800              		.thumb
 801              		.thumb_func
 803              	RCC_GetClocksFreq:
 804              	.LVL46:
 805              	.LFB144:
1276:./Library/stm32f4xx_rcc.c **** 
1277:./Library/stm32f4xx_rcc.c **** /**
1278:./Library/stm32f4xx_rcc.c ****   * @brief  Returns the frequencies of different on chip clocks; SYSCLK, HCLK, 
1279:./Library/stm32f4xx_rcc.c ****   *         PCLK1 and PCLK2.
1280:./Library/stm32f4xx_rcc.c ****   * 
1281:./Library/stm32f4xx_rcc.c ****   * @note   The system frequency computed by this function is not the real 
1282:./Library/stm32f4xx_rcc.c ****   *         frequency in the chip. It is calculated based on the predefined 
1283:./Library/stm32f4xx_rcc.c ****   *         constant and the selected clock source:
1284:./Library/stm32f4xx_rcc.c ****   * @note     If SYSCLK source is HSI, function returns values based on HSI_VALUE(*)
1285:./Library/stm32f4xx_rcc.c ****   * @note     If SYSCLK source is HSE, function returns values based on HSE_VALUE(**)
1286:./Library/stm32f4xx_rcc.c ****   * @note     If SYSCLK source is PLL, function returns values based on HSE_VALUE(**) 
1287:./Library/stm32f4xx_rcc.c ****   *           or HSI_VALUE(*) multiplied/divided by the PLL factors.         
1288:./Library/stm32f4xx_rcc.c ****   * @note     (*) HSI_VALUE is a constant defined in stm32f4xx.h file (default value
ARM GAS  /tmp/ccGY1Mdk.s 			page 37


1289:./Library/stm32f4xx_rcc.c ****   *               16 MHz) but the real value may vary depending on the variations
1290:./Library/stm32f4xx_rcc.c ****   *               in voltage and temperature.
1291:./Library/stm32f4xx_rcc.c ****   * @note     (**) HSE_VALUE is a constant defined in stm32f4xx.h file (default value
1292:./Library/stm32f4xx_rcc.c ****   *                25 MHz), user has to ensure that HSE_VALUE is same as the real
1293:./Library/stm32f4xx_rcc.c ****   *                frequency of the crystal used. Otherwise, this function may
1294:./Library/stm32f4xx_rcc.c ****   *                have wrong result.
1295:./Library/stm32f4xx_rcc.c ****   *                
1296:./Library/stm32f4xx_rcc.c ****   * @note   The result of this function could be not correct when using fractional
1297:./Library/stm32f4xx_rcc.c ****   *         value for HSE crystal.
1298:./Library/stm32f4xx_rcc.c ****   *   
1299:./Library/stm32f4xx_rcc.c ****   * @param  RCC_Clocks: pointer to a RCC_ClocksTypeDef structure which will hold
1300:./Library/stm32f4xx_rcc.c ****   *          the clocks frequencies.
1301:./Library/stm32f4xx_rcc.c ****   *     
1302:./Library/stm32f4xx_rcc.c ****   * @note   This function can be used by the user application to compute the 
1303:./Library/stm32f4xx_rcc.c ****   *         baudrate for the communication peripherals or configure other parameters.
1304:./Library/stm32f4xx_rcc.c ****   * @note   Each time SYSCLK, HCLK, PCLK1 and/or PCLK2 clock changes, this function
1305:./Library/stm32f4xx_rcc.c ****   *         must be called to update the structure's field. Otherwise, any
1306:./Library/stm32f4xx_rcc.c ****   *         configuration based on this function will be incorrect.
1307:./Library/stm32f4xx_rcc.c ****   *    
1308:./Library/stm32f4xx_rcc.c ****   * @retval None
1309:./Library/stm32f4xx_rcc.c ****   */
1310:./Library/stm32f4xx_rcc.c **** void RCC_GetClocksFreq(RCC_ClocksTypeDef* RCC_Clocks)
1311:./Library/stm32f4xx_rcc.c **** {
 806              		.loc 1 1311 1 is_stmt 1 view -0
 807              		.cfi_startproc
 808              		@ args = 0, pretend = 0, frame = 0
 809              		@ frame_needed = 0, uses_anonymous_args = 0
 810              		@ link register save eliminated.
 811              		.loc 1 1311 1 is_stmt 0 view .LVU198
 812 0000 10B4     		push	{r4}
 813              	.LCFI0:
 814              		.cfi_def_cfa_offset 4
 815              		.cfi_offset 4, -4
1312:./Library/stm32f4xx_rcc.c ****   uint32_t tmp = 0, presc = 0, pllvco = 0, pllp = 2, pllsource = 0, pllm = 2;
 816              		.loc 1 1312 3 is_stmt 1 view .LVU199
 817              	.LVL47:
1313:./Library/stm32f4xx_rcc.c **** #if defined(STM32F412xG) || defined(STM32F413_423xx) || defined(STM32F446xx)  
1314:./Library/stm32f4xx_rcc.c ****   uint32_t pllr = 2;
1315:./Library/stm32f4xx_rcc.c **** #endif /* STM32F412xG || STM32F413_423xx || STM32F446xx */
1316:./Library/stm32f4xx_rcc.c ****   
1317:./Library/stm32f4xx_rcc.c ****   /* Get SYSCLK source -------------------------------------------------------*/
1318:./Library/stm32f4xx_rcc.c ****   tmp = RCC->CFGR & RCC_CFGR_SWS;
 818              		.loc 1 1318 3 view .LVU200
 819              		.loc 1 1318 12 is_stmt 0 view .LVU201
 820 0002 294B     		ldr	r3, .L73
 821 0004 9B68     		ldr	r3, [r3, #8]
 822              		.loc 1 1318 7 view .LVU202
 823 0006 03F00C03 		and	r3, r3, #12
 824              	.LVL48:
1319:./Library/stm32f4xx_rcc.c ****   
1320:./Library/stm32f4xx_rcc.c ****   switch (tmp)
 825              		.loc 1 1320 3 is_stmt 1 view .LVU203
 826 000a 042B     		cmp	r3, #4
 827 000c 23D0     		beq	.L65
 828 000e 082B     		cmp	r3, #8
 829 0010 24D0     		beq	.L66
 830 0012 13B1     		cbz	r3, .L72
ARM GAS  /tmp/ccGY1Mdk.s 			page 38


1321:./Library/stm32f4xx_rcc.c ****   {
1322:./Library/stm32f4xx_rcc.c ****   case 0x00:  /* HSI used as system clock source */
1323:./Library/stm32f4xx_rcc.c ****     RCC_Clocks->SYSCLK_Frequency = HSI_VALUE;
1324:./Library/stm32f4xx_rcc.c ****     break;
1325:./Library/stm32f4xx_rcc.c ****   case 0x04:  /* HSE used as system clock  source */
1326:./Library/stm32f4xx_rcc.c ****     RCC_Clocks->SYSCLK_Frequency = HSE_VALUE;
1327:./Library/stm32f4xx_rcc.c ****     break;
1328:./Library/stm32f4xx_rcc.c ****   case 0x08:  /* PLL P used as system clock  source */
1329:./Library/stm32f4xx_rcc.c ****     
1330:./Library/stm32f4xx_rcc.c ****     /* PLL_VCO = (HSE_VALUE or HSI_VALUE / PLLM) * PLLN
1331:./Library/stm32f4xx_rcc.c ****     SYSCLK = PLL_VCO / PLLP
1332:./Library/stm32f4xx_rcc.c ****     */    
1333:./Library/stm32f4xx_rcc.c ****     pllsource = (RCC->PLLCFGR & RCC_PLLCFGR_PLLSRC) >> 22;
1334:./Library/stm32f4xx_rcc.c ****     pllm = RCC->PLLCFGR & RCC_PLLCFGR_PLLM;
1335:./Library/stm32f4xx_rcc.c ****     
1336:./Library/stm32f4xx_rcc.c ****     if (pllsource != 0)
1337:./Library/stm32f4xx_rcc.c ****     {
1338:./Library/stm32f4xx_rcc.c ****       /* HSE used as PLL clock source */
1339:./Library/stm32f4xx_rcc.c ****       pllvco = (HSE_VALUE / pllm) * ((RCC->PLLCFGR & RCC_PLLCFGR_PLLN) >> 6);
1340:./Library/stm32f4xx_rcc.c ****     }
1341:./Library/stm32f4xx_rcc.c ****     else
1342:./Library/stm32f4xx_rcc.c ****     {
1343:./Library/stm32f4xx_rcc.c ****       /* HSI used as PLL clock source */
1344:./Library/stm32f4xx_rcc.c ****       pllvco = (HSI_VALUE / pllm) * ((RCC->PLLCFGR & RCC_PLLCFGR_PLLN) >> 6);      
1345:./Library/stm32f4xx_rcc.c ****     }
1346:./Library/stm32f4xx_rcc.c ****     
1347:./Library/stm32f4xx_rcc.c ****     pllp = (((RCC->PLLCFGR & RCC_PLLCFGR_PLLP) >>16) + 1 ) *2;
1348:./Library/stm32f4xx_rcc.c ****     RCC_Clocks->SYSCLK_Frequency = pllvco/pllp;
1349:./Library/stm32f4xx_rcc.c ****     break;
1350:./Library/stm32f4xx_rcc.c **** 
1351:./Library/stm32f4xx_rcc.c **** #if defined(STM32F412xG) || defined(STM32F413_423xx) || defined(STM32F446xx)
1352:./Library/stm32f4xx_rcc.c ****   case 0x0C:  /* PLL R used as system clock  source */
1353:./Library/stm32f4xx_rcc.c ****     /* PLL_VCO = (HSE_VALUE or HSI_VALUE / PLLM) * PLLN
1354:./Library/stm32f4xx_rcc.c ****     SYSCLK = PLL_VCO / PLLR
1355:./Library/stm32f4xx_rcc.c ****     */    
1356:./Library/stm32f4xx_rcc.c ****     pllsource = (RCC->PLLCFGR & RCC_PLLCFGR_PLLSRC) >> 22;
1357:./Library/stm32f4xx_rcc.c ****     pllm = RCC->PLLCFGR & RCC_PLLCFGR_PLLM;
1358:./Library/stm32f4xx_rcc.c ****     
1359:./Library/stm32f4xx_rcc.c ****     if (pllsource != 0)
1360:./Library/stm32f4xx_rcc.c ****     {
1361:./Library/stm32f4xx_rcc.c ****       /* HSE used as PLL clock source */
1362:./Library/stm32f4xx_rcc.c ****       pllvco = (HSE_VALUE / pllm) * ((RCC->PLLCFGR & RCC_PLLCFGR_PLLN) >> 6);
1363:./Library/stm32f4xx_rcc.c ****     }
1364:./Library/stm32f4xx_rcc.c ****     else
1365:./Library/stm32f4xx_rcc.c ****     {
1366:./Library/stm32f4xx_rcc.c ****       /* HSI used as PLL clock source */
1367:./Library/stm32f4xx_rcc.c ****       pllvco = (HSI_VALUE / pllm) * ((RCC->PLLCFGR & RCC_PLLCFGR_PLLN) >> 6);      
1368:./Library/stm32f4xx_rcc.c ****     }
1369:./Library/stm32f4xx_rcc.c ****     
1370:./Library/stm32f4xx_rcc.c ****     pllr = (((RCC->PLLCFGR & RCC_PLLCFGR_PLLR) >>28) + 1 ) *2;
1371:./Library/stm32f4xx_rcc.c ****     RCC_Clocks->SYSCLK_Frequency = pllvco/pllr;    
1372:./Library/stm32f4xx_rcc.c ****     break;
1373:./Library/stm32f4xx_rcc.c **** #endif /* STM32F412xG || STM32F413_423xx || STM32F446xx */
1374:./Library/stm32f4xx_rcc.c ****     
1375:./Library/stm32f4xx_rcc.c ****   default:
1376:./Library/stm32f4xx_rcc.c ****     RCC_Clocks->SYSCLK_Frequency = HSI_VALUE;
 831              		.loc 1 1376 5 view .LVU204
ARM GAS  /tmp/ccGY1Mdk.s 			page 39


 832              		.loc 1 1376 34 is_stmt 0 view .LVU205
 833 0014 254B     		ldr	r3, .L73+4
 834              	.LVL49:
 835              		.loc 1 1376 34 view .LVU206
 836 0016 0360     		str	r3, [r0]
1377:./Library/stm32f4xx_rcc.c ****     break;
 837              		.loc 1 1377 5 is_stmt 1 view .LVU207
 838 0018 01E0     		b	.L68
 839              	.LVL50:
 840              	.L72:
1323:./Library/stm32f4xx_rcc.c ****     break;
 841              		.loc 1 1323 5 view .LVU208
1323:./Library/stm32f4xx_rcc.c ****     break;
 842              		.loc 1 1323 34 is_stmt 0 view .LVU209
 843 001a 244B     		ldr	r3, .L73+4
 844              	.LVL51:
1323:./Library/stm32f4xx_rcc.c ****     break;
 845              		.loc 1 1323 34 view .LVU210
 846 001c 0360     		str	r3, [r0]
1324:./Library/stm32f4xx_rcc.c ****   case 0x04:  /* HSE used as system clock  source */
 847              		.loc 1 1324 5 is_stmt 1 view .LVU211
 848              	.LVL52:
 849              	.L68:
1378:./Library/stm32f4xx_rcc.c ****   }
1379:./Library/stm32f4xx_rcc.c ****   /* Compute HCLK, PCLK1 and PCLK2 clocks frequencies ------------------------*/
1380:./Library/stm32f4xx_rcc.c ****   
1381:./Library/stm32f4xx_rcc.c ****   /* Get HCLK prescaler */
1382:./Library/stm32f4xx_rcc.c ****   tmp = RCC->CFGR & RCC_CFGR_HPRE;
 850              		.loc 1 1382 3 view .LVU212
 851              		.loc 1 1382 12 is_stmt 0 view .LVU213
 852 001e 224C     		ldr	r4, .L73
 853 0020 A368     		ldr	r3, [r4, #8]
 854              	.LVL53:
1383:./Library/stm32f4xx_rcc.c ****   tmp = tmp >> 4;
 855              		.loc 1 1383 3 is_stmt 1 view .LVU214
 856              		.loc 1 1383 7 is_stmt 0 view .LVU215
 857 0022 C3F30313 		ubfx	r3, r3, #4, #4
 858              	.LVL54:
1384:./Library/stm32f4xx_rcc.c ****   presc = APBAHBPrescTable[tmp];
 859              		.loc 1 1384 3 is_stmt 1 view .LVU216
 860              		.loc 1 1384 27 is_stmt 0 view .LVU217
 861 0026 2249     		ldr	r1, .L73+8
 862 0028 CA5C     		ldrb	r2, [r1, r3]	@ zero_extendqisi2
 863 002a D2B2     		uxtb	r2, r2
 864              	.LVL55:
1385:./Library/stm32f4xx_rcc.c ****   /* HCLK clock frequency */
1386:./Library/stm32f4xx_rcc.c ****   RCC_Clocks->HCLK_Frequency = RCC_Clocks->SYSCLK_Frequency >> presc;
 865              		.loc 1 1386 3 is_stmt 1 view .LVU218
 866              		.loc 1 1386 42 is_stmt 0 view .LVU219
 867 002c 0368     		ldr	r3, [r0]
 868              	.LVL56:
 869              		.loc 1 1386 61 view .LVU220
 870 002e D340     		lsrs	r3, r3, r2
 871              		.loc 1 1386 30 view .LVU221
 872 0030 4360     		str	r3, [r0, #4]
1387:./Library/stm32f4xx_rcc.c **** 
1388:./Library/stm32f4xx_rcc.c ****   /* Get PCLK1 prescaler */
ARM GAS  /tmp/ccGY1Mdk.s 			page 40


1389:./Library/stm32f4xx_rcc.c ****   tmp = RCC->CFGR & RCC_CFGR_PPRE1;
 873              		.loc 1 1389 3 is_stmt 1 view .LVU222
 874              		.loc 1 1389 12 is_stmt 0 view .LVU223
 875 0032 A268     		ldr	r2, [r4, #8]
 876              	.LVL57:
1390:./Library/stm32f4xx_rcc.c ****   tmp = tmp >> 10;
 877              		.loc 1 1390 3 is_stmt 1 view .LVU224
 878              		.loc 1 1390 7 is_stmt 0 view .LVU225
 879 0034 C2F38222 		ubfx	r2, r2, #10, #3
 880              	.LVL58:
1391:./Library/stm32f4xx_rcc.c ****   presc = APBAHBPrescTable[tmp];
 881              		.loc 1 1391 3 is_stmt 1 view .LVU226
 882              		.loc 1 1391 27 is_stmt 0 view .LVU227
 883 0038 8A5C     		ldrb	r2, [r1, r2]	@ zero_extendqisi2
 884              	.LVL59:
 885              		.loc 1 1391 27 view .LVU228
 886 003a D2B2     		uxtb	r2, r2
 887              	.LVL60:
1392:./Library/stm32f4xx_rcc.c ****   /* PCLK1 clock frequency */
1393:./Library/stm32f4xx_rcc.c ****   RCC_Clocks->PCLK1_Frequency = RCC_Clocks->HCLK_Frequency >> presc;
 888              		.loc 1 1393 3 is_stmt 1 view .LVU229
 889              		.loc 1 1393 60 is_stmt 0 view .LVU230
 890 003c 23FA02F2 		lsr	r2, r3, r2
 891              	.LVL61:
 892              		.loc 1 1393 31 view .LVU231
 893 0040 8260     		str	r2, [r0, #8]
1394:./Library/stm32f4xx_rcc.c **** 
1395:./Library/stm32f4xx_rcc.c ****   /* Get PCLK2 prescaler */
1396:./Library/stm32f4xx_rcc.c ****   tmp = RCC->CFGR & RCC_CFGR_PPRE2;
 894              		.loc 1 1396 3 is_stmt 1 view .LVU232
 895              		.loc 1 1396 12 is_stmt 0 view .LVU233
 896 0042 A268     		ldr	r2, [r4, #8]
 897              	.LVL62:
1397:./Library/stm32f4xx_rcc.c ****   tmp = tmp >> 13;
 898              		.loc 1 1397 3 is_stmt 1 view .LVU234
 899              		.loc 1 1397 7 is_stmt 0 view .LVU235
 900 0044 C2F34232 		ubfx	r2, r2, #13, #3
 901              	.LVL63:
1398:./Library/stm32f4xx_rcc.c ****   presc = APBAHBPrescTable[tmp];
 902              		.loc 1 1398 3 is_stmt 1 view .LVU236
 903              		.loc 1 1398 27 is_stmt 0 view .LVU237
 904 0048 8A5C     		ldrb	r2, [r1, r2]	@ zero_extendqisi2
 905              	.LVL64:
 906              		.loc 1 1398 27 view .LVU238
 907 004a D2B2     		uxtb	r2, r2
 908              	.LVL65:
1399:./Library/stm32f4xx_rcc.c ****   /* PCLK2 clock frequency */
1400:./Library/stm32f4xx_rcc.c ****   RCC_Clocks->PCLK2_Frequency = RCC_Clocks->HCLK_Frequency >> presc;
 909              		.loc 1 1400 3 is_stmt 1 view .LVU239
 910              		.loc 1 1400 60 is_stmt 0 view .LVU240
 911 004c D340     		lsrs	r3, r3, r2
 912              		.loc 1 1400 31 view .LVU241
 913 004e C360     		str	r3, [r0, #12]
1401:./Library/stm32f4xx_rcc.c **** }
 914              		.loc 1 1401 1 view .LVU242
 915 0050 5DF8044B 		ldr	r4, [sp], #4
 916              	.LCFI1:
ARM GAS  /tmp/ccGY1Mdk.s 			page 41


 917              		.cfi_remember_state
 918              		.cfi_restore 4
 919              		.cfi_def_cfa_offset 0
 920 0054 7047     		bx	lr
 921              	.LVL66:
 922              	.L65:
 923              	.LCFI2:
 924              		.cfi_restore_state
1326:./Library/stm32f4xx_rcc.c ****     break;
 925              		.loc 1 1326 5 is_stmt 1 view .LVU243
1326:./Library/stm32f4xx_rcc.c ****     break;
 926              		.loc 1 1326 34 is_stmt 0 view .LVU244
 927 0056 174B     		ldr	r3, .L73+12
 928              	.LVL67:
1326:./Library/stm32f4xx_rcc.c ****     break;
 929              		.loc 1 1326 34 view .LVU245
 930 0058 0360     		str	r3, [r0]
1327:./Library/stm32f4xx_rcc.c ****   case 0x08:  /* PLL P used as system clock  source */
 931              		.loc 1 1327 5 is_stmt 1 view .LVU246
 932 005a E0E7     		b	.L68
 933              	.LVL68:
 934              	.L66:
1333:./Library/stm32f4xx_rcc.c ****     pllm = RCC->PLLCFGR & RCC_PLLCFGR_PLLM;
 935              		.loc 1 1333 5 view .LVU247
1333:./Library/stm32f4xx_rcc.c ****     pllm = RCC->PLLCFGR & RCC_PLLCFGR_PLLM;
 936              		.loc 1 1333 21 is_stmt 0 view .LVU248
 937 005c 124B     		ldr	r3, .L73
 938              	.LVL69:
1333:./Library/stm32f4xx_rcc.c ****     pllm = RCC->PLLCFGR & RCC_PLLCFGR_PLLM;
 939              		.loc 1 1333 21 view .LVU249
 940 005e 5968     		ldr	r1, [r3, #4]
 941              	.LVL70:
1334:./Library/stm32f4xx_rcc.c ****     
 942              		.loc 1 1334 5 is_stmt 1 view .LVU250
1334:./Library/stm32f4xx_rcc.c ****     
 943              		.loc 1 1334 15 is_stmt 0 view .LVU251
 944 0060 5A68     		ldr	r2, [r3, #4]
1334:./Library/stm32f4xx_rcc.c ****     
 945              		.loc 1 1334 10 view .LVU252
 946 0062 02F03F02 		and	r2, r2, #63
 947              	.LVL71:
1336:./Library/stm32f4xx_rcc.c ****     {
 948              		.loc 1 1336 5 is_stmt 1 view .LVU253
1336:./Library/stm32f4xx_rcc.c ****     {
 949              		.loc 1 1336 8 is_stmt 0 view .LVU254
 950 0066 11F4800F 		tst	r1, #4194304
 951 006a 12D0     		beq	.L69
1339:./Library/stm32f4xx_rcc.c ****     }
 952              		.loc 1 1339 7 is_stmt 1 view .LVU255
1339:./Library/stm32f4xx_rcc.c ****     }
 953              		.loc 1 1339 27 is_stmt 0 view .LVU256
 954 006c 114B     		ldr	r3, .L73+12
 955 006e B3FBF2F3 		udiv	r3, r3, r2
1339:./Library/stm32f4xx_rcc.c ****     }
 956              		.loc 1 1339 42 view .LVU257
 957 0072 0D4A     		ldr	r2, .L73
 958              	.LVL72:
ARM GAS  /tmp/ccGY1Mdk.s 			page 42


1339:./Library/stm32f4xx_rcc.c ****     }
 959              		.loc 1 1339 42 view .LVU258
 960 0074 5268     		ldr	r2, [r2, #4]
1339:./Library/stm32f4xx_rcc.c ****     }
 961              		.loc 1 1339 72 view .LVU259
 962 0076 C2F38812 		ubfx	r2, r2, #6, #9
1339:./Library/stm32f4xx_rcc.c ****     }
 963              		.loc 1 1339 14 view .LVU260
 964 007a 02FB03F3 		mul	r3, r2, r3
 965              	.LVL73:
 966              	.L70:
1347:./Library/stm32f4xx_rcc.c ****     RCC_Clocks->SYSCLK_Frequency = pllvco/pllp;
 967              		.loc 1 1347 5 is_stmt 1 view .LVU261
1347:./Library/stm32f4xx_rcc.c ****     RCC_Clocks->SYSCLK_Frequency = pllvco/pllp;
 968              		.loc 1 1347 18 is_stmt 0 view .LVU262
 969 007e 0A4A     		ldr	r2, .L73
 970 0080 5268     		ldr	r2, [r2, #4]
1347:./Library/stm32f4xx_rcc.c ****     RCC_Clocks->SYSCLK_Frequency = pllvco/pllp;
 971              		.loc 1 1347 48 view .LVU263
 972 0082 C2F30142 		ubfx	r2, r2, #16, #2
1347:./Library/stm32f4xx_rcc.c ****     RCC_Clocks->SYSCLK_Frequency = pllvco/pllp;
 973              		.loc 1 1347 54 view .LVU264
 974 0086 0132     		adds	r2, r2, #1
1347:./Library/stm32f4xx_rcc.c ****     RCC_Clocks->SYSCLK_Frequency = pllvco/pllp;
 975              		.loc 1 1347 10 view .LVU265
 976 0088 5200     		lsls	r2, r2, #1
 977              	.LVL74:
1348:./Library/stm32f4xx_rcc.c ****     break;
 978              		.loc 1 1348 5 is_stmt 1 view .LVU266
1348:./Library/stm32f4xx_rcc.c ****     break;
 979              		.loc 1 1348 42 is_stmt 0 view .LVU267
 980 008a B3FBF2F3 		udiv	r3, r3, r2
 981              	.LVL75:
1348:./Library/stm32f4xx_rcc.c ****     break;
 982              		.loc 1 1348 34 view .LVU268
 983 008e 0360     		str	r3, [r0]
1349:./Library/stm32f4xx_rcc.c **** 
 984              		.loc 1 1349 5 is_stmt 1 view .LVU269
 985 0090 C5E7     		b	.L68
 986              	.LVL76:
 987              	.L69:
1344:./Library/stm32f4xx_rcc.c ****     }
 988              		.loc 1 1344 7 view .LVU270
1344:./Library/stm32f4xx_rcc.c ****     }
 989              		.loc 1 1344 27 is_stmt 0 view .LVU271
 990 0092 064B     		ldr	r3, .L73+4
 991 0094 B3FBF2F3 		udiv	r3, r3, r2
1344:./Library/stm32f4xx_rcc.c ****     }
 992              		.loc 1 1344 42 view .LVU272
 993 0098 034A     		ldr	r2, .L73
 994              	.LVL77:
1344:./Library/stm32f4xx_rcc.c ****     }
 995              		.loc 1 1344 42 view .LVU273
 996 009a 5268     		ldr	r2, [r2, #4]
1344:./Library/stm32f4xx_rcc.c ****     }
 997              		.loc 1 1344 72 view .LVU274
 998 009c C2F38812 		ubfx	r2, r2, #6, #9
ARM GAS  /tmp/ccGY1Mdk.s 			page 43


1344:./Library/stm32f4xx_rcc.c ****     }
 999              		.loc 1 1344 14 view .LVU275
 1000 00a0 02FB03F3 		mul	r3, r2, r3
 1001              	.LVL78:
1344:./Library/stm32f4xx_rcc.c ****     }
 1002              		.loc 1 1344 14 view .LVU276
 1003 00a4 EBE7     		b	.L70
 1004              	.L74:
 1005 00a6 00BF     		.align	2
 1006              	.L73:
 1007 00a8 00380240 		.word	1073887232
 1008 00ac 0024F400 		.word	16000000
 1009 00b0 00000000 		.word	APBAHBPrescTable
 1010 00b4 40787D01 		.word	25000000
 1011              		.cfi_endproc
 1012              	.LFE144:
 1014              		.section	.text.RCC_RTCCLKConfig,"ax",%progbits
 1015              		.align	1
 1016              		.global	RCC_RTCCLKConfig
 1017              		.syntax unified
 1018              		.thumb
 1019              		.thumb_func
 1021              	RCC_RTCCLKConfig:
 1022              	.LVL79:
 1023              	.LFB145:
1402:./Library/stm32f4xx_rcc.c **** 
1403:./Library/stm32f4xx_rcc.c **** /**
1404:./Library/stm32f4xx_rcc.c ****   * @}
1405:./Library/stm32f4xx_rcc.c ****   */
1406:./Library/stm32f4xx_rcc.c **** 
1407:./Library/stm32f4xx_rcc.c **** /** @defgroup RCC_Group3 Peripheral clocks configuration functions
1408:./Library/stm32f4xx_rcc.c ****  *  @brief   Peripheral clocks configuration functions 
1409:./Library/stm32f4xx_rcc.c ****  *
1410:./Library/stm32f4xx_rcc.c **** @verbatim   
1411:./Library/stm32f4xx_rcc.c ****  ===============================================================================
1412:./Library/stm32f4xx_rcc.c ****               ##### Peripheral clocks configuration functions #####
1413:./Library/stm32f4xx_rcc.c ****  ===============================================================================  
1414:./Library/stm32f4xx_rcc.c ****     [..] This section provide functions allowing to configure the Peripheral clocks. 
1415:./Library/stm32f4xx_rcc.c ****   
1416:./Library/stm32f4xx_rcc.c ****       (#) The RTC clock which is derived from the LSI, LSE or HSE clock divided 
1417:./Library/stm32f4xx_rcc.c ****           by 2 to 31.
1418:./Library/stm32f4xx_rcc.c ****      
1419:./Library/stm32f4xx_rcc.c ****       (#) After restart from Reset or wakeup from STANDBY, all peripherals are off
1420:./Library/stm32f4xx_rcc.c ****           except internal SRAM, Flash and JTAG. Before to start using a peripheral 
1421:./Library/stm32f4xx_rcc.c ****           you have to enable its interface clock. You can do this using 
1422:./Library/stm32f4xx_rcc.c ****           RCC_AHBPeriphClockCmd(), RCC_APB2PeriphClockCmd() and RCC_APB1PeriphClockCmd() functions.
1423:./Library/stm32f4xx_rcc.c **** 
1424:./Library/stm32f4xx_rcc.c ****       (#) To reset the peripherals configuration (to the default state after device reset)
1425:./Library/stm32f4xx_rcc.c ****           you can use RCC_AHBPeriphResetCmd(), RCC_APB2PeriphResetCmd() and 
1426:./Library/stm32f4xx_rcc.c ****           RCC_APB1PeriphResetCmd() functions.
1427:./Library/stm32f4xx_rcc.c ****      
1428:./Library/stm32f4xx_rcc.c ****       (#) To further reduce power consumption in SLEEP mode the peripheral clocks 
1429:./Library/stm32f4xx_rcc.c ****           can be disabled prior to executing the WFI or WFE instructions. 
1430:./Library/stm32f4xx_rcc.c ****           You can do this using RCC_AHBPeriphClockLPModeCmd(), 
1431:./Library/stm32f4xx_rcc.c ****           RCC_APB2PeriphClockLPModeCmd() and RCC_APB1PeriphClockLPModeCmd() functions.  
1432:./Library/stm32f4xx_rcc.c **** 
1433:./Library/stm32f4xx_rcc.c **** @endverbatim
ARM GAS  /tmp/ccGY1Mdk.s 			page 44


1434:./Library/stm32f4xx_rcc.c ****   * @{
1435:./Library/stm32f4xx_rcc.c ****   */
1436:./Library/stm32f4xx_rcc.c **** 
1437:./Library/stm32f4xx_rcc.c **** /**
1438:./Library/stm32f4xx_rcc.c ****   * @brief  Configures the RTC clock (RTCCLK).
1439:./Library/stm32f4xx_rcc.c ****   * @note   As the RTC clock configuration bits are in the Backup domain and write
1440:./Library/stm32f4xx_rcc.c ****   *         access is denied to this domain after reset, you have to enable write
1441:./Library/stm32f4xx_rcc.c ****   *         access using PWR_BackupAccessCmd(ENABLE) function before to configure
1442:./Library/stm32f4xx_rcc.c ****   *         the RTC clock source (to be done once after reset).    
1443:./Library/stm32f4xx_rcc.c ****   * @note   Once the RTC clock is configured it can't be changed unless the  
1444:./Library/stm32f4xx_rcc.c ****   *         Backup domain is reset using RCC_BackupResetCmd() function, or by
1445:./Library/stm32f4xx_rcc.c ****   *         a Power On Reset (POR).
1446:./Library/stm32f4xx_rcc.c ****   *    
1447:./Library/stm32f4xx_rcc.c ****   * @param  RCC_RTCCLKSource: specifies the RTC clock source.
1448:./Library/stm32f4xx_rcc.c ****   *          This parameter can be one of the following values:
1449:./Library/stm32f4xx_rcc.c ****   *            @arg RCC_RTCCLKSource_LSE: LSE selected as RTC clock
1450:./Library/stm32f4xx_rcc.c ****   *            @arg RCC_RTCCLKSource_LSI: LSI selected as RTC clock
1451:./Library/stm32f4xx_rcc.c ****   *            @arg RCC_RTCCLKSource_HSE_Divx: HSE clock divided by x selected
1452:./Library/stm32f4xx_rcc.c ****   *                                            as RTC clock, where x:[2,31]
1453:./Library/stm32f4xx_rcc.c ****   *  
1454:./Library/stm32f4xx_rcc.c ****   * @note   If the LSE or LSI is used as RTC clock source, the RTC continues to
1455:./Library/stm32f4xx_rcc.c ****   *         work in STOP and STANDBY modes, and can be used as wakeup source.
1456:./Library/stm32f4xx_rcc.c ****   *         However, when the HSE clock is used as RTC clock source, the RTC
1457:./Library/stm32f4xx_rcc.c ****   *         cannot be used in STOP and STANDBY modes.    
1458:./Library/stm32f4xx_rcc.c ****   * @note   The maximum input clock frequency for RTC is 1MHz (when using HSE as
1459:./Library/stm32f4xx_rcc.c ****   *         RTC clock source).
1460:./Library/stm32f4xx_rcc.c ****   *  
1461:./Library/stm32f4xx_rcc.c ****   * @retval None
1462:./Library/stm32f4xx_rcc.c ****   */
1463:./Library/stm32f4xx_rcc.c **** void RCC_RTCCLKConfig(uint32_t RCC_RTCCLKSource)
1464:./Library/stm32f4xx_rcc.c **** {
 1024              		.loc 1 1464 1 is_stmt 1 view -0
 1025              		.cfi_startproc
 1026              		@ args = 0, pretend = 0, frame = 0
 1027              		@ frame_needed = 0, uses_anonymous_args = 0
 1028              		@ link register save eliminated.
1465:./Library/stm32f4xx_rcc.c ****   uint32_t tmpreg = 0;
 1029              		.loc 1 1465 3 view .LVU278
1466:./Library/stm32f4xx_rcc.c **** 
1467:./Library/stm32f4xx_rcc.c ****   /* Check the parameters */
1468:./Library/stm32f4xx_rcc.c ****   assert_param(IS_RCC_RTCCLK_SOURCE(RCC_RTCCLKSource));
 1030              		.loc 1 1468 3 view .LVU279
1469:./Library/stm32f4xx_rcc.c **** 
1470:./Library/stm32f4xx_rcc.c ****   if ((RCC_RTCCLKSource & 0x00000300) == 0x00000300)
 1031              		.loc 1 1470 3 view .LVU280
 1032              		.loc 1 1470 25 is_stmt 0 view .LVU281
 1033 0000 00F44073 		and	r3, r0, #768
 1034              		.loc 1 1470 6 view .LVU282
 1035 0004 B3F5407F 		cmp	r3, #768
 1036 0008 06D0     		beq	.L77
 1037              	.LVL80:
 1038              	.L76:
1471:./Library/stm32f4xx_rcc.c ****   { /* If HSE is selected as RTC clock source, configure HSE division factor for RTC clock */
1472:./Library/stm32f4xx_rcc.c ****     tmpreg = RCC->CFGR;
1473:./Library/stm32f4xx_rcc.c **** 
1474:./Library/stm32f4xx_rcc.c ****     /* Clear RTCPRE[4:0] bits */
1475:./Library/stm32f4xx_rcc.c ****     tmpreg &= ~RCC_CFGR_RTCPRE;
ARM GAS  /tmp/ccGY1Mdk.s 			page 45


1476:./Library/stm32f4xx_rcc.c **** 
1477:./Library/stm32f4xx_rcc.c ****     /* Configure HSE division factor for RTC clock */
1478:./Library/stm32f4xx_rcc.c ****     tmpreg |= (RCC_RTCCLKSource & 0xFFFFCFF);
1479:./Library/stm32f4xx_rcc.c **** 
1480:./Library/stm32f4xx_rcc.c ****     /* Store the new value */
1481:./Library/stm32f4xx_rcc.c ****     RCC->CFGR = tmpreg;
1482:./Library/stm32f4xx_rcc.c ****   }
1483:./Library/stm32f4xx_rcc.c ****     
1484:./Library/stm32f4xx_rcc.c ****   /* Select the RTC clock source */
1485:./Library/stm32f4xx_rcc.c ****   RCC->BDCR |= (RCC_RTCCLKSource & 0x00000FFF);
 1039              		.loc 1 1485 3 is_stmt 1 view .LVU283
 1040              		.loc 1 1485 6 is_stmt 0 view .LVU284
 1041 000a 094A     		ldr	r2, .L78
 1042 000c 136F     		ldr	r3, [r2, #112]
 1043              		.loc 1 1485 34 view .LVU285
 1044 000e C0F30B00 		ubfx	r0, r0, #0, #12
 1045              	.LVL81:
 1046              		.loc 1 1485 13 view .LVU286
 1047 0012 0343     		orrs	r3, r3, r0
 1048 0014 1367     		str	r3, [r2, #112]
1486:./Library/stm32f4xx_rcc.c **** }
 1049              		.loc 1 1486 1 view .LVU287
 1050 0016 7047     		bx	lr
 1051              	.LVL82:
 1052              	.L77:
1472:./Library/stm32f4xx_rcc.c **** 
 1053              		.loc 1 1472 5 is_stmt 1 view .LVU288
1472:./Library/stm32f4xx_rcc.c **** 
 1054              		.loc 1 1472 12 is_stmt 0 view .LVU289
 1055 0018 0549     		ldr	r1, .L78
 1056 001a 8A68     		ldr	r2, [r1, #8]
 1057              	.LVL83:
1475:./Library/stm32f4xx_rcc.c **** 
 1058              		.loc 1 1475 5 is_stmt 1 view .LVU290
1475:./Library/stm32f4xx_rcc.c **** 
 1059              		.loc 1 1475 12 is_stmt 0 view .LVU291
 1060 001c 22F4F812 		bic	r2, r2, #2031616
 1061              	.LVL84:
1478:./Library/stm32f4xx_rcc.c **** 
 1062              		.loc 1 1478 5 is_stmt 1 view .LVU292
1478:./Library/stm32f4xx_rcc.c **** 
 1063              		.loc 1 1478 33 is_stmt 0 view .LVU293
 1064 0020 20F07043 		bic	r3, r0, #-268435456
 1065 0024 23F44073 		bic	r3, r3, #768
1478:./Library/stm32f4xx_rcc.c **** 
 1066              		.loc 1 1478 12 view .LVU294
 1067 0028 1343     		orrs	r3, r3, r2
 1068              	.LVL85:
1481:./Library/stm32f4xx_rcc.c ****   }
 1069              		.loc 1 1481 5 is_stmt 1 view .LVU295
1481:./Library/stm32f4xx_rcc.c ****   }
 1070              		.loc 1 1481 15 is_stmt 0 view .LVU296
 1071 002a 8B60     		str	r3, [r1, #8]
 1072 002c EDE7     		b	.L76
 1073              	.L79:
 1074 002e 00BF     		.align	2
 1075              	.L78:
ARM GAS  /tmp/ccGY1Mdk.s 			page 46


 1076 0030 00380240 		.word	1073887232
 1077              		.cfi_endproc
 1078              	.LFE145:
 1080              		.section	.text.RCC_RTCCLKCmd,"ax",%progbits
 1081              		.align	1
 1082              		.global	RCC_RTCCLKCmd
 1083              		.syntax unified
 1084              		.thumb
 1085              		.thumb_func
 1087              	RCC_RTCCLKCmd:
 1088              	.LVL86:
 1089              	.LFB146:
1487:./Library/stm32f4xx_rcc.c **** 
1488:./Library/stm32f4xx_rcc.c **** /**
1489:./Library/stm32f4xx_rcc.c ****   * @brief  Enables or disables the RTC clock.
1490:./Library/stm32f4xx_rcc.c ****   * @note   This function must be used only after the RTC clock source was selected
1491:./Library/stm32f4xx_rcc.c ****   *         using the RCC_RTCCLKConfig function.
1492:./Library/stm32f4xx_rcc.c ****   * @param  NewState: new state of the RTC clock. This parameter can be: ENABLE or DISABLE.
1493:./Library/stm32f4xx_rcc.c ****   * @retval None
1494:./Library/stm32f4xx_rcc.c ****   */
1495:./Library/stm32f4xx_rcc.c **** void RCC_RTCCLKCmd(FunctionalState NewState)
1496:./Library/stm32f4xx_rcc.c **** {
 1090              		.loc 1 1496 1 is_stmt 1 view -0
 1091              		.cfi_startproc
 1092              		@ args = 0, pretend = 0, frame = 0
 1093              		@ frame_needed = 0, uses_anonymous_args = 0
 1094              		@ link register save eliminated.
1497:./Library/stm32f4xx_rcc.c ****   /* Check the parameters */
1498:./Library/stm32f4xx_rcc.c ****   assert_param(IS_FUNCTIONAL_STATE(NewState));
 1095              		.loc 1 1498 3 view .LVU298
1499:./Library/stm32f4xx_rcc.c **** 
1500:./Library/stm32f4xx_rcc.c ****   *(__IO uint32_t *) BDCR_RTCEN_BB = (uint32_t)NewState;
 1096              		.loc 1 1500 3 view .LVU299
 1097              		.loc 1 1500 36 is_stmt 0 view .LVU300
 1098 0000 014B     		ldr	r3, .L81
 1099 0002 C3F83C0E 		str	r0, [r3, #3644]
1501:./Library/stm32f4xx_rcc.c **** }
 1100              		.loc 1 1501 1 view .LVU301
 1101 0006 7047     		bx	lr
 1102              	.L82:
 1103              		.align	2
 1104              	.L81:
 1105 0008 00004742 		.word	1111949312
 1106              		.cfi_endproc
 1107              	.LFE146:
 1109              		.section	.text.RCC_BackupResetCmd,"ax",%progbits
 1110              		.align	1
 1111              		.global	RCC_BackupResetCmd
 1112              		.syntax unified
 1113              		.thumb
 1114              		.thumb_func
 1116              	RCC_BackupResetCmd:
 1117              	.LVL87:
 1118              	.LFB147:
1502:./Library/stm32f4xx_rcc.c **** 
1503:./Library/stm32f4xx_rcc.c **** /**
1504:./Library/stm32f4xx_rcc.c ****   * @brief  Forces or releases the Backup domain reset.
ARM GAS  /tmp/ccGY1Mdk.s 			page 47


1505:./Library/stm32f4xx_rcc.c ****   * @note   This function resets the RTC peripheral (including the backup registers)
1506:./Library/stm32f4xx_rcc.c ****   *         and the RTC clock source selection in RCC_CSR register.
1507:./Library/stm32f4xx_rcc.c ****   * @note   The BKPSRAM is not affected by this reset.    
1508:./Library/stm32f4xx_rcc.c ****   * @param  NewState: new state of the Backup domain reset.
1509:./Library/stm32f4xx_rcc.c ****   *          This parameter can be: ENABLE or DISABLE.
1510:./Library/stm32f4xx_rcc.c ****   * @retval None
1511:./Library/stm32f4xx_rcc.c ****   */
1512:./Library/stm32f4xx_rcc.c **** void RCC_BackupResetCmd(FunctionalState NewState)
1513:./Library/stm32f4xx_rcc.c **** {
 1119              		.loc 1 1513 1 is_stmt 1 view -0
 1120              		.cfi_startproc
 1121              		@ args = 0, pretend = 0, frame = 0
 1122              		@ frame_needed = 0, uses_anonymous_args = 0
 1123              		@ link register save eliminated.
1514:./Library/stm32f4xx_rcc.c ****   /* Check the parameters */
1515:./Library/stm32f4xx_rcc.c ****   assert_param(IS_FUNCTIONAL_STATE(NewState));
 1124              		.loc 1 1515 3 view .LVU303
1516:./Library/stm32f4xx_rcc.c ****   *(__IO uint32_t *) BDCR_BDRST_BB = (uint32_t)NewState;
 1125              		.loc 1 1516 3 view .LVU304
 1126              		.loc 1 1516 36 is_stmt 0 view .LVU305
 1127 0000 014B     		ldr	r3, .L84
 1128 0002 C3F8400E 		str	r0, [r3, #3648]
1517:./Library/stm32f4xx_rcc.c **** }
 1129              		.loc 1 1517 1 view .LVU306
 1130 0006 7047     		bx	lr
 1131              	.L85:
 1132              		.align	2
 1133              	.L84:
 1134 0008 00004742 		.word	1111949312
 1135              		.cfi_endproc
 1136              	.LFE147:
 1138              		.section	.text.RCC_I2SCLKConfig,"ax",%progbits
 1139              		.align	1
 1140              		.global	RCC_I2SCLKConfig
 1141              		.syntax unified
 1142              		.thumb
 1143              		.thumb_func
 1145              	RCC_I2SCLKConfig:
 1146              	.LVL88:
 1147              	.LFB148:
1518:./Library/stm32f4xx_rcc.c **** 
1519:./Library/stm32f4xx_rcc.c **** #if defined (STM32F412xG) || defined(STM32F413_423xx) || defined(STM32F446xx)
1520:./Library/stm32f4xx_rcc.c **** /**
1521:./Library/stm32f4xx_rcc.c ****   * @brief  Configures the I2S clock source (I2SCLK).
1522:./Library/stm32f4xx_rcc.c ****   * @note   This function must be called before enabling the I2S APB clock.
1523:./Library/stm32f4xx_rcc.c ****   *
1524:./Library/stm32f4xx_rcc.c ****   * @param  RCC_I2SAPBx: specifies the APBx I2S clock source.
1525:./Library/stm32f4xx_rcc.c ****   *          This parameter can be one of the following values:
1526:./Library/stm32f4xx_rcc.c ****   *            @arg RCC_I2SBus_APB1: I2S peripheral instance is on APB1 Bus
1527:./Library/stm32f4xx_rcc.c ****   *            @arg RCC_I2SBus_APB2: I2S peripheral instance is on APB2 Bus
1528:./Library/stm32f4xx_rcc.c ****   *
1529:./Library/stm32f4xx_rcc.c ****   * @param  RCC_I2SCLKSource: specifies the I2S clock source.
1530:./Library/stm32f4xx_rcc.c ****   *          This parameter can be one of the following values:
1531:./Library/stm32f4xx_rcc.c ****   *            @arg RCC_I2SCLKSource_PLLI2S: PLLI2S clock used as I2S clock source
1532:./Library/stm32f4xx_rcc.c ****   *            @arg RCC_I2SCLKSource_Ext: External clock mapped on the I2S_CKIN pin
1533:./Library/stm32f4xx_rcc.c ****   *                                        used as I2S clock source
1534:./Library/stm32f4xx_rcc.c ****   *            @arg RCC_I2SCLKSource_PLL: PLL clock used as I2S clock source
ARM GAS  /tmp/ccGY1Mdk.s 			page 48


1535:./Library/stm32f4xx_rcc.c ****   *            @arg RCC_I2SCLKSource_HSI_HSE: HSI or HSE depends on PLLSRC used as I2S clock source
1536:./Library/stm32f4xx_rcc.c ****   * @retval None
1537:./Library/stm32f4xx_rcc.c ****   */
1538:./Library/stm32f4xx_rcc.c **** void RCC_I2SCLKConfig(uint32_t RCC_I2SAPBx, uint32_t RCC_I2SCLKSource)
1539:./Library/stm32f4xx_rcc.c **** {
1540:./Library/stm32f4xx_rcc.c ****   /* Check the parameters */
1541:./Library/stm32f4xx_rcc.c ****   assert_param(IS_RCC_I2SCLK_SOURCE(RCC_I2SCLKSource));
1542:./Library/stm32f4xx_rcc.c ****   assert_param(IS_RCC_I2S_APBx(RCC_I2SAPBx));
1543:./Library/stm32f4xx_rcc.c ****   
1544:./Library/stm32f4xx_rcc.c ****   if(RCC_I2SAPBx == RCC_I2SBus_APB1)
1545:./Library/stm32f4xx_rcc.c ****   {
1546:./Library/stm32f4xx_rcc.c ****     /* Clear APB1 I2Sx clock source selection bits */
1547:./Library/stm32f4xx_rcc.c ****     RCC->DCKCFGR &= ~RCC_DCKCFGR_I2S1SRC;
1548:./Library/stm32f4xx_rcc.c ****     /* Set new APB1 I2Sx clock source*/
1549:./Library/stm32f4xx_rcc.c ****     RCC->DCKCFGR |= RCC_I2SCLKSource;
1550:./Library/stm32f4xx_rcc.c ****   }
1551:./Library/stm32f4xx_rcc.c ****   else
1552:./Library/stm32f4xx_rcc.c ****   {
1553:./Library/stm32f4xx_rcc.c ****     /* Clear APB2 I2Sx clock source selection  bits */
1554:./Library/stm32f4xx_rcc.c ****     RCC->DCKCFGR &= ~RCC_DCKCFGR_I2S2SRC;
1555:./Library/stm32f4xx_rcc.c ****     /* Set new APB2 I2Sx clock source */
1556:./Library/stm32f4xx_rcc.c ****     RCC->DCKCFGR |= (RCC_I2SCLKSource << 2);
1557:./Library/stm32f4xx_rcc.c ****   }
1558:./Library/stm32f4xx_rcc.c **** }
1559:./Library/stm32f4xx_rcc.c **** #if defined(STM32F446xx)
1560:./Library/stm32f4xx_rcc.c **** /**
1561:./Library/stm32f4xx_rcc.c ****   * @brief  Configures the SAIx clock source (SAIxCLK).
1562:./Library/stm32f4xx_rcc.c ****   * @note   This function must be called before enabling the SAIx APB clock.
1563:./Library/stm32f4xx_rcc.c ****   *
1564:./Library/stm32f4xx_rcc.c ****   * @param  RCC_SAIInstance: specifies the SAIx clock source.
1565:./Library/stm32f4xx_rcc.c ****   *          This parameter can be one of the following values:
1566:./Library/stm32f4xx_rcc.c ****   *            @arg RCC_SAIInstance_SAI1: SAI1 clock source selection
1567:./Library/stm32f4xx_rcc.c ****   *            @arg RCC_SAIInstance_SAI2: SAI2 clock source selections
1568:./Library/stm32f4xx_rcc.c ****   *
1569:./Library/stm32f4xx_rcc.c ****   * @param  RCC_SAICLKSource: specifies the SAI clock source.
1570:./Library/stm32f4xx_rcc.c ****   *          This parameter can be one of the following values:
1571:./Library/stm32f4xx_rcc.c ****   *            @arg RCC_SAICLKSource_PLLSAI: PLLSAI clock used as SAI clock source
1572:./Library/stm32f4xx_rcc.c ****   *            @arg RCC_SAICLKSource_PLLI2S: PLLI2S clock used as SAI clock source
1573:./Library/stm32f4xx_rcc.c ****   *            @arg RCC_SAICLKSource_PLL: PLL clock used as SAI clock source
1574:./Library/stm32f4xx_rcc.c ****   *            @arg RCC_SAICLKSource_HSI_HSE: HSI or HSE depends on PLLSRC used as SAI clock source
1575:./Library/stm32f4xx_rcc.c ****   * @retval None
1576:./Library/stm32f4xx_rcc.c ****   */
1577:./Library/stm32f4xx_rcc.c **** void RCC_SAICLKConfig(uint32_t RCC_SAIInstance, uint32_t RCC_SAICLKSource)
1578:./Library/stm32f4xx_rcc.c **** {
1579:./Library/stm32f4xx_rcc.c ****   /* Check the parameters */
1580:./Library/stm32f4xx_rcc.c ****   assert_param(IS_RCC_SAICLK_SOURCE(RCC_SAICLKSource));
1581:./Library/stm32f4xx_rcc.c ****   assert_param(IS_RCC_SAI_INSTANCE(RCC_SAIInstance));
1582:./Library/stm32f4xx_rcc.c ****   
1583:./Library/stm32f4xx_rcc.c ****   if(RCC_SAIInstance == RCC_SAIInstance_SAI1)
1584:./Library/stm32f4xx_rcc.c ****   {
1585:./Library/stm32f4xx_rcc.c ****     /* Clear SAI1 clock source selection bits */
1586:./Library/stm32f4xx_rcc.c ****     RCC->DCKCFGR &= ~RCC_DCKCFGR_SAI1SRC;
1587:./Library/stm32f4xx_rcc.c ****     /* Set new SAI1 clock source */
1588:./Library/stm32f4xx_rcc.c ****     RCC->DCKCFGR |= RCC_SAICLKSource;
1589:./Library/stm32f4xx_rcc.c ****   }
1590:./Library/stm32f4xx_rcc.c ****   else
1591:./Library/stm32f4xx_rcc.c ****   {
ARM GAS  /tmp/ccGY1Mdk.s 			page 49


1592:./Library/stm32f4xx_rcc.c ****     /* Clear SAI2 clock source selection bits */
1593:./Library/stm32f4xx_rcc.c ****     RCC->DCKCFGR &= ~RCC_DCKCFGR_SAI2SRC;
1594:./Library/stm32f4xx_rcc.c ****     /* Set new SAI2 clock source */
1595:./Library/stm32f4xx_rcc.c ****     RCC->DCKCFGR |= (RCC_SAICLKSource << 2);
1596:./Library/stm32f4xx_rcc.c ****   }
1597:./Library/stm32f4xx_rcc.c **** }
1598:./Library/stm32f4xx_rcc.c **** #endif /* STM32F446xx */
1599:./Library/stm32f4xx_rcc.c **** 
1600:./Library/stm32f4xx_rcc.c **** #if defined(STM32F413_423xx)
1601:./Library/stm32f4xx_rcc.c **** /**
1602:./Library/stm32f4xx_rcc.c ****   * @brief  Configures SAI1BlockA clock source selection.      
1603:./Library/stm32f4xx_rcc.c ****   * @note   This function must be called before enabling PLLSAI, PLLI2S and  
1604:./Library/stm32f4xx_rcc.c ****   *         the SAI clock.
1605:./Library/stm32f4xx_rcc.c ****   * @param  RCC_SAIBlockACLKSource: specifies the SAI Block A clock source.
1606:./Library/stm32f4xx_rcc.c ****   *          This parameter can be one of the following values:
1607:./Library/stm32f4xx_rcc.c ****   *            @arg RCC_SAIACLKSource_PLLI2SR: PLLI2SR clock used as SAI clock source
1608:./Library/stm32f4xx_rcc.c ****   *            @arg RCC_SAIACLKSource_PLLI2S: PLLI2S clock used as SAI clock source
1609:./Library/stm32f4xx_rcc.c ****   *            @arg RCC_SAIACLKSource_PLL: PLL clock used as SAI clock source
1610:./Library/stm32f4xx_rcc.c ****   *            @arg RCC_SAIACLKSource_HSI_HSE: HSI or HSE depends on PLLSRC used as SAI clock sourc
1611:./Library/stm32f4xx_rcc.c ****   * @retval None
1612:./Library/stm32f4xx_rcc.c ****   */
1613:./Library/stm32f4xx_rcc.c **** void RCC_SAIBlockACLKConfig(uint32_t RCC_SAIBlockACLKSource)
1614:./Library/stm32f4xx_rcc.c **** {
1615:./Library/stm32f4xx_rcc.c ****   uint32_t tmpreg = 0;
1616:./Library/stm32f4xx_rcc.c ****   
1617:./Library/stm32f4xx_rcc.c ****   /* Check the parameters */
1618:./Library/stm32f4xx_rcc.c ****   assert_param(IS_RCC_SAIACLK_SOURCE(RCC_SAIBlockACLKSource));
1619:./Library/stm32f4xx_rcc.c ****   
1620:./Library/stm32f4xx_rcc.c ****   tmpreg = RCC->DCKCFGR;
1621:./Library/stm32f4xx_rcc.c **** 
1622:./Library/stm32f4xx_rcc.c ****   /* Clear RCC_DCKCFGR_SAI1ASRC[1:0] bits */
1623:./Library/stm32f4xx_rcc.c ****   tmpreg &= ~RCC_DCKCFGR_SAI1ASRC;
1624:./Library/stm32f4xx_rcc.c **** 
1625:./Library/stm32f4xx_rcc.c ****   /* Set SAI Block A source selection value */
1626:./Library/stm32f4xx_rcc.c ****   tmpreg |= RCC_SAIBlockACLKSource;
1627:./Library/stm32f4xx_rcc.c **** 
1628:./Library/stm32f4xx_rcc.c ****   /* Store the new value */
1629:./Library/stm32f4xx_rcc.c ****   RCC->DCKCFGR = tmpreg;
1630:./Library/stm32f4xx_rcc.c **** }
1631:./Library/stm32f4xx_rcc.c **** 
1632:./Library/stm32f4xx_rcc.c **** /**
1633:./Library/stm32f4xx_rcc.c ****   * @brief  Configures SAI1BlockB clock source selection.      
1634:./Library/stm32f4xx_rcc.c ****   * @note   This function must be called before enabling PLLSAI, PLLI2S and  
1635:./Library/stm32f4xx_rcc.c ****   *         the SAI clock.
1636:./Library/stm32f4xx_rcc.c ****   * @param  RCC_SAIBlockBCLKSource: specifies the SAI Block B clock source.
1637:./Library/stm32f4xx_rcc.c ****   *          This parameter can be one of the following values:
1638:./Library/stm32f4xx_rcc.c ****   *            @arg RCC_SAIBCLKSource_PLLI2SR: PLLI2SR clock used as SAI clock source
1639:./Library/stm32f4xx_rcc.c ****   *            @arg RCC_SAIBCLKSource_PLLI2S: PLLI2S clock used as SAI clock source
1640:./Library/stm32f4xx_rcc.c ****   *            @arg RCC_SAIBCLKSource_PLL: PLL clock used as SAI clock source
1641:./Library/stm32f4xx_rcc.c ****   *            @arg RCC_SAIBCLKSource_HSI_HSE: HSI or HSE depends on PLLSRC used as SAI clock sourc
1642:./Library/stm32f4xx_rcc.c ****   * @retval None
1643:./Library/stm32f4xx_rcc.c ****   */
1644:./Library/stm32f4xx_rcc.c **** void RCC_SAIBlockBCLKConfig(uint32_t RCC_SAIBlockBCLKSource)
1645:./Library/stm32f4xx_rcc.c **** {
1646:./Library/stm32f4xx_rcc.c ****   uint32_t tmpreg = 0;
1647:./Library/stm32f4xx_rcc.c ****   
1648:./Library/stm32f4xx_rcc.c ****   /* Check the parameters */
ARM GAS  /tmp/ccGY1Mdk.s 			page 50


1649:./Library/stm32f4xx_rcc.c ****   assert_param(IS_RCC_SAIBCLK_SOURCE(RCC_SAIBlockBCLKSource));
1650:./Library/stm32f4xx_rcc.c ****   
1651:./Library/stm32f4xx_rcc.c ****   tmpreg = RCC->DCKCFGR;
1652:./Library/stm32f4xx_rcc.c **** 
1653:./Library/stm32f4xx_rcc.c ****   /* Clear RCC_DCKCFGR_SAI1ASRC[1:0] bits */
1654:./Library/stm32f4xx_rcc.c ****   tmpreg &= ~RCC_DCKCFGR_SAI1BSRC;
1655:./Library/stm32f4xx_rcc.c **** 
1656:./Library/stm32f4xx_rcc.c ****   /* Set SAI Block B source selection value */
1657:./Library/stm32f4xx_rcc.c ****   tmpreg |= RCC_SAIBlockBCLKSource;
1658:./Library/stm32f4xx_rcc.c **** 
1659:./Library/stm32f4xx_rcc.c ****   /* Store the new value */
1660:./Library/stm32f4xx_rcc.c ****   RCC->DCKCFGR = tmpreg;
1661:./Library/stm32f4xx_rcc.c **** }
1662:./Library/stm32f4xx_rcc.c **** #endif /* STM32F413_423xx */
1663:./Library/stm32f4xx_rcc.c **** #endif /* STM32F412xG || STM32F413_423xx || STM32F446xx */
1664:./Library/stm32f4xx_rcc.c **** 
1665:./Library/stm32f4xx_rcc.c **** #if defined(STM32F410xx)
1666:./Library/stm32f4xx_rcc.c **** /**
1667:./Library/stm32f4xx_rcc.c ****   * @brief  Configures the I2S clock source (I2SCLK).
1668:./Library/stm32f4xx_rcc.c ****   * @note   This function must be called before enabling the I2S clock.
1669:./Library/stm32f4xx_rcc.c ****   *
1670:./Library/stm32f4xx_rcc.c ****   * @param  RCC_I2SCLKSource: specifies the I2S clock source.
1671:./Library/stm32f4xx_rcc.c ****   *         This parameter can be one of the following values:
1672:./Library/stm32f4xx_rcc.c ****   *            @arg RCC_I2SAPBCLKSOURCE_PLLR: PLL VCO output clock divided by PLLR.
1673:./Library/stm32f4xx_rcc.c ****   *            @arg RCC_I2SAPBCLKSOURCE_EXT: External clock mapped on the I2S_CKIN pin.
1674:./Library/stm32f4xx_rcc.c ****   *            @arg RCC_I2SAPBCLKSOURCE_PLLSRC: HSI/HSE depends on PLLSRC.
1675:./Library/stm32f4xx_rcc.c ****   * @retval None
1676:./Library/stm32f4xx_rcc.c ****   */
1677:./Library/stm32f4xx_rcc.c **** void RCC_I2SCLKConfig(uint32_t RCC_I2SCLKSource)
1678:./Library/stm32f4xx_rcc.c **** {
1679:./Library/stm32f4xx_rcc.c ****   /* Check the parameters */
1680:./Library/stm32f4xx_rcc.c ****   assert_param(IS_RCC_I2SCLK_SOURCE(RCC_I2SCLKSource));
1681:./Library/stm32f4xx_rcc.c ****   
1682:./Library/stm32f4xx_rcc.c ****   /* Clear I2Sx clock source selection bits */
1683:./Library/stm32f4xx_rcc.c ****   RCC->DCKCFGR &= ~RCC_DCKCFGR_I2SSRC;
1684:./Library/stm32f4xx_rcc.c ****   /* Set new I2Sx clock source*/
1685:./Library/stm32f4xx_rcc.c ****   RCC->DCKCFGR |= RCC_I2SCLKSource;
1686:./Library/stm32f4xx_rcc.c **** }
1687:./Library/stm32f4xx_rcc.c **** #endif /* STM32F410xx */
1688:./Library/stm32f4xx_rcc.c **** 
1689:./Library/stm32f4xx_rcc.c **** #if defined(STM32F40_41xxx) || defined(STM32F427_437xx) || defined(STM32F429_439xx) || defined(STM3
1690:./Library/stm32f4xx_rcc.c **** /**
1691:./Library/stm32f4xx_rcc.c ****   * @brief  Configures the I2S clock source (I2SCLK).
1692:./Library/stm32f4xx_rcc.c ****   * @note   This function must be called before enabling the I2S APB clock.
1693:./Library/stm32f4xx_rcc.c ****   * @param  RCC_I2SCLKSource: specifies the I2S clock source.
1694:./Library/stm32f4xx_rcc.c ****   *          This parameter can be one of the following values:
1695:./Library/stm32f4xx_rcc.c ****   *            @arg RCC_I2S2CLKSource_PLLI2S: PLLI2S clock used as I2S clock source
1696:./Library/stm32f4xx_rcc.c ****   *            @arg RCC_I2S2CLKSource_Ext: External clock mapped on the I2S_CKIN pin
1697:./Library/stm32f4xx_rcc.c ****   *                                        used as I2S clock source
1698:./Library/stm32f4xx_rcc.c ****   * @retval None
1699:./Library/stm32f4xx_rcc.c ****   */
1700:./Library/stm32f4xx_rcc.c **** void RCC_I2SCLKConfig(uint32_t RCC_I2SCLKSource)
1701:./Library/stm32f4xx_rcc.c **** {
 1148              		.loc 1 1701 1 is_stmt 1 view -0
 1149              		.cfi_startproc
 1150              		@ args = 0, pretend = 0, frame = 0
 1151              		@ frame_needed = 0, uses_anonymous_args = 0
ARM GAS  /tmp/ccGY1Mdk.s 			page 51


 1152              		@ link register save eliminated.
1702:./Library/stm32f4xx_rcc.c ****   /* Check the parameters */
1703:./Library/stm32f4xx_rcc.c ****   assert_param(IS_RCC_I2SCLK_SOURCE(RCC_I2SCLKSource));
 1153              		.loc 1 1703 3 view .LVU308
1704:./Library/stm32f4xx_rcc.c **** 
1705:./Library/stm32f4xx_rcc.c ****   *(__IO uint32_t *) CFGR_I2SSRC_BB = RCC_I2SCLKSource;  
 1154              		.loc 1 1705 3 view .LVU309
 1155              		.loc 1 1705 37 is_stmt 0 view .LVU310
 1156 0000 014B     		ldr	r3, .L87
 1157 0002 C3F85C01 		str	r0, [r3, #348]
1706:./Library/stm32f4xx_rcc.c **** }
 1158              		.loc 1 1706 1 view .LVU311
 1159 0006 7047     		bx	lr
 1160              	.L88:
 1161              		.align	2
 1162              	.L87:
 1163 0008 00004742 		.word	1111949312
 1164              		.cfi_endproc
 1165              	.LFE148:
 1167              		.section	.text.RCC_SAIPLLI2SClkDivConfig,"ax",%progbits
 1168              		.align	1
 1169              		.global	RCC_SAIPLLI2SClkDivConfig
 1170              		.syntax unified
 1171              		.thumb
 1172              		.thumb_func
 1174              	RCC_SAIPLLI2SClkDivConfig:
 1175              	.LVL89:
 1176              	.LFB149:
1707:./Library/stm32f4xx_rcc.c **** #endif /* STM32F40_41xxx || STM32F427_437xx || STM32F429_439xx || STM32F401xx || STM32F411xE || STM
1708:./Library/stm32f4xx_rcc.c **** 
1709:./Library/stm32f4xx_rcc.c **** #if defined(STM32F40_41xxx) || defined(STM32F427_437xx) || defined(STM32F429_439xx) || defined(STM3
1710:./Library/stm32f4xx_rcc.c **** /**
1711:./Library/stm32f4xx_rcc.c ****   * @brief  Configures SAI1BlockA clock source selection.
1712:./Library/stm32f4xx_rcc.c ****   * 
1713:./Library/stm32f4xx_rcc.c ****   * @note   This function can be used only for STM32F42xxx/43xxx/469xx/479xx devices.
1714:./Library/stm32f4xx_rcc.c ****   *       
1715:./Library/stm32f4xx_rcc.c ****   * @note   This function must be called before enabling PLLSAI, PLLI2S and  
1716:./Library/stm32f4xx_rcc.c ****   *         the SAI clock.
1717:./Library/stm32f4xx_rcc.c ****   * @param  RCC_SAIBlockACLKSource: specifies the SAI Block A clock source.
1718:./Library/stm32f4xx_rcc.c ****   *          This parameter can be one of the following values:
1719:./Library/stm32f4xx_rcc.c ****   *            @arg RCC_SAIACLKSource_PLLI2S: PLLI2S_Q clock divided by PLLI2SDIVQ used 
1720:./Library/stm32f4xx_rcc.c ****   *                                           as SAI1 Block A clock 
1721:./Library/stm32f4xx_rcc.c ****   *            @arg RCC_SAIACLKSource_PLLSAI: PLLISAI_Q clock divided by PLLSAIDIVQ used 
1722:./Library/stm32f4xx_rcc.c ****   *                                           as SAI1 Block A clock 
1723:./Library/stm32f4xx_rcc.c ****   *            @arg RCC_SAIACLKSource_Ext: External clock mapped on the I2S_CKIN pin
1724:./Library/stm32f4xx_rcc.c ****   *                                        used as SAI1 Block A clock
1725:./Library/stm32f4xx_rcc.c ****   * @retval None
1726:./Library/stm32f4xx_rcc.c ****   */
1727:./Library/stm32f4xx_rcc.c **** void RCC_SAIBlockACLKConfig(uint32_t RCC_SAIBlockACLKSource)
1728:./Library/stm32f4xx_rcc.c **** {
1729:./Library/stm32f4xx_rcc.c ****   uint32_t tmpreg = 0;
1730:./Library/stm32f4xx_rcc.c ****   
1731:./Library/stm32f4xx_rcc.c ****   /* Check the parameters */
1732:./Library/stm32f4xx_rcc.c ****   assert_param(IS_RCC_SAIACLK_SOURCE(RCC_SAIBlockACLKSource));
1733:./Library/stm32f4xx_rcc.c ****   
1734:./Library/stm32f4xx_rcc.c ****   tmpreg = RCC->DCKCFGR;
1735:./Library/stm32f4xx_rcc.c **** 
ARM GAS  /tmp/ccGY1Mdk.s 			page 52


1736:./Library/stm32f4xx_rcc.c ****   /* Clear RCC_DCKCFGR_SAI1ASRC[1:0] bits */
1737:./Library/stm32f4xx_rcc.c ****   tmpreg &= ~RCC_DCKCFGR_SAI1ASRC;
1738:./Library/stm32f4xx_rcc.c **** 
1739:./Library/stm32f4xx_rcc.c ****   /* Set SAI Block A source selection value */
1740:./Library/stm32f4xx_rcc.c ****   tmpreg |= RCC_SAIBlockACLKSource;
1741:./Library/stm32f4xx_rcc.c **** 
1742:./Library/stm32f4xx_rcc.c ****   /* Store the new value */
1743:./Library/stm32f4xx_rcc.c ****   RCC->DCKCFGR = tmpreg;
1744:./Library/stm32f4xx_rcc.c **** }
1745:./Library/stm32f4xx_rcc.c **** 
1746:./Library/stm32f4xx_rcc.c **** /**
1747:./Library/stm32f4xx_rcc.c ****   * @brief  Configures SAI1BlockB clock source selection.
1748:./Library/stm32f4xx_rcc.c ****   * 
1749:./Library/stm32f4xx_rcc.c ****   * @note   This function can be used only for STM32F42xxx/43xxx/469xx/479xx devices.
1750:./Library/stm32f4xx_rcc.c ****   *       
1751:./Library/stm32f4xx_rcc.c ****   * @note   This function must be called before enabling PLLSAI, PLLI2S and  
1752:./Library/stm32f4xx_rcc.c ****   *         the SAI clock.
1753:./Library/stm32f4xx_rcc.c ****   * @param  RCC_SAIBlockBCLKSource: specifies the SAI Block B clock source.
1754:./Library/stm32f4xx_rcc.c ****   *          This parameter can be one of the following values:
1755:./Library/stm32f4xx_rcc.c ****   *            @arg RCC_SAIBCLKSource_PLLI2S: PLLI2S_Q clock divided by PLLI2SDIVQ used 
1756:./Library/stm32f4xx_rcc.c ****   *                                           as SAI1 Block B clock 
1757:./Library/stm32f4xx_rcc.c ****   *            @arg RCC_SAIBCLKSource_PLLSAI: PLLISAI_Q clock divided by PLLSAIDIVQ used 
1758:./Library/stm32f4xx_rcc.c ****   *                                           as SAI1 Block B clock 
1759:./Library/stm32f4xx_rcc.c ****   *            @arg RCC_SAIBCLKSource_Ext: External clock mapped on the I2S_CKIN pin
1760:./Library/stm32f4xx_rcc.c ****   *                                        used as SAI1 Block B clock
1761:./Library/stm32f4xx_rcc.c ****   * @retval None
1762:./Library/stm32f4xx_rcc.c ****   */
1763:./Library/stm32f4xx_rcc.c **** void RCC_SAIBlockBCLKConfig(uint32_t RCC_SAIBlockBCLKSource)
1764:./Library/stm32f4xx_rcc.c **** {
1765:./Library/stm32f4xx_rcc.c ****   uint32_t tmpreg = 0;
1766:./Library/stm32f4xx_rcc.c ****   
1767:./Library/stm32f4xx_rcc.c ****   /* Check the parameters */
1768:./Library/stm32f4xx_rcc.c ****   assert_param(IS_RCC_SAIBCLK_SOURCE(RCC_SAIBlockBCLKSource));
1769:./Library/stm32f4xx_rcc.c ****   
1770:./Library/stm32f4xx_rcc.c ****   tmpreg = RCC->DCKCFGR;
1771:./Library/stm32f4xx_rcc.c **** 
1772:./Library/stm32f4xx_rcc.c ****   /* Clear RCC_DCKCFGR_SAI1BSRC[1:0] bits */
1773:./Library/stm32f4xx_rcc.c ****   tmpreg &= ~RCC_DCKCFGR_SAI1BSRC;
1774:./Library/stm32f4xx_rcc.c **** 
1775:./Library/stm32f4xx_rcc.c ****   /* Set SAI Block B source selection value */
1776:./Library/stm32f4xx_rcc.c ****   tmpreg |= RCC_SAIBlockBCLKSource;
1777:./Library/stm32f4xx_rcc.c **** 
1778:./Library/stm32f4xx_rcc.c ****   /* Store the new value */
1779:./Library/stm32f4xx_rcc.c ****   RCC->DCKCFGR = tmpreg;
1780:./Library/stm32f4xx_rcc.c **** }
1781:./Library/stm32f4xx_rcc.c **** #endif /* STM32F40_41xxx || STM32F427_437xx || STM32F429_439xx || STM32F469_479xx */
1782:./Library/stm32f4xx_rcc.c **** 
1783:./Library/stm32f4xx_rcc.c **** /**
1784:./Library/stm32f4xx_rcc.c ****   * @brief  Configures the SAI clock Divider coming from PLLI2S.
1785:./Library/stm32f4xx_rcc.c ****   * 
1786:./Library/stm32f4xx_rcc.c ****   * @note   This function can be used only for STM32F42xxx/43xxx/446xx/469xx/479xx devices.
1787:./Library/stm32f4xx_rcc.c ****   *   
1788:./Library/stm32f4xx_rcc.c ****   * @note   This function must be called before enabling the PLLI2S.
1789:./Library/stm32f4xx_rcc.c ****   *              
1790:./Library/stm32f4xx_rcc.c ****   * @param  RCC_PLLI2SDivQ: specifies the PLLI2S division factor for SAI1 clock .
1791:./Library/stm32f4xx_rcc.c ****   *          This parameter must be a number between 1 and 32.
1792:./Library/stm32f4xx_rcc.c ****   *          SAI1 clock frequency = f(PLLI2S_Q) / RCC_PLLI2SDivQ 
ARM GAS  /tmp/ccGY1Mdk.s 			page 53


1793:./Library/stm32f4xx_rcc.c ****   *              
1794:./Library/stm32f4xx_rcc.c ****   * @retval None
1795:./Library/stm32f4xx_rcc.c ****   */
1796:./Library/stm32f4xx_rcc.c **** void RCC_SAIPLLI2SClkDivConfig(uint32_t RCC_PLLI2SDivQ)  
1797:./Library/stm32f4xx_rcc.c **** {
 1177              		.loc 1 1797 1 is_stmt 1 view -0
 1178              		.cfi_startproc
 1179              		@ args = 0, pretend = 0, frame = 0
 1180              		@ frame_needed = 0, uses_anonymous_args = 0
 1181              		@ link register save eliminated.
1798:./Library/stm32f4xx_rcc.c ****   uint32_t tmpreg = 0;
 1182              		.loc 1 1798 3 view .LVU313
1799:./Library/stm32f4xx_rcc.c ****   
1800:./Library/stm32f4xx_rcc.c ****   /* Check the parameters */
1801:./Library/stm32f4xx_rcc.c ****   assert_param(IS_RCC_PLLI2S_DIVQ_VALUE(RCC_PLLI2SDivQ));
 1183              		.loc 1 1801 3 view .LVU314
1802:./Library/stm32f4xx_rcc.c ****   
1803:./Library/stm32f4xx_rcc.c ****   tmpreg = RCC->DCKCFGR;
 1184              		.loc 1 1803 3 view .LVU315
 1185              		.loc 1 1803 10 is_stmt 0 view .LVU316
 1186 0000 044A     		ldr	r2, .L90
 1187 0002 D2F88C30 		ldr	r3, [r2, #140]
 1188              	.LVL90:
1804:./Library/stm32f4xx_rcc.c **** 
1805:./Library/stm32f4xx_rcc.c ****   /* Clear PLLI2SDIVQ[4:0] bits */
1806:./Library/stm32f4xx_rcc.c ****   tmpreg &= ~(RCC_DCKCFGR_PLLI2SDIVQ);
 1189              		.loc 1 1806 3 is_stmt 1 view .LVU317
 1190              		.loc 1 1806 10 is_stmt 0 view .LVU318
 1191 0006 23F01F03 		bic	r3, r3, #31
 1192              	.LVL91:
1807:./Library/stm32f4xx_rcc.c **** 
1808:./Library/stm32f4xx_rcc.c ****   /* Set PLLI2SDIVQ values */
1809:./Library/stm32f4xx_rcc.c ****   tmpreg |= (RCC_PLLI2SDivQ - 1);
 1193              		.loc 1 1809 3 is_stmt 1 view .LVU319
 1194              		.loc 1 1809 29 is_stmt 0 view .LVU320
 1195 000a 0138     		subs	r0, r0, #1
 1196              	.LVL92:
 1197              		.loc 1 1809 10 view .LVU321
 1198 000c 1843     		orrs	r0, r0, r3
 1199              	.LVL93:
1810:./Library/stm32f4xx_rcc.c **** 
1811:./Library/stm32f4xx_rcc.c ****   /* Store the new value */
1812:./Library/stm32f4xx_rcc.c ****   RCC->DCKCFGR = tmpreg;
 1200              		.loc 1 1812 3 is_stmt 1 view .LVU322
 1201              		.loc 1 1812 16 is_stmt 0 view .LVU323
 1202 000e C2F88C00 		str	r0, [r2, #140]
1813:./Library/stm32f4xx_rcc.c **** }
 1203              		.loc 1 1813 1 view .LVU324
 1204 0012 7047     		bx	lr
 1205              	.L91:
 1206              		.align	2
 1207              	.L90:
 1208 0014 00380240 		.word	1073887232
 1209              		.cfi_endproc
 1210              	.LFE149:
 1212              		.section	.text.RCC_SAIPLLSAIClkDivConfig,"ax",%progbits
 1213              		.align	1
ARM GAS  /tmp/ccGY1Mdk.s 			page 54


 1214              		.global	RCC_SAIPLLSAIClkDivConfig
 1215              		.syntax unified
 1216              		.thumb
 1217              		.thumb_func
 1219              	RCC_SAIPLLSAIClkDivConfig:
 1220              	.LVL94:
 1221              	.LFB150:
1814:./Library/stm32f4xx_rcc.c **** 
1815:./Library/stm32f4xx_rcc.c **** /**
1816:./Library/stm32f4xx_rcc.c ****   * @brief  Configures the SAI clock Divider coming from PLLSAI.
1817:./Library/stm32f4xx_rcc.c ****   * 
1818:./Library/stm32f4xx_rcc.c ****   * @note   This function can be used only for STM32F42xxx/43xxx/446xx/469xx/479xx devices.
1819:./Library/stm32f4xx_rcc.c ****   *        
1820:./Library/stm32f4xx_rcc.c ****   * @note   This function must be called before enabling the PLLSAI.
1821:./Library/stm32f4xx_rcc.c ****   *   
1822:./Library/stm32f4xx_rcc.c ****   * @param  RCC_PLLSAIDivQ: specifies the PLLSAI division factor for SAI1 clock .
1823:./Library/stm32f4xx_rcc.c ****   *          This parameter must be a number between 1 and 32.
1824:./Library/stm32f4xx_rcc.c ****   *          SAI1 clock frequency = f(PLLSAI_Q) / RCC_PLLSAIDivQ  
1825:./Library/stm32f4xx_rcc.c ****   *              
1826:./Library/stm32f4xx_rcc.c ****   * @retval None
1827:./Library/stm32f4xx_rcc.c ****   */
1828:./Library/stm32f4xx_rcc.c **** void RCC_SAIPLLSAIClkDivConfig(uint32_t RCC_PLLSAIDivQ)  
1829:./Library/stm32f4xx_rcc.c **** {
 1222              		.loc 1 1829 1 is_stmt 1 view -0
 1223              		.cfi_startproc
 1224              		@ args = 0, pretend = 0, frame = 0
 1225              		@ frame_needed = 0, uses_anonymous_args = 0
 1226              		@ link register save eliminated.
1830:./Library/stm32f4xx_rcc.c ****   uint32_t tmpreg = 0;
 1227              		.loc 1 1830 3 view .LVU326
1831:./Library/stm32f4xx_rcc.c ****   
1832:./Library/stm32f4xx_rcc.c ****   /* Check the parameters */
1833:./Library/stm32f4xx_rcc.c ****   assert_param(IS_RCC_PLLSAI_DIVQ_VALUE(RCC_PLLSAIDivQ));
 1228              		.loc 1 1833 3 view .LVU327
1834:./Library/stm32f4xx_rcc.c ****   
1835:./Library/stm32f4xx_rcc.c ****   tmpreg = RCC->DCKCFGR;
 1229              		.loc 1 1835 3 view .LVU328
 1230              		.loc 1 1835 10 is_stmt 0 view .LVU329
 1231 0000 054A     		ldr	r2, .L93
 1232 0002 D2F88C30 		ldr	r3, [r2, #140]
 1233              	.LVL95:
1836:./Library/stm32f4xx_rcc.c **** 
1837:./Library/stm32f4xx_rcc.c ****   /* Clear PLLI2SDIVQ[4:0] and PLLSAIDIVQ[4:0] bits */
1838:./Library/stm32f4xx_rcc.c ****   tmpreg &= ~(RCC_DCKCFGR_PLLSAIDIVQ);
 1234              		.loc 1 1838 3 is_stmt 1 view .LVU330
 1235              		.loc 1 1838 10 is_stmt 0 view .LVU331
 1236 0006 23F4F853 		bic	r3, r3, #7936
 1237              	.LVL96:
1839:./Library/stm32f4xx_rcc.c **** 
1840:./Library/stm32f4xx_rcc.c ****   /* Set PLLSAIDIVQ values */
1841:./Library/stm32f4xx_rcc.c ****   tmpreg |= ((RCC_PLLSAIDivQ - 1) << 8);
 1238              		.loc 1 1841 3 is_stmt 1 view .LVU332
 1239              		.loc 1 1841 30 is_stmt 0 view .LVU333
 1240 000a 0138     		subs	r0, r0, #1
 1241              	.LVL97:
 1242              		.loc 1 1841 10 view .LVU334
 1243 000c 43EA0023 		orr	r3, r3, r0, lsl #8
ARM GAS  /tmp/ccGY1Mdk.s 			page 55


 1244              	.LVL98:
1842:./Library/stm32f4xx_rcc.c **** 
1843:./Library/stm32f4xx_rcc.c ****   /* Store the new value */
1844:./Library/stm32f4xx_rcc.c ****   RCC->DCKCFGR = tmpreg;
 1245              		.loc 1 1844 3 is_stmt 1 view .LVU335
 1246              		.loc 1 1844 16 is_stmt 0 view .LVU336
 1247 0010 C2F88C30 		str	r3, [r2, #140]
1845:./Library/stm32f4xx_rcc.c **** }
 1248              		.loc 1 1845 1 view .LVU337
 1249 0014 7047     		bx	lr
 1250              	.L94:
 1251 0016 00BF     		.align	2
 1252              	.L93:
 1253 0018 00380240 		.word	1073887232
 1254              		.cfi_endproc
 1255              	.LFE150:
 1257              		.section	.text.RCC_LTDCCLKDivConfig,"ax",%progbits
 1258              		.align	1
 1259              		.global	RCC_LTDCCLKDivConfig
 1260              		.syntax unified
 1261              		.thumb
 1262              		.thumb_func
 1264              	RCC_LTDCCLKDivConfig:
 1265              	.LVL99:
 1266              	.LFB151:
1846:./Library/stm32f4xx_rcc.c **** 
1847:./Library/stm32f4xx_rcc.c **** #if defined(STM32F413_423xx)
1848:./Library/stm32f4xx_rcc.c **** /**
1849:./Library/stm32f4xx_rcc.c ****   * @brief  Configures the SAI clock Divider coming from PLLI2S.
1850:./Library/stm32f4xx_rcc.c ****   * 
1851:./Library/stm32f4xx_rcc.c ****   * @note   This function can be used only for STM32F413_423xx
1852:./Library/stm32f4xx_rcc.c ****   *   
1853:./Library/stm32f4xx_rcc.c ****   * @param   RCC_PLLI2SDivR: specifies the PLLI2S division factor for SAI1 clock.
1854:./Library/stm32f4xx_rcc.c ****   *          This parameter must be a number between 1 and 32.
1855:./Library/stm32f4xx_rcc.c ****   *          SAI1 clock frequency = f(PLLI2SR) / RCC_PLLI2SDivR 
1856:./Library/stm32f4xx_rcc.c ****   * @retval None
1857:./Library/stm32f4xx_rcc.c ****   */
1858:./Library/stm32f4xx_rcc.c **** void RCC_SAIPLLI2SRClkDivConfig(uint32_t RCC_PLLI2SDivR)  
1859:./Library/stm32f4xx_rcc.c **** {
1860:./Library/stm32f4xx_rcc.c ****   uint32_t tmpreg = 0;
1861:./Library/stm32f4xx_rcc.c ****   
1862:./Library/stm32f4xx_rcc.c ****   /* Check the parameters */
1863:./Library/stm32f4xx_rcc.c ****   assert_param(IS_RCC_PLLI2S_DIVR_VALUE(RCC_PLLI2SDivR));
1864:./Library/stm32f4xx_rcc.c ****   
1865:./Library/stm32f4xx_rcc.c ****   tmpreg = RCC->DCKCFGR;
1866:./Library/stm32f4xx_rcc.c **** 
1867:./Library/stm32f4xx_rcc.c ****   /* Clear PLLI2SDIVR[4:0] bits */
1868:./Library/stm32f4xx_rcc.c ****   tmpreg &= ~(RCC_DCKCFGR_PLLI2SDIVR);
1869:./Library/stm32f4xx_rcc.c **** 
1870:./Library/stm32f4xx_rcc.c ****   /* Set PLLI2SDIVR values */
1871:./Library/stm32f4xx_rcc.c ****   tmpreg |= (RCC_PLLI2SDivR-1);
1872:./Library/stm32f4xx_rcc.c **** 
1873:./Library/stm32f4xx_rcc.c ****   /* Store the new value */
1874:./Library/stm32f4xx_rcc.c ****   RCC->DCKCFGR = tmpreg;
1875:./Library/stm32f4xx_rcc.c **** }
1876:./Library/stm32f4xx_rcc.c **** 
1877:./Library/stm32f4xx_rcc.c **** /**
ARM GAS  /tmp/ccGY1Mdk.s 			page 56


1878:./Library/stm32f4xx_rcc.c ****   * @brief  Configures the SAI clock Divider coming from PLL.
1879:./Library/stm32f4xx_rcc.c ****   * 
1880:./Library/stm32f4xx_rcc.c ****   * @note   This function can be used only for STM32F413_423xx
1881:./Library/stm32f4xx_rcc.c ****   *        
1882:./Library/stm32f4xx_rcc.c ****   * @note   This function must be called before enabling the PLLSAI.
1883:./Library/stm32f4xx_rcc.c ****   *   
1884:./Library/stm32f4xx_rcc.c ****   * @param  RCC_PLLDivR: specifies the PLL division factor for SAI1 clock.
1885:./Library/stm32f4xx_rcc.c ****   *          This parameter must be a number between 1 and 32.
1886:./Library/stm32f4xx_rcc.c ****   *          SAI1 clock frequency = f(PLLR) / RCC_PLLDivR 
1887:./Library/stm32f4xx_rcc.c ****   *              
1888:./Library/stm32f4xx_rcc.c ****   * @retval None
1889:./Library/stm32f4xx_rcc.c ****   */
1890:./Library/stm32f4xx_rcc.c **** void RCC_SAIPLLRClkDivConfig(uint32_t RCC_PLLDivR)  
1891:./Library/stm32f4xx_rcc.c **** {
1892:./Library/stm32f4xx_rcc.c ****   uint32_t tmpreg = 0;
1893:./Library/stm32f4xx_rcc.c ****   
1894:./Library/stm32f4xx_rcc.c ****   /* Check the parameters */
1895:./Library/stm32f4xx_rcc.c ****   assert_param(IS_RCC_PLL_DIVR_VALUE(RCC_PLLDivR));
1896:./Library/stm32f4xx_rcc.c ****   
1897:./Library/stm32f4xx_rcc.c ****   tmpreg = RCC->DCKCFGR;
1898:./Library/stm32f4xx_rcc.c **** 
1899:./Library/stm32f4xx_rcc.c ****   /* Clear PLLDIVR[12:8] */
1900:./Library/stm32f4xx_rcc.c ****   tmpreg &= ~(RCC_DCKCFGR_PLLDIVR);
1901:./Library/stm32f4xx_rcc.c **** 
1902:./Library/stm32f4xx_rcc.c ****   /* Set PLLDivR values */
1903:./Library/stm32f4xx_rcc.c ****   tmpreg |= ((RCC_PLLDivR - 1 ) << 8);
1904:./Library/stm32f4xx_rcc.c **** 
1905:./Library/stm32f4xx_rcc.c ****   /* Store the new value */
1906:./Library/stm32f4xx_rcc.c ****   RCC->DCKCFGR = tmpreg;
1907:./Library/stm32f4xx_rcc.c **** }
1908:./Library/stm32f4xx_rcc.c **** #endif /* STM32F413_423xx */
1909:./Library/stm32f4xx_rcc.c **** 
1910:./Library/stm32f4xx_rcc.c **** /**
1911:./Library/stm32f4xx_rcc.c ****   * @brief  Configures the LTDC clock Divider coming from PLLSAI.
1912:./Library/stm32f4xx_rcc.c ****   * 
1913:./Library/stm32f4xx_rcc.c ****   * @note   The LTDC peripheral is only available with STM32F42xxx/43xxx/446xx/469xx/479xx Devices.
1914:./Library/stm32f4xx_rcc.c ****   *      
1915:./Library/stm32f4xx_rcc.c ****   * @note   This function must be called before enabling the PLLSAI.
1916:./Library/stm32f4xx_rcc.c ****   *   
1917:./Library/stm32f4xx_rcc.c ****   * @param  RCC_PLLSAIDivR: specifies the PLLSAI division factor for LTDC clock .
1918:./Library/stm32f4xx_rcc.c ****   *          LTDC clock frequency = f(PLLSAI_R) / RCC_PLLSAIDivR  
1919:./Library/stm32f4xx_rcc.c ****   *          This parameter can be one of the following values:
1920:./Library/stm32f4xx_rcc.c ****   *            @arg RCC_PLLSAIDivR_Div2: LTDC clock = f(PLLSAI_R)/2
1921:./Library/stm32f4xx_rcc.c ****   *            @arg RCC_PLLSAIDivR_Div4: LTDC clock = f(PLLSAI_R)/4
1922:./Library/stm32f4xx_rcc.c ****   *            @arg RCC_PLLSAIDivR_Div8: LTDC clock = f(PLLSAI_R)/8
1923:./Library/stm32f4xx_rcc.c ****   *            @arg RCC_PLLSAIDivR_Div16: LTDC clock = f(PLLSAI_R)/16
1924:./Library/stm32f4xx_rcc.c ****   *            
1925:./Library/stm32f4xx_rcc.c ****   * @retval None
1926:./Library/stm32f4xx_rcc.c ****   */
1927:./Library/stm32f4xx_rcc.c **** void RCC_LTDCCLKDivConfig(uint32_t RCC_PLLSAIDivR)
1928:./Library/stm32f4xx_rcc.c **** {
 1267              		.loc 1 1928 1 is_stmt 1 view -0
 1268              		.cfi_startproc
 1269              		@ args = 0, pretend = 0, frame = 0
 1270              		@ frame_needed = 0, uses_anonymous_args = 0
 1271              		@ link register save eliminated.
1929:./Library/stm32f4xx_rcc.c ****   uint32_t tmpreg = 0;
ARM GAS  /tmp/ccGY1Mdk.s 			page 57


 1272              		.loc 1 1929 3 view .LVU339
1930:./Library/stm32f4xx_rcc.c ****   
1931:./Library/stm32f4xx_rcc.c ****   /* Check the parameters */
1932:./Library/stm32f4xx_rcc.c ****   assert_param(IS_RCC_PLLSAI_DIVR_VALUE(RCC_PLLSAIDivR));
 1273              		.loc 1 1932 3 view .LVU340
1933:./Library/stm32f4xx_rcc.c ****   
1934:./Library/stm32f4xx_rcc.c ****   tmpreg = RCC->DCKCFGR;
 1274              		.loc 1 1934 3 view .LVU341
 1275              		.loc 1 1934 10 is_stmt 0 view .LVU342
 1276 0000 044A     		ldr	r2, .L96
 1277 0002 D2F88C30 		ldr	r3, [r2, #140]
 1278              	.LVL100:
1935:./Library/stm32f4xx_rcc.c **** 
1936:./Library/stm32f4xx_rcc.c ****   /* Clear PLLSAIDIVR[2:0] bits */
1937:./Library/stm32f4xx_rcc.c ****   tmpreg &= ~RCC_DCKCFGR_PLLSAIDIVR;
 1279              		.loc 1 1937 3 is_stmt 1 view .LVU343
 1280              		.loc 1 1937 10 is_stmt 0 view .LVU344
 1281 0006 23F44033 		bic	r3, r3, #196608
 1282              	.LVL101:
1938:./Library/stm32f4xx_rcc.c **** 
1939:./Library/stm32f4xx_rcc.c ****   /* Set PLLSAIDIVR values */
1940:./Library/stm32f4xx_rcc.c ****   tmpreg |= RCC_PLLSAIDivR;
 1283              		.loc 1 1940 3 is_stmt 1 view .LVU345
 1284              		.loc 1 1940 10 is_stmt 0 view .LVU346
 1285 000a 0343     		orrs	r3, r3, r0
 1286              	.LVL102:
1941:./Library/stm32f4xx_rcc.c **** 
1942:./Library/stm32f4xx_rcc.c ****   /* Store the new value */
1943:./Library/stm32f4xx_rcc.c ****   RCC->DCKCFGR = tmpreg;
 1287              		.loc 1 1943 3 is_stmt 1 view .LVU347
 1288              		.loc 1 1943 16 is_stmt 0 view .LVU348
 1289 000c C2F88C30 		str	r3, [r2, #140]
1944:./Library/stm32f4xx_rcc.c **** }
 1290              		.loc 1 1944 1 view .LVU349
 1291 0010 7047     		bx	lr
 1292              	.L97:
 1293 0012 00BF     		.align	2
 1294              	.L96:
 1295 0014 00380240 		.word	1073887232
 1296              		.cfi_endproc
 1297              	.LFE151:
 1299              		.section	.text.RCC_TIMCLKPresConfig,"ax",%progbits
 1300              		.align	1
 1301              		.global	RCC_TIMCLKPresConfig
 1302              		.syntax unified
 1303              		.thumb
 1304              		.thumb_func
 1306              	RCC_TIMCLKPresConfig:
 1307              	.LVL103:
 1308              	.LFB152:
1945:./Library/stm32f4xx_rcc.c **** 
1946:./Library/stm32f4xx_rcc.c **** #if defined(STM32F412xG) || defined(STM32F413_423xx)
1947:./Library/stm32f4xx_rcc.c **** /**
1948:./Library/stm32f4xx_rcc.c ****   * @brief  Configures the DFSDM clock source (DFSDMCLK).
1949:./Library/stm32f4xx_rcc.c ****   * @note   This function must be called before enabling the DFSDM APB clock.
1950:./Library/stm32f4xx_rcc.c ****   * @param  RCC_DFSDMCLKSource: specifies the DFSDM clock source.
1951:./Library/stm32f4xx_rcc.c ****   *          This parameter can be one of the following values:
ARM GAS  /tmp/ccGY1Mdk.s 			page 58


1952:./Library/stm32f4xx_rcc.c ****   *            @arg RCC_DFSDMCLKSource_APB: APB clock used as DFSDM clock source.
1953:./Library/stm32f4xx_rcc.c ****   *            @arg RCC_DFSDMCLKSource_SYS: System clock used as DFSDM clock source.
1954:./Library/stm32f4xx_rcc.c ****   *                                        
1955:./Library/stm32f4xx_rcc.c ****   * @retval None
1956:./Library/stm32f4xx_rcc.c ****   */
1957:./Library/stm32f4xx_rcc.c **** void RCC_DFSDM1CLKConfig(uint32_t RCC_DFSDMCLKSource)
1958:./Library/stm32f4xx_rcc.c **** {
1959:./Library/stm32f4xx_rcc.c ****   uint32_t tmpreg = 0;
1960:./Library/stm32f4xx_rcc.c ****   
1961:./Library/stm32f4xx_rcc.c ****   /* Check the parameters */
1962:./Library/stm32f4xx_rcc.c ****   assert_param(IS_RCC_DFSDM1CLK_SOURCE(RCC_DFSDMCLKSource));
1963:./Library/stm32f4xx_rcc.c ****   
1964:./Library/stm32f4xx_rcc.c ****   tmpreg = RCC->DCKCFGR;
1965:./Library/stm32f4xx_rcc.c **** 
1966:./Library/stm32f4xx_rcc.c ****   /* Clear CKDFSDM-SEL  bit */
1967:./Library/stm32f4xx_rcc.c ****   tmpreg &= ~RCC_DCKCFGR_CKDFSDM1SEL;
1968:./Library/stm32f4xx_rcc.c **** 
1969:./Library/stm32f4xx_rcc.c ****   /* Set CKDFSDM-SEL bit according to RCC_DFSDMCLKSource value */
1970:./Library/stm32f4xx_rcc.c ****   tmpreg |= (RCC_DFSDMCLKSource << 31) ;
1971:./Library/stm32f4xx_rcc.c **** 
1972:./Library/stm32f4xx_rcc.c ****   /* Store the new value */
1973:./Library/stm32f4xx_rcc.c ****   RCC->DCKCFGR = tmpreg;
1974:./Library/stm32f4xx_rcc.c **** }
1975:./Library/stm32f4xx_rcc.c **** 
1976:./Library/stm32f4xx_rcc.c **** /**
1977:./Library/stm32f4xx_rcc.c ****   * @brief  Configures the DFSDM Audio clock source (DFSDMACLK).
1978:./Library/stm32f4xx_rcc.c ****   * @note   This function must be called before enabling the DFSDM APB clock.
1979:./Library/stm32f4xx_rcc.c ****   * @param  RCC_DFSDM1ACLKSource: specifies the DFSDM clock source.
1980:./Library/stm32f4xx_rcc.c ****   *          This parameter can be one of the following values:
1981:./Library/stm32f4xx_rcc.c ****   *            @arg RCC_DFSDM1AUDIOCLKSOURCE_I2SAPB1: APB clock used as DFSDM clock source.
1982:./Library/stm32f4xx_rcc.c ****   *            @arg RCC_DFSDM1AUDIOCLKSOURCE_I2SAPB2: System clock used as DFSDM clock source.
1983:./Library/stm32f4xx_rcc.c ****   *                                        
1984:./Library/stm32f4xx_rcc.c ****   * @retval None
1985:./Library/stm32f4xx_rcc.c ****   */
1986:./Library/stm32f4xx_rcc.c **** void RCC_DFSDM1ACLKConfig(uint32_t RCC_DFSDM1ACLKSource)
1987:./Library/stm32f4xx_rcc.c **** {
1988:./Library/stm32f4xx_rcc.c ****   uint32_t tmpreg = 0;
1989:./Library/stm32f4xx_rcc.c ****   
1990:./Library/stm32f4xx_rcc.c ****   /* Check the parameters */
1991:./Library/stm32f4xx_rcc.c ****   assert_param(IS_RCC_DFSDMACLK_SOURCE(RCC_DFSDM1ACLKSource));
1992:./Library/stm32f4xx_rcc.c ****   
1993:./Library/stm32f4xx_rcc.c ****   tmpreg = RCC->DCKCFGR;
1994:./Library/stm32f4xx_rcc.c **** 
1995:./Library/stm32f4xx_rcc.c ****   /* Clear CKDFSDMA SEL  bit */
1996:./Library/stm32f4xx_rcc.c ****   tmpreg &= ~RCC_DCKCFGR_CKDFSDM1ASEL;
1997:./Library/stm32f4xx_rcc.c **** 
1998:./Library/stm32f4xx_rcc.c ****   /* Set CKDFSDM-SEL   bt according to RCC_DFSDMCLKSource value */
1999:./Library/stm32f4xx_rcc.c ****   tmpreg |= RCC_DFSDM1ACLKSource;
2000:./Library/stm32f4xx_rcc.c **** 
2001:./Library/stm32f4xx_rcc.c ****   /* Store the new value */
2002:./Library/stm32f4xx_rcc.c ****   RCC->DCKCFGR = tmpreg;
2003:./Library/stm32f4xx_rcc.c **** }
2004:./Library/stm32f4xx_rcc.c **** 
2005:./Library/stm32f4xx_rcc.c **** #if defined(STM32F413_423xx)
2006:./Library/stm32f4xx_rcc.c **** /**
2007:./Library/stm32f4xx_rcc.c ****   * @brief  Configures the DFSDM Audio clock source (DFSDMACLK).
2008:./Library/stm32f4xx_rcc.c ****   * @note   This function must be called before enabling the DFSDM APB clock.
ARM GAS  /tmp/ccGY1Mdk.s 			page 59


2009:./Library/stm32f4xx_rcc.c ****   * @param  RCC_DFSDM2ACLKSource: specifies the DFSDM clock source.
2010:./Library/stm32f4xx_rcc.c ****   *          This parameter can be one of the following values:
2011:./Library/stm32f4xx_rcc.c ****   *            @arg RCC_DFSDM2AUDIOCLKSOURCE_I2SAPB1: APB clock used as DFSDM clock source.
2012:./Library/stm32f4xx_rcc.c ****   *            @arg RCC_DFSDM2AUDIOCLKSOURCE_I2SAPB2: System clock used as DFSDM clock source.
2013:./Library/stm32f4xx_rcc.c ****   *                                        
2014:./Library/stm32f4xx_rcc.c ****   * @retval None
2015:./Library/stm32f4xx_rcc.c ****   */
2016:./Library/stm32f4xx_rcc.c **** void RCC_DFSDM2ACLKConfig(uint32_t RCC_DFSDMACLKSource)
2017:./Library/stm32f4xx_rcc.c **** {
2018:./Library/stm32f4xx_rcc.c ****   uint32_t tmpreg = 0;
2019:./Library/stm32f4xx_rcc.c ****   
2020:./Library/stm32f4xx_rcc.c ****   /* Check the parameters */
2021:./Library/stm32f4xx_rcc.c ****   assert_param(IS_RCC_DFSDMCLK_SOURCE(RCC_DFSDMACLKSource));
2022:./Library/stm32f4xx_rcc.c ****   
2023:./Library/stm32f4xx_rcc.c ****   tmpreg = RCC->DCKCFGR;
2024:./Library/stm32f4xx_rcc.c **** 
2025:./Library/stm32f4xx_rcc.c ****   /* Clear CKDFSDMA SEL  bit */
2026:./Library/stm32f4xx_rcc.c ****   tmpreg &= ~RCC_DCKCFGR_CKDFSDM1ASEL;
2027:./Library/stm32f4xx_rcc.c **** 
2028:./Library/stm32f4xx_rcc.c ****   /* Set CKDFSDM-SEL   bt according to RCC_DFSDMCLKSource value */
2029:./Library/stm32f4xx_rcc.c ****   tmpreg |= RCC_DFSDMACLKSource;
2030:./Library/stm32f4xx_rcc.c **** 
2031:./Library/stm32f4xx_rcc.c ****   /* Store the new value */
2032:./Library/stm32f4xx_rcc.c ****   RCC->DCKCFGR = tmpreg;
2033:./Library/stm32f4xx_rcc.c **** }
2034:./Library/stm32f4xx_rcc.c **** #endif /* STM32F413_423xx */
2035:./Library/stm32f4xx_rcc.c **** #endif /* STM32F412xG || STM32F413_423xx */
2036:./Library/stm32f4xx_rcc.c **** 
2037:./Library/stm32f4xx_rcc.c **** /**
2038:./Library/stm32f4xx_rcc.c ****   * @brief  Configures the Timers clocks prescalers selection.
2039:./Library/stm32f4xx_rcc.c ****   * 
2040:./Library/stm32f4xx_rcc.c ****   * @note   This function can be used only for STM32F42xxx/43xxx and STM32F401xx/411xE devices. 
2041:./Library/stm32f4xx_rcc.c ****   *   
2042:./Library/stm32f4xx_rcc.c ****   * @param  RCC_TIMCLKPrescaler : specifies the Timers clocks prescalers selection
2043:./Library/stm32f4xx_rcc.c ****   *         This parameter can be one of the following values:
2044:./Library/stm32f4xx_rcc.c ****   *            @arg RCC_TIMPrescDesactivated: The Timers kernels clocks prescaler is 
2045:./Library/stm32f4xx_rcc.c ****   *                 equal to HPRE if PPREx is corresponding to division by 1 or 2, 
2046:./Library/stm32f4xx_rcc.c ****   *                 else it is equal to [(HPRE * PPREx) / 2] if PPREx is corresponding to 
2047:./Library/stm32f4xx_rcc.c ****   *                 division by 4 or more.
2048:./Library/stm32f4xx_rcc.c ****   *                   
2049:./Library/stm32f4xx_rcc.c ****   *            @arg RCC_TIMPrescActivated: The Timers kernels clocks prescaler is 
2050:./Library/stm32f4xx_rcc.c ****   *                 equal to HPRE if PPREx is corresponding to division by 1, 2 or 4, 
2051:./Library/stm32f4xx_rcc.c ****   *                 else it is equal to [(HPRE * PPREx) / 4] if PPREx is corresponding 
2052:./Library/stm32f4xx_rcc.c ****   *                 to division by 8 or more.
2053:./Library/stm32f4xx_rcc.c ****   * @retval None
2054:./Library/stm32f4xx_rcc.c ****   */
2055:./Library/stm32f4xx_rcc.c **** void RCC_TIMCLKPresConfig(uint32_t RCC_TIMCLKPrescaler)
2056:./Library/stm32f4xx_rcc.c **** {
 1309              		.loc 1 2056 1 is_stmt 1 view -0
 1310              		.cfi_startproc
 1311              		@ args = 0, pretend = 0, frame = 0
 1312              		@ frame_needed = 0, uses_anonymous_args = 0
 1313              		@ link register save eliminated.
2057:./Library/stm32f4xx_rcc.c ****   /* Check the parameters */
2058:./Library/stm32f4xx_rcc.c ****   assert_param(IS_RCC_TIMCLK_PRESCALER(RCC_TIMCLKPrescaler));
 1314              		.loc 1 2058 3 view .LVU351
2059:./Library/stm32f4xx_rcc.c **** 
ARM GAS  /tmp/ccGY1Mdk.s 			page 60


2060:./Library/stm32f4xx_rcc.c ****   *(__IO uint32_t *) DCKCFGR_TIMPRE_BB = RCC_TIMCLKPrescaler;
 1315              		.loc 1 2060 3 view .LVU352
 1316              		.loc 1 2060 40 is_stmt 0 view .LVU353
 1317 0000 014B     		ldr	r3, .L99
 1318 0002 C3F8E001 		str	r0, [r3, #480]
2061:./Library/stm32f4xx_rcc.c **** }
 1319              		.loc 1 2061 1 view .LVU354
 1320 0006 7047     		bx	lr
 1321              	.L100:
 1322              		.align	2
 1323              	.L99:
 1324 0008 00104742 		.word	1111953408
 1325              		.cfi_endproc
 1326              	.LFE152:
 1328              		.section	.text.RCC_AHB1PeriphClockCmd,"ax",%progbits
 1329              		.align	1
 1330              		.global	RCC_AHB1PeriphClockCmd
 1331              		.syntax unified
 1332              		.thumb
 1333              		.thumb_func
 1335              	RCC_AHB1PeriphClockCmd:
 1336              	.LVL104:
 1337              	.LFB153:
2062:./Library/stm32f4xx_rcc.c **** 
2063:./Library/stm32f4xx_rcc.c **** /**
2064:./Library/stm32f4xx_rcc.c ****   * @brief  Enables or disables the AHB1 peripheral clock.
2065:./Library/stm32f4xx_rcc.c ****   * @note   After reset, the peripheral clock (used for registers read/write access)
2066:./Library/stm32f4xx_rcc.c ****   *         is disabled and the application software has to enable this clock before 
2067:./Library/stm32f4xx_rcc.c ****   *         using it.   
2068:./Library/stm32f4xx_rcc.c ****   * @param  RCC_AHBPeriph: specifies the AHB1 peripheral to gates its clock.
2069:./Library/stm32f4xx_rcc.c ****   *          This parameter can be any combination of the following values:
2070:./Library/stm32f4xx_rcc.c ****   *            @arg RCC_AHB1Periph_GPIOA:       GPIOA clock
2071:./Library/stm32f4xx_rcc.c ****   *            @arg RCC_AHB1Periph_GPIOB:       GPIOB clock 
2072:./Library/stm32f4xx_rcc.c ****   *            @arg RCC_AHB1Periph_GPIOC:       GPIOC clock
2073:./Library/stm32f4xx_rcc.c ****   *            @arg RCC_AHB1Periph_GPIOD:       GPIOD clock
2074:./Library/stm32f4xx_rcc.c ****   *            @arg RCC_AHB1Periph_GPIOE:       GPIOE clock
2075:./Library/stm32f4xx_rcc.c ****   *            @arg RCC_AHB1Periph_GPIOF:       GPIOF clock
2076:./Library/stm32f4xx_rcc.c ****   *            @arg RCC_AHB1Periph_GPIOG:       GPIOG clock
2077:./Library/stm32f4xx_rcc.c ****   *            @arg RCC_AHB1Periph_GPIOG:       GPIOG clock
2078:./Library/stm32f4xx_rcc.c ****   *            @arg RCC_AHB1Periph_GPIOI:       GPIOI clock
2079:./Library/stm32f4xx_rcc.c ****   *            @arg RCC_AHB1Periph_GPIOJ:       GPIOJ clock (STM32F42xxx/43xxx devices) 
2080:./Library/stm32f4xx_rcc.c ****   *            @arg RCC_AHB1Periph_GPIOK:       GPIOK clock (STM32F42xxx/43xxx devices)  
2081:./Library/stm32f4xx_rcc.c ****   *            @arg RCC_AHB1Periph_CRC:         CRC clock
2082:./Library/stm32f4xx_rcc.c ****   *            @arg RCC_AHB1Periph_BKPSRAM:     BKPSRAM interface clock
2083:./Library/stm32f4xx_rcc.c ****   *            @arg RCC_AHB1Periph_CCMDATARAMEN CCM data RAM interface clock
2084:./Library/stm32f4xx_rcc.c ****   *            @arg RCC_AHB1Periph_DMA1:        DMA1 clock
2085:./Library/stm32f4xx_rcc.c ****   *            @arg RCC_AHB1Periph_DMA2:        DMA2 clock
2086:./Library/stm32f4xx_rcc.c ****   *            @arg RCC_AHB1Periph_DMA2D:       DMA2D clock (STM32F429xx/439xx devices)  
2087:./Library/stm32f4xx_rcc.c ****   *            @arg RCC_AHB1Periph_ETH_MAC:     Ethernet MAC clock
2088:./Library/stm32f4xx_rcc.c ****   *            @arg RCC_AHB1Periph_ETH_MAC_Tx:  Ethernet Transmission clock
2089:./Library/stm32f4xx_rcc.c ****   *            @arg RCC_AHB1Periph_ETH_MAC_Rx:  Ethernet Reception clock
2090:./Library/stm32f4xx_rcc.c ****   *            @arg RCC_AHB1Periph_ETH_MAC_PTP: Ethernet PTP clock
2091:./Library/stm32f4xx_rcc.c ****   *            @arg RCC_AHB1Periph_OTG_HS:      USB OTG HS clock
2092:./Library/stm32f4xx_rcc.c ****   *            @arg RCC_AHB1Periph_OTG_HS_ULPI: USB OTG HS ULPI clock
2093:./Library/stm32f4xx_rcc.c ****   * @param  NewState: new state of the specified peripheral clock.
2094:./Library/stm32f4xx_rcc.c ****   *          This parameter can be: ENABLE or DISABLE.
2095:./Library/stm32f4xx_rcc.c ****   * @retval None
ARM GAS  /tmp/ccGY1Mdk.s 			page 61


2096:./Library/stm32f4xx_rcc.c ****   */
2097:./Library/stm32f4xx_rcc.c **** void RCC_AHB1PeriphClockCmd(uint32_t RCC_AHB1Periph, FunctionalState NewState)
2098:./Library/stm32f4xx_rcc.c **** {
 1338              		.loc 1 2098 1 is_stmt 1 view -0
 1339              		.cfi_startproc
 1340              		@ args = 0, pretend = 0, frame = 0
 1341              		@ frame_needed = 0, uses_anonymous_args = 0
 1342              		@ link register save eliminated.
2099:./Library/stm32f4xx_rcc.c ****   /* Check the parameters */
2100:./Library/stm32f4xx_rcc.c ****   assert_param(IS_RCC_AHB1_CLOCK_PERIPH(RCC_AHB1Periph));
 1343              		.loc 1 2100 3 view .LVU356
2101:./Library/stm32f4xx_rcc.c **** 
2102:./Library/stm32f4xx_rcc.c ****   assert_param(IS_FUNCTIONAL_STATE(NewState));
 1344              		.loc 1 2102 3 view .LVU357
2103:./Library/stm32f4xx_rcc.c ****   if (NewState != DISABLE)
 1345              		.loc 1 2103 3 view .LVU358
 1346              		.loc 1 2103 6 is_stmt 0 view .LVU359
 1347 0000 21B1     		cbz	r1, .L102
2104:./Library/stm32f4xx_rcc.c ****   {
2105:./Library/stm32f4xx_rcc.c ****     RCC->AHB1ENR |= RCC_AHB1Periph;
 1348              		.loc 1 2105 5 is_stmt 1 view .LVU360
 1349              		.loc 1 2105 8 is_stmt 0 view .LVU361
 1350 0002 054A     		ldr	r2, .L104
 1351 0004 136B     		ldr	r3, [r2, #48]
 1352              		.loc 1 2105 18 view .LVU362
 1353 0006 0343     		orrs	r3, r3, r0
 1354 0008 1363     		str	r3, [r2, #48]
 1355 000a 7047     		bx	lr
 1356              	.L102:
2106:./Library/stm32f4xx_rcc.c ****   }
2107:./Library/stm32f4xx_rcc.c ****   else
2108:./Library/stm32f4xx_rcc.c ****   {
2109:./Library/stm32f4xx_rcc.c ****     RCC->AHB1ENR &= ~RCC_AHB1Periph;
 1357              		.loc 1 2109 5 is_stmt 1 view .LVU363
 1358              		.loc 1 2109 8 is_stmt 0 view .LVU364
 1359 000c 024A     		ldr	r2, .L104
 1360 000e 136B     		ldr	r3, [r2, #48]
 1361              		.loc 1 2109 18 view .LVU365
 1362 0010 23EA0003 		bic	r3, r3, r0
 1363 0014 1363     		str	r3, [r2, #48]
2110:./Library/stm32f4xx_rcc.c ****   }
2111:./Library/stm32f4xx_rcc.c **** }
 1364              		.loc 1 2111 1 view .LVU366
 1365 0016 7047     		bx	lr
 1366              	.L105:
 1367              		.align	2
 1368              	.L104:
 1369 0018 00380240 		.word	1073887232
 1370              		.cfi_endproc
 1371              	.LFE153:
 1373              		.section	.text.RCC_AHB2PeriphClockCmd,"ax",%progbits
 1374              		.align	1
 1375              		.global	RCC_AHB2PeriphClockCmd
 1376              		.syntax unified
 1377              		.thumb
 1378              		.thumb_func
 1380              	RCC_AHB2PeriphClockCmd:
ARM GAS  /tmp/ccGY1Mdk.s 			page 62


 1381              	.LVL105:
 1382              	.LFB154:
2112:./Library/stm32f4xx_rcc.c **** 
2113:./Library/stm32f4xx_rcc.c **** /**
2114:./Library/stm32f4xx_rcc.c ****   * @brief  Enables or disables the AHB2 peripheral clock.
2115:./Library/stm32f4xx_rcc.c ****   * @note   After reset, the peripheral clock (used for registers read/write access)
2116:./Library/stm32f4xx_rcc.c ****   *         is disabled and the application software has to enable this clock before 
2117:./Library/stm32f4xx_rcc.c ****   *         using it. 
2118:./Library/stm32f4xx_rcc.c ****   * @param  RCC_AHBPeriph: specifies the AHB2 peripheral to gates its clock.
2119:./Library/stm32f4xx_rcc.c ****   *          This parameter can be any combination of the following values:
2120:./Library/stm32f4xx_rcc.c ****   *            @arg RCC_AHB2Periph_DCMI:   DCMI clock
2121:./Library/stm32f4xx_rcc.c ****   *            @arg RCC_AHB2Periph_CRYP:   CRYP clock
2122:./Library/stm32f4xx_rcc.c ****   *            @arg RCC_AHB2Periph_HASH:   HASH clock
2123:./Library/stm32f4xx_rcc.c ****   *            @arg RCC_AHB2Periph_RNG:    RNG clock
2124:./Library/stm32f4xx_rcc.c ****   *            @arg RCC_AHB2Periph_OTG_FS: USB OTG FS clock
2125:./Library/stm32f4xx_rcc.c ****   * @param  NewState: new state of the specified peripheral clock.
2126:./Library/stm32f4xx_rcc.c ****   *          This parameter can be: ENABLE or DISABLE.
2127:./Library/stm32f4xx_rcc.c ****   * @retval None
2128:./Library/stm32f4xx_rcc.c ****   */
2129:./Library/stm32f4xx_rcc.c **** void RCC_AHB2PeriphClockCmd(uint32_t RCC_AHB2Periph, FunctionalState NewState)
2130:./Library/stm32f4xx_rcc.c **** {
 1383              		.loc 1 2130 1 is_stmt 1 view -0
 1384              		.cfi_startproc
 1385              		@ args = 0, pretend = 0, frame = 0
 1386              		@ frame_needed = 0, uses_anonymous_args = 0
 1387              		@ link register save eliminated.
2131:./Library/stm32f4xx_rcc.c ****   /* Check the parameters */
2132:./Library/stm32f4xx_rcc.c ****   assert_param(IS_RCC_AHB2_PERIPH(RCC_AHB2Periph));
 1388              		.loc 1 2132 3 view .LVU368
2133:./Library/stm32f4xx_rcc.c ****   assert_param(IS_FUNCTIONAL_STATE(NewState));
 1389              		.loc 1 2133 3 view .LVU369
2134:./Library/stm32f4xx_rcc.c **** 
2135:./Library/stm32f4xx_rcc.c ****   if (NewState != DISABLE)
 1390              		.loc 1 2135 3 view .LVU370
 1391              		.loc 1 2135 6 is_stmt 0 view .LVU371
 1392 0000 21B1     		cbz	r1, .L107
2136:./Library/stm32f4xx_rcc.c ****   {
2137:./Library/stm32f4xx_rcc.c ****     RCC->AHB2ENR |= RCC_AHB2Periph;
 1393              		.loc 1 2137 5 is_stmt 1 view .LVU372
 1394              		.loc 1 2137 8 is_stmt 0 view .LVU373
 1395 0002 054A     		ldr	r2, .L109
 1396 0004 536B     		ldr	r3, [r2, #52]
 1397              		.loc 1 2137 18 view .LVU374
 1398 0006 0343     		orrs	r3, r3, r0
 1399 0008 5363     		str	r3, [r2, #52]
 1400 000a 7047     		bx	lr
 1401              	.L107:
2138:./Library/stm32f4xx_rcc.c ****   }
2139:./Library/stm32f4xx_rcc.c ****   else
2140:./Library/stm32f4xx_rcc.c ****   {
2141:./Library/stm32f4xx_rcc.c ****     RCC->AHB2ENR &= ~RCC_AHB2Periph;
 1402              		.loc 1 2141 5 is_stmt 1 view .LVU375
 1403              		.loc 1 2141 8 is_stmt 0 view .LVU376
 1404 000c 024A     		ldr	r2, .L109
 1405 000e 536B     		ldr	r3, [r2, #52]
 1406              		.loc 1 2141 18 view .LVU377
 1407 0010 23EA0003 		bic	r3, r3, r0
ARM GAS  /tmp/ccGY1Mdk.s 			page 63


 1408 0014 5363     		str	r3, [r2, #52]
2142:./Library/stm32f4xx_rcc.c ****   }
2143:./Library/stm32f4xx_rcc.c **** }
 1409              		.loc 1 2143 1 view .LVU378
 1410 0016 7047     		bx	lr
 1411              	.L110:
 1412              		.align	2
 1413              	.L109:
 1414 0018 00380240 		.word	1073887232
 1415              		.cfi_endproc
 1416              	.LFE154:
 1418              		.section	.text.RCC_APB1PeriphClockCmd,"ax",%progbits
 1419              		.align	1
 1420              		.global	RCC_APB1PeriphClockCmd
 1421              		.syntax unified
 1422              		.thumb
 1423              		.thumb_func
 1425              	RCC_APB1PeriphClockCmd:
 1426              	.LVL106:
 1427              	.LFB155:
2144:./Library/stm32f4xx_rcc.c **** 
2145:./Library/stm32f4xx_rcc.c **** #if defined(STM32F40_41xxx) || defined(STM32F412xG) || defined(STM32F413_423xx) || defined(STM32F42
2146:./Library/stm32f4xx_rcc.c **** /**
2147:./Library/stm32f4xx_rcc.c ****   * @brief  Enables or disables the AHB3 peripheral clock.
2148:./Library/stm32f4xx_rcc.c ****   * @note   After reset, the peripheral clock (used for registers read/write access)
2149:./Library/stm32f4xx_rcc.c ****   *         is disabled and the application software has to enable this clock before 
2150:./Library/stm32f4xx_rcc.c ****   *         using it. 
2151:./Library/stm32f4xx_rcc.c ****   * @param  RCC_AHBPeriph: specifies the AHB3 peripheral to gates its clock.
2152:./Library/stm32f4xx_rcc.c ****   *          This parameter must be: 
2153:./Library/stm32f4xx_rcc.c ****   *           - RCC_AHB3Periph_FSMC or RCC_AHB3Periph_FMC (STM32F412xG/STM32F413_423xx/STM32F429x/4
2154:./Library/stm32f4xx_rcc.c ****   *           - RCC_AHB3Periph_QSPI (STM32F412xG/STM32F413_423xx/STM32F446xx/STM32F469_479xx device
2155:./Library/stm32f4xx_rcc.c ****   * @param  NewState: new state of the specified peripheral clock.
2156:./Library/stm32f4xx_rcc.c ****   *          This parameter can be: ENABLE or DISABLE.
2157:./Library/stm32f4xx_rcc.c ****   * @retval None
2158:./Library/stm32f4xx_rcc.c ****   */
2159:./Library/stm32f4xx_rcc.c **** void RCC_AHB3PeriphClockCmd(uint32_t RCC_AHB3Periph, FunctionalState NewState)
2160:./Library/stm32f4xx_rcc.c **** {
2161:./Library/stm32f4xx_rcc.c ****   /* Check the parameters */
2162:./Library/stm32f4xx_rcc.c ****   assert_param(IS_RCC_AHB3_PERIPH(RCC_AHB3Periph));  
2163:./Library/stm32f4xx_rcc.c ****   assert_param(IS_FUNCTIONAL_STATE(NewState));
2164:./Library/stm32f4xx_rcc.c **** 
2165:./Library/stm32f4xx_rcc.c ****   if (NewState != DISABLE)
2166:./Library/stm32f4xx_rcc.c ****   {
2167:./Library/stm32f4xx_rcc.c ****     RCC->AHB3ENR |= RCC_AHB3Periph;
2168:./Library/stm32f4xx_rcc.c ****   }
2169:./Library/stm32f4xx_rcc.c ****   else
2170:./Library/stm32f4xx_rcc.c ****   {
2171:./Library/stm32f4xx_rcc.c ****     RCC->AHB3ENR &= ~RCC_AHB3Periph;
2172:./Library/stm32f4xx_rcc.c ****   }
2173:./Library/stm32f4xx_rcc.c **** }
2174:./Library/stm32f4xx_rcc.c **** #endif /* STM32F40_41xxx || STM32F412xG || STM32F413_423xx || STM32F427_437xx || STM32F429_439xx ||
2175:./Library/stm32f4xx_rcc.c **** 
2176:./Library/stm32f4xx_rcc.c **** /**
2177:./Library/stm32f4xx_rcc.c ****   * @brief  Enables or disables the Low Speed APB (APB1) peripheral clock.
2178:./Library/stm32f4xx_rcc.c ****   * @note   After reset, the peripheral clock (used for registers read/write access)
2179:./Library/stm32f4xx_rcc.c ****   *         is disabled and the application software has to enable this clock before 
2180:./Library/stm32f4xx_rcc.c ****   *         using it. 
ARM GAS  /tmp/ccGY1Mdk.s 			page 64


2181:./Library/stm32f4xx_rcc.c ****   * @param  RCC_APB1Periph: specifies the APB1 peripheral to gates its clock.
2182:./Library/stm32f4xx_rcc.c ****   *          This parameter can be any combination of the following values:
2183:./Library/stm32f4xx_rcc.c ****   *            @arg RCC_APB1Periph_TIM2:   TIM2 clock
2184:./Library/stm32f4xx_rcc.c ****   *            @arg RCC_APB1Periph_TIM3:   TIM3 clock
2185:./Library/stm32f4xx_rcc.c ****   *            @arg RCC_APB1Periph_TIM4:   TIM4 clock
2186:./Library/stm32f4xx_rcc.c ****   *            @arg RCC_APB1Periph_TIM5:   TIM5 clock
2187:./Library/stm32f4xx_rcc.c ****   *            @arg RCC_APB1Periph_TIM6:   TIM6 clock
2188:./Library/stm32f4xx_rcc.c ****   *            @arg RCC_APB1Periph_TIM7:   TIM7 clock
2189:./Library/stm32f4xx_rcc.c ****   *            @arg RCC_APB1Periph_TIM12:  TIM12 clock
2190:./Library/stm32f4xx_rcc.c ****   *            @arg RCC_APB1Periph_TIM13:  TIM13 clock
2191:./Library/stm32f4xx_rcc.c ****   *            @arg RCC_APB1Periph_TIM14:  TIM14 clock
2192:./Library/stm32f4xx_rcc.c ****   *            @arg RCC_APB1Periph_LPTIM1: LPTIM1 clock (STM32F410xx and STM32F413_423xx devices) 
2193:./Library/stm32f4xx_rcc.c ****   *            @arg RCC_APB1Periph_WWDG:   WWDG clock
2194:./Library/stm32f4xx_rcc.c ****   *            @arg RCC_APB1Periph_SPI2:   SPI2 clock
2195:./Library/stm32f4xx_rcc.c ****   *            @arg RCC_APB1Periph_SPI3:   SPI3 clock
2196:./Library/stm32f4xx_rcc.c ****   *            @arg RCC_APB1Periph_SPDIF:  SPDIF RX clock (STM32F446xx devices) 
2197:./Library/stm32f4xx_rcc.c ****   *            @arg RCC_APB1Periph_USART2: USART2 clock
2198:./Library/stm32f4xx_rcc.c ****   *            @arg RCC_APB1Periph_USART3: USART3 clock
2199:./Library/stm32f4xx_rcc.c ****   *            @arg RCC_APB1Periph_UART4:  UART4 clock
2200:./Library/stm32f4xx_rcc.c ****   *            @arg RCC_APB1Periph_UART5:  UART5 clock
2201:./Library/stm32f4xx_rcc.c ****   *            @arg RCC_APB1Periph_I2C1:   I2C1 clock
2202:./Library/stm32f4xx_rcc.c ****   *            @arg RCC_APB1Periph_I2C2:   I2C2 clock
2203:./Library/stm32f4xx_rcc.c ****   *            @arg RCC_APB1Periph_I2C3:   I2C3 clock
2204:./Library/stm32f4xx_rcc.c ****   *            @arg RCC_APB1Periph_FMPI2C1:FMPI2C1 clock
2205:./Library/stm32f4xx_rcc.c ****   *            @arg RCC_APB1Periph_CAN1:   CAN1 clock
2206:./Library/stm32f4xx_rcc.c ****   *            @arg RCC_APB1Periph_CAN2:   CAN2 clock
2207:./Library/stm32f4xx_rcc.c ****   *            @arg RCC_APB1Periph_CEC:    CEC clock (STM32F446xx devices)
2208:./Library/stm32f4xx_rcc.c ****   *            @arg RCC_APB1Periph_PWR:    PWR clock
2209:./Library/stm32f4xx_rcc.c ****   *            @arg RCC_APB1Periph_DAC:    DAC clock
2210:./Library/stm32f4xx_rcc.c ****   *            @arg RCC_APB1Periph_UART7:  UART7 clock
2211:./Library/stm32f4xx_rcc.c ****   *            @arg RCC_APB1Periph_UART8:  UART8 clock
2212:./Library/stm32f4xx_rcc.c ****   * @param  NewState: new state of the specified peripheral clock.
2213:./Library/stm32f4xx_rcc.c ****   *          This parameter can be: ENABLE or DISABLE.
2214:./Library/stm32f4xx_rcc.c ****   * @retval None
2215:./Library/stm32f4xx_rcc.c ****   */
2216:./Library/stm32f4xx_rcc.c **** void RCC_APB1PeriphClockCmd(uint32_t RCC_APB1Periph, FunctionalState NewState)
2217:./Library/stm32f4xx_rcc.c **** {
 1428              		.loc 1 2217 1 is_stmt 1 view -0
 1429              		.cfi_startproc
 1430              		@ args = 0, pretend = 0, frame = 0
 1431              		@ frame_needed = 0, uses_anonymous_args = 0
 1432              		@ link register save eliminated.
2218:./Library/stm32f4xx_rcc.c ****   /* Check the parameters */
2219:./Library/stm32f4xx_rcc.c ****   assert_param(IS_RCC_APB1_PERIPH(RCC_APB1Periph));  
 1433              		.loc 1 2219 3 view .LVU380
2220:./Library/stm32f4xx_rcc.c ****   assert_param(IS_FUNCTIONAL_STATE(NewState));
 1434              		.loc 1 2220 3 view .LVU381
2221:./Library/stm32f4xx_rcc.c **** 
2222:./Library/stm32f4xx_rcc.c ****   if (NewState != DISABLE)
 1435              		.loc 1 2222 3 view .LVU382
 1436              		.loc 1 2222 6 is_stmt 0 view .LVU383
 1437 0000 21B1     		cbz	r1, .L112
2223:./Library/stm32f4xx_rcc.c ****   {
2224:./Library/stm32f4xx_rcc.c ****     RCC->APB1ENR |= RCC_APB1Periph;
 1438              		.loc 1 2224 5 is_stmt 1 view .LVU384
 1439              		.loc 1 2224 8 is_stmt 0 view .LVU385
 1440 0002 054A     		ldr	r2, .L114
ARM GAS  /tmp/ccGY1Mdk.s 			page 65


 1441 0004 136C     		ldr	r3, [r2, #64]
 1442              		.loc 1 2224 18 view .LVU386
 1443 0006 0343     		orrs	r3, r3, r0
 1444 0008 1364     		str	r3, [r2, #64]
 1445 000a 7047     		bx	lr
 1446              	.L112:
2225:./Library/stm32f4xx_rcc.c ****   }
2226:./Library/stm32f4xx_rcc.c ****   else
2227:./Library/stm32f4xx_rcc.c ****   {
2228:./Library/stm32f4xx_rcc.c ****     RCC->APB1ENR &= ~RCC_APB1Periph;
 1447              		.loc 1 2228 5 is_stmt 1 view .LVU387
 1448              		.loc 1 2228 8 is_stmt 0 view .LVU388
 1449 000c 024A     		ldr	r2, .L114
 1450 000e 136C     		ldr	r3, [r2, #64]
 1451              		.loc 1 2228 18 view .LVU389
 1452 0010 23EA0003 		bic	r3, r3, r0
 1453 0014 1364     		str	r3, [r2, #64]
2229:./Library/stm32f4xx_rcc.c ****   }
2230:./Library/stm32f4xx_rcc.c **** }
 1454              		.loc 1 2230 1 view .LVU390
 1455 0016 7047     		bx	lr
 1456              	.L115:
 1457              		.align	2
 1458              	.L114:
 1459 0018 00380240 		.word	1073887232
 1460              		.cfi_endproc
 1461              	.LFE155:
 1463              		.section	.text.RCC_APB2PeriphClockCmd,"ax",%progbits
 1464              		.align	1
 1465              		.global	RCC_APB2PeriphClockCmd
 1466              		.syntax unified
 1467              		.thumb
 1468              		.thumb_func
 1470              	RCC_APB2PeriphClockCmd:
 1471              	.LVL107:
 1472              	.LFB156:
2231:./Library/stm32f4xx_rcc.c **** 
2232:./Library/stm32f4xx_rcc.c **** /**
2233:./Library/stm32f4xx_rcc.c ****   * @brief  Enables or disables the High Speed APB (APB2) peripheral clock.
2234:./Library/stm32f4xx_rcc.c ****   * @note   After reset, the peripheral clock (used for registers read/write access)
2235:./Library/stm32f4xx_rcc.c ****   *         is disabled and the application software has to enable this clock before 
2236:./Library/stm32f4xx_rcc.c ****   *         using it.
2237:./Library/stm32f4xx_rcc.c ****   * @param  RCC_APB2Periph: specifies the APB2 peripheral to gates its clock.
2238:./Library/stm32f4xx_rcc.c ****   *          This parameter can be any combination of the following values:
2239:./Library/stm32f4xx_rcc.c ****   *            @arg RCC_APB2Periph_TIM1:   TIM1 clock
2240:./Library/stm32f4xx_rcc.c ****   *            @arg RCC_APB2Periph_TIM8:   TIM8 clock
2241:./Library/stm32f4xx_rcc.c ****   *            @arg RCC_APB2Periph_USART1: USART1 clock
2242:./Library/stm32f4xx_rcc.c ****   *            @arg RCC_APB2Periph_USART6: USART6 clock
2243:./Library/stm32f4xx_rcc.c ****   *            @arg RCC_APB2Periph_ADC1:   ADC1 clock
2244:./Library/stm32f4xx_rcc.c ****   *            @arg RCC_APB2Periph_ADC2:   ADC2 clock
2245:./Library/stm32f4xx_rcc.c ****   *            @arg RCC_APB2Periph_ADC3:   ADC3 clock
2246:./Library/stm32f4xx_rcc.c ****   *            @arg RCC_APB2Periph_SDIO:   SDIO clock
2247:./Library/stm32f4xx_rcc.c ****   *            @arg RCC_APB2Periph_SPI1:   SPI1 clock
2248:./Library/stm32f4xx_rcc.c ****   *            @arg RCC_APB2Periph_SPI4:   SPI4 clock
2249:./Library/stm32f4xx_rcc.c ****   *            @arg RCC_APB2Periph_SYSCFG: SYSCFG clock
2250:./Library/stm32f4xx_rcc.c ****   *            @arg RCC_APB2Periph_EXTIT:  EXTIIT clock
2251:./Library/stm32f4xx_rcc.c ****   *            @arg RCC_APB2Periph_TIM9:   TIM9 clock
ARM GAS  /tmp/ccGY1Mdk.s 			page 66


2252:./Library/stm32f4xx_rcc.c ****   *            @arg RCC_APB2Periph_TIM10:  TIM10 clock
2253:./Library/stm32f4xx_rcc.c ****   *            @arg RCC_APB2Periph_TIM11:  TIM11 clock
2254:./Library/stm32f4xx_rcc.c ****   *            @arg RCC_APB2Periph_SPI5:   SPI5 clock
2255:./Library/stm32f4xx_rcc.c ****   *            @arg RCC_APB2Periph_SPI6:   SPI6 clock
2256:./Library/stm32f4xx_rcc.c ****   *            @arg RCC_APB2Periph_SAI1:   SAI1 clock (STM32F42xxx/43xxx/446xx/469xx/479xx/413_423x
2257:./Library/stm32f4xx_rcc.c ****   *            @arg RCC_APB2Periph_SAI2:   SAI2 clock (STM32F446xx devices) 
2258:./Library/stm32f4xx_rcc.c ****   *            @arg RCC_APB2Periph_LTDC:   LTDC clock (STM32F429xx/439xx devices)
2259:./Library/stm32f4xx_rcc.c ****   *            @arg RCC_APB2Periph_DSI:    DSI clock (STM32F469_479xx devices)
2260:./Library/stm32f4xx_rcc.c ****   *            @arg RCC_APB2Periph_DFSDM1: DFSDM Clock (STM32F412xG and STM32F413_423xx Devices)
2261:./Library/stm32f4xx_rcc.c ****   *            @arg RCC_APB2Periph_DFSDM2: DFSDM2 Clock (STM32F413_423xx Devices)
2262:./Library/stm32f4xx_rcc.c ****   *            @arg RCC_APB2Periph_UART9:  UART9 Clock (STM32F413_423xx Devices)
2263:./Library/stm32f4xx_rcc.c ****   *            @arg RCC_APB2Periph_UART10: UART10 Clock (STM32F413_423xx Devices)
2264:./Library/stm32f4xx_rcc.c ****   * @param  NewState: new state of the specified peripheral clock.
2265:./Library/stm32f4xx_rcc.c ****   *          This parameter can be: ENABLE or DISABLE.
2266:./Library/stm32f4xx_rcc.c ****   * @retval None
2267:./Library/stm32f4xx_rcc.c ****   */
2268:./Library/stm32f4xx_rcc.c **** void RCC_APB2PeriphClockCmd(uint32_t RCC_APB2Periph, FunctionalState NewState)
2269:./Library/stm32f4xx_rcc.c **** {
 1473              		.loc 1 2269 1 is_stmt 1 view -0
 1474              		.cfi_startproc
 1475              		@ args = 0, pretend = 0, frame = 0
 1476              		@ frame_needed = 0, uses_anonymous_args = 0
 1477              		@ link register save eliminated.
2270:./Library/stm32f4xx_rcc.c ****   /* Check the parameters */
2271:./Library/stm32f4xx_rcc.c ****   assert_param(IS_RCC_APB2_PERIPH(RCC_APB2Periph));
 1478              		.loc 1 2271 3 view .LVU392
2272:./Library/stm32f4xx_rcc.c ****   assert_param(IS_FUNCTIONAL_STATE(NewState));
 1479              		.loc 1 2272 3 view .LVU393
2273:./Library/stm32f4xx_rcc.c **** 
2274:./Library/stm32f4xx_rcc.c ****   if (NewState != DISABLE)
 1480              		.loc 1 2274 3 view .LVU394
 1481              		.loc 1 2274 6 is_stmt 0 view .LVU395
 1482 0000 21B1     		cbz	r1, .L117
2275:./Library/stm32f4xx_rcc.c ****   {
2276:./Library/stm32f4xx_rcc.c ****     RCC->APB2ENR |= RCC_APB2Periph;
 1483              		.loc 1 2276 5 is_stmt 1 view .LVU396
 1484              		.loc 1 2276 8 is_stmt 0 view .LVU397
 1485 0002 054A     		ldr	r2, .L119
 1486 0004 536C     		ldr	r3, [r2, #68]
 1487              		.loc 1 2276 18 view .LVU398
 1488 0006 0343     		orrs	r3, r3, r0
 1489 0008 5364     		str	r3, [r2, #68]
 1490 000a 7047     		bx	lr
 1491              	.L117:
2277:./Library/stm32f4xx_rcc.c ****   }
2278:./Library/stm32f4xx_rcc.c ****   else
2279:./Library/stm32f4xx_rcc.c ****   {
2280:./Library/stm32f4xx_rcc.c ****     RCC->APB2ENR &= ~RCC_APB2Periph;
 1492              		.loc 1 2280 5 is_stmt 1 view .LVU399
 1493              		.loc 1 2280 8 is_stmt 0 view .LVU400
 1494 000c 024A     		ldr	r2, .L119
 1495 000e 536C     		ldr	r3, [r2, #68]
 1496              		.loc 1 2280 18 view .LVU401
 1497 0010 23EA0003 		bic	r3, r3, r0
 1498 0014 5364     		str	r3, [r2, #68]
2281:./Library/stm32f4xx_rcc.c ****   }
2282:./Library/stm32f4xx_rcc.c **** }
ARM GAS  /tmp/ccGY1Mdk.s 			page 67


 1499              		.loc 1 2282 1 view .LVU402
 1500 0016 7047     		bx	lr
 1501              	.L120:
 1502              		.align	2
 1503              	.L119:
 1504 0018 00380240 		.word	1073887232
 1505              		.cfi_endproc
 1506              	.LFE156:
 1508              		.section	.text.RCC_AHB1PeriphResetCmd,"ax",%progbits
 1509              		.align	1
 1510              		.global	RCC_AHB1PeriphResetCmd
 1511              		.syntax unified
 1512              		.thumb
 1513              		.thumb_func
 1515              	RCC_AHB1PeriphResetCmd:
 1516              	.LVL108:
 1517              	.LFB157:
2283:./Library/stm32f4xx_rcc.c **** 
2284:./Library/stm32f4xx_rcc.c **** /**
2285:./Library/stm32f4xx_rcc.c ****   * @brief  Forces or releases AHB1 peripheral reset.
2286:./Library/stm32f4xx_rcc.c ****   * @param  RCC_AHB1Periph: specifies the AHB1 peripheral to reset.
2287:./Library/stm32f4xx_rcc.c ****   *          This parameter can be any combination of the following values:
2288:./Library/stm32f4xx_rcc.c ****   *            @arg RCC_AHB1Periph_GPIOA:   GPIOA clock
2289:./Library/stm32f4xx_rcc.c ****   *            @arg RCC_AHB1Periph_GPIOB:   GPIOB clock 
2290:./Library/stm32f4xx_rcc.c ****   *            @arg RCC_AHB1Periph_GPIOC:   GPIOC clock
2291:./Library/stm32f4xx_rcc.c ****   *            @arg RCC_AHB1Periph_GPIOD:   GPIOD clock
2292:./Library/stm32f4xx_rcc.c ****   *            @arg RCC_AHB1Periph_GPIOE:   GPIOE clock
2293:./Library/stm32f4xx_rcc.c ****   *            @arg RCC_AHB1Periph_GPIOF:   GPIOF clock
2294:./Library/stm32f4xx_rcc.c ****   *            @arg RCC_AHB1Periph_GPIOG:   GPIOG clock
2295:./Library/stm32f4xx_rcc.c ****   *            @arg RCC_AHB1Periph_GPIOG:   GPIOG clock
2296:./Library/stm32f4xx_rcc.c ****   *            @arg RCC_AHB1Periph_GPIOI:   GPIOI clock
2297:./Library/stm32f4xx_rcc.c ****   *            @arg RCC_AHB1Periph_GPIOJ:   GPIOJ clock (STM32F42xxx/43xxx devices) 
2298:./Library/stm32f4xx_rcc.c ****   *            @arg RCC_AHB1Periph_GPIOK:   GPIOK clock (STM32F42xxx/43xxxdevices)   
2299:./Library/stm32f4xx_rcc.c ****   *            @arg RCC_AHB1Periph_CRC:     CRC clock
2300:./Library/stm32f4xx_rcc.c ****   *            @arg RCC_AHB1Periph_DMA1:    DMA1 clock
2301:./Library/stm32f4xx_rcc.c ****   *            @arg RCC_AHB1Periph_DMA2:    DMA2 clock
2302:./Library/stm32f4xx_rcc.c ****   *            @arg RCC_AHB1Periph_DMA2D:   DMA2D clock (STM32F429xx/439xx devices)   
2303:./Library/stm32f4xx_rcc.c ****   *            @arg RCC_AHB1Periph_ETH_MAC: Ethernet MAC clock
2304:./Library/stm32f4xx_rcc.c ****   *            @arg RCC_AHB1Periph_OTG_HS:  USB OTG HS clock
2305:./Library/stm32f4xx_rcc.c ****   *            @arg RCC_AHB1Periph_RNG:     RNG clock for STM32F410xx devices   
2306:./Library/stm32f4xx_rcc.c ****   * @param  NewState: new state of the specified peripheral reset.
2307:./Library/stm32f4xx_rcc.c ****   *          This parameter can be: ENABLE or DISABLE.
2308:./Library/stm32f4xx_rcc.c ****   * @retval None
2309:./Library/stm32f4xx_rcc.c ****   */
2310:./Library/stm32f4xx_rcc.c **** void RCC_AHB1PeriphResetCmd(uint32_t RCC_AHB1Periph, FunctionalState NewState)
2311:./Library/stm32f4xx_rcc.c **** {
 1518              		.loc 1 2311 1 is_stmt 1 view -0
 1519              		.cfi_startproc
 1520              		@ args = 0, pretend = 0, frame = 0
 1521              		@ frame_needed = 0, uses_anonymous_args = 0
 1522              		@ link register save eliminated.
2312:./Library/stm32f4xx_rcc.c ****   /* Check the parameters */
2313:./Library/stm32f4xx_rcc.c ****   assert_param(IS_RCC_AHB1_RESET_PERIPH(RCC_AHB1Periph));
 1523              		.loc 1 2313 3 view .LVU404
2314:./Library/stm32f4xx_rcc.c ****   assert_param(IS_FUNCTIONAL_STATE(NewState));
 1524              		.loc 1 2314 3 view .LVU405
2315:./Library/stm32f4xx_rcc.c **** 
ARM GAS  /tmp/ccGY1Mdk.s 			page 68


2316:./Library/stm32f4xx_rcc.c ****   if (NewState != DISABLE)
 1525              		.loc 1 2316 3 view .LVU406
 1526              		.loc 1 2316 6 is_stmt 0 view .LVU407
 1527 0000 21B1     		cbz	r1, .L122
2317:./Library/stm32f4xx_rcc.c ****   {
2318:./Library/stm32f4xx_rcc.c ****     RCC->AHB1RSTR |= RCC_AHB1Periph;
 1528              		.loc 1 2318 5 is_stmt 1 view .LVU408
 1529              		.loc 1 2318 8 is_stmt 0 view .LVU409
 1530 0002 054A     		ldr	r2, .L124
 1531 0004 1369     		ldr	r3, [r2, #16]
 1532              		.loc 1 2318 19 view .LVU410
 1533 0006 0343     		orrs	r3, r3, r0
 1534 0008 1361     		str	r3, [r2, #16]
 1535 000a 7047     		bx	lr
 1536              	.L122:
2319:./Library/stm32f4xx_rcc.c ****   }
2320:./Library/stm32f4xx_rcc.c ****   else
2321:./Library/stm32f4xx_rcc.c ****   {
2322:./Library/stm32f4xx_rcc.c ****     RCC->AHB1RSTR &= ~RCC_AHB1Periph;
 1537              		.loc 1 2322 5 is_stmt 1 view .LVU411
 1538              		.loc 1 2322 8 is_stmt 0 view .LVU412
 1539 000c 024A     		ldr	r2, .L124
 1540 000e 1369     		ldr	r3, [r2, #16]
 1541              		.loc 1 2322 19 view .LVU413
 1542 0010 23EA0003 		bic	r3, r3, r0
 1543 0014 1361     		str	r3, [r2, #16]
2323:./Library/stm32f4xx_rcc.c ****   }
2324:./Library/stm32f4xx_rcc.c **** }
 1544              		.loc 1 2324 1 view .LVU414
 1545 0016 7047     		bx	lr
 1546              	.L125:
 1547              		.align	2
 1548              	.L124:
 1549 0018 00380240 		.word	1073887232
 1550              		.cfi_endproc
 1551              	.LFE157:
 1553              		.section	.text.RCC_AHB2PeriphResetCmd,"ax",%progbits
 1554              		.align	1
 1555              		.global	RCC_AHB2PeriphResetCmd
 1556              		.syntax unified
 1557              		.thumb
 1558              		.thumb_func
 1560              	RCC_AHB2PeriphResetCmd:
 1561              	.LVL109:
 1562              	.LFB158:
2325:./Library/stm32f4xx_rcc.c **** 
2326:./Library/stm32f4xx_rcc.c **** /**
2327:./Library/stm32f4xx_rcc.c ****   * @brief  Forces or releases AHB2 peripheral reset.
2328:./Library/stm32f4xx_rcc.c ****   * @param  RCC_AHB2Periph: specifies the AHB2 peripheral to reset.
2329:./Library/stm32f4xx_rcc.c ****   *          This parameter can be any combination of the following values:
2330:./Library/stm32f4xx_rcc.c ****   *            @arg RCC_AHB2Periph_DCMI:   DCMI clock
2331:./Library/stm32f4xx_rcc.c ****   *            @arg RCC_AHB2Periph_CRYP:   CRYP clock
2332:./Library/stm32f4xx_rcc.c ****   *            @arg RCC_AHB2Periph_HASH:   HASH clock
2333:./Library/stm32f4xx_rcc.c ****   *            @arg RCC_AHB2Periph_RNG:    RNG clock for STM32F40_41xxx/STM32F412xG/STM32F413_423xx
2334:./Library/stm32f4xx_rcc.c ****   *            @arg RCC_AHB2Periph_OTG_FS: USB OTG FS clock
