ARM GAS  /tmp/ccQ1vo1y.s 			page 1


   1              		.cpu cortex-m4
   2              		.arch armv7e-m
   3              		.fpu fpv4-sp-d16
   4              		.eabi_attribute 27, 1
   5              		.eabi_attribute 28, 1
   6              		.eabi_attribute 20, 1
   7              		.eabi_attribute 21, 1
   8              		.eabi_attribute 23, 3
   9              		.eabi_attribute 24, 1
  10              		.eabi_attribute 25, 1
  11              		.eabi_attribute 26, 1
  12              		.eabi_attribute 30, 1
  13              		.eabi_attribute 34, 1
  14              		.eabi_attribute 18, 4
  15              		.file	"TTL_USB.c"
  16              		.text
  17              	.Ltext0:
  18              		.cfi_sections	.debug_frame
  19              		.file 1 "./Hardware/TTL_USB.c"
  20              		.section	.text.TTL_USB_Init,"ax",%progbits
  21              		.align	1
  22              		.global	TTL_USB_Init
  23              		.syntax unified
  24              		.thumb
  25              		.thumb_func
  27              	TTL_USB_Init:
  28              	.LFB126:
   1:./Hardware/TTL_USB.c **** #include "stm32f4xx.h"                  // Device header
   2:./Hardware/TTL_USB.c **** #include <stdio.h>
   3:./Hardware/TTL_USB.c **** #include <stdarg.h>
   4:./Hardware/TTL_USB.c **** 
   5:./Hardware/TTL_USB.c **** void TTL_USB_Init()
   6:./Hardware/TTL_USB.c **** {
  29              		.loc 1 6 1 view -0
  30              		.cfi_startproc
  31              		@ args = 0, pretend = 0, frame = 24
  32              		@ frame_needed = 0, uses_anonymous_args = 0
  33 0000 30B5     		push	{r4, r5, lr}
  34              	.LCFI0:
  35              		.cfi_def_cfa_offset 12
  36              		.cfi_offset 4, -12
  37              		.cfi_offset 5, -8
  38              		.cfi_offset 14, -4
  39 0002 87B0     		sub	sp, sp, #28
  40              	.LCFI1:
  41              		.cfi_def_cfa_offset 40
   7:./Hardware/TTL_USB.c ****   
   8:./Hardware/TTL_USB.c ****   RCC_APB2PeriphClockCmd(RCC_APB2Periph_USART6, ENABLE);
  42              		.loc 1 8 3 view .LVU1
  43 0004 0121     		movs	r1, #1
  44 0006 2020     		movs	r0, #32
  45 0008 FFF7FEFF 		bl	RCC_APB2PeriphClockCmd
  46              	.LVL0:
   9:./Hardware/TTL_USB.c ****   RCC_AHB1PeriphClockCmd(RCC_AHB1Periph_GPIOA,ENABLE);//PA11TX,PA12RX
  47              		.loc 1 9 3 view .LVU2
  48 000c 0121     		movs	r1, #1
  49 000e 0846     		mov	r0, r1
ARM GAS  /tmp/ccQ1vo1y.s 			page 2


  50 0010 FFF7FEFF 		bl	RCC_AHB1PeriphClockCmd
  51              	.LVL1:
  10:./Hardware/TTL_USB.c ****   
  11:./Hardware/TTL_USB.c ****   GPIO_PinAFConfig(GPIOA,GPIO_PinSource11,GPIO_AF_USART6);
  52              		.loc 1 11 3 view .LVU3
  53 0014 1A4D     		ldr	r5, .L3
  54 0016 0822     		movs	r2, #8
  55 0018 0B21     		movs	r1, #11
  56 001a 2846     		mov	r0, r5
  57 001c FFF7FEFF 		bl	GPIO_PinAFConfig
  58              	.LVL2:
  12:./Hardware/TTL_USB.c ****   GPIO_PinAFConfig(GPIOA,GPIO_PinSource12,GPIO_AF_USART6);
  59              		.loc 1 12 3 view .LVU4
  60 0020 0822     		movs	r2, #8
  61 0022 0C21     		movs	r1, #12
  62 0024 2846     		mov	r0, r5
  63 0026 FFF7FEFF 		bl	GPIO_PinAFConfig
  64              	.LVL3:
  13:./Hardware/TTL_USB.c ****   
  14:./Hardware/TTL_USB.c ****   GPIO_InitTypeDef GPIO_InitStructure;
  65              		.loc 1 14 3 view .LVU5
  15:./Hardware/TTL_USB.c **** 	GPIO_InitStructure.GPIO_Mode = GPIO_Mode_AF;
  66              		.loc 1 15 2 view .LVU6
  67              		.loc 1 15 31 is_stmt 0 view .LVU7
  68 002a 0223     		movs	r3, #2
  69 002c 8DF81430 		strb	r3, [sp, #20]
  16:./Hardware/TTL_USB.c ****   GPIO_InitStructure.GPIO_OType = GPIO_OType_PP;
  70              		.loc 1 16 3 is_stmt 1 view .LVU8
  71              		.loc 1 16 33 is_stmt 0 view .LVU9
  72 0030 0024     		movs	r4, #0
  73 0032 8DF81640 		strb	r4, [sp, #22]
  17:./Hardware/TTL_USB.c ****   GPIO_InitStructure.GPIO_PuPd = GPIO_PuPd_NOPULL;
  74              		.loc 1 17 3 is_stmt 1 view .LVU10
  75              		.loc 1 17 32 is_stmt 0 view .LVU11
  76 0036 8DF81740 		strb	r4, [sp, #23]
  18:./Hardware/TTL_USB.c ****   GPIO_InitStructure.GPIO_Pin = GPIO_Pin_11 | GPIO_Pin_12;
  77              		.loc 1 18 3 is_stmt 1 view .LVU12
  78              		.loc 1 18 31 is_stmt 0 view .LVU13
  79 003a 4FF4C053 		mov	r3, #6144
  80 003e 0493     		str	r3, [sp, #16]
  19:./Hardware/TTL_USB.c ****   GPIO_InitStructure.GPIO_Speed = GPIO_Speed_100MHz;
  81              		.loc 1 19 3 is_stmt 1 view .LVU14
  82              		.loc 1 19 33 is_stmt 0 view .LVU15
  83 0040 0323     		movs	r3, #3
  84 0042 8DF81530 		strb	r3, [sp, #21]
  20:./Hardware/TTL_USB.c **** 	GPIO_Init(GPIOA, &GPIO_InitStructure);
  85              		.loc 1 20 2 is_stmt 1 view .LVU16
  86 0046 04A9     		add	r1, sp, #16
  87 0048 2846     		mov	r0, r5
  88 004a FFF7FEFF 		bl	GPIO_Init
  89              	.LVL4:
  21:./Hardware/TTL_USB.c ****   
  22:./Hardware/TTL_USB.c ****   USART_InitTypeDef USART_InitStructure;
  90              		.loc 1 22 3 view .LVU17
  23:./Hardware/TTL_USB.c ****   USART_InitStructure.USART_BaudRate = 9600;
  91              		.loc 1 23 3 view .LVU18
  92              		.loc 1 23 38 is_stmt 0 view .LVU19
ARM GAS  /tmp/ccQ1vo1y.s 			page 3


  93 004e 4FF41653 		mov	r3, #9600
  94 0052 0093     		str	r3, [sp]
  24:./Hardware/TTL_USB.c ****   USART_InitStructure.USART_HardwareFlowControl = USART_HardwareFlowControl_None;
  95              		.loc 1 24 3 is_stmt 1 view .LVU20
  96              		.loc 1 24 49 is_stmt 0 view .LVU21
  97 0054 ADF80C40 		strh	r4, [sp, #12]	@ movhi
  25:./Hardware/TTL_USB.c ****   USART_InitStructure.USART_Mode = USART_Mode_Rx|USART_Mode_Tx;
  98              		.loc 1 25 3 is_stmt 1 view .LVU22
  99              		.loc 1 25 34 is_stmt 0 view .LVU23
 100 0058 0C23     		movs	r3, #12
 101 005a ADF80A30 		strh	r3, [sp, #10]	@ movhi
  26:./Hardware/TTL_USB.c ****   USART_InitStructure.USART_Parity = USART_Parity_No;
 102              		.loc 1 26 3 is_stmt 1 view .LVU24
 103              		.loc 1 26 36 is_stmt 0 view .LVU25
 104 005e ADF80840 		strh	r4, [sp, #8]	@ movhi
  27:./Hardware/TTL_USB.c ****   USART_InitStructure.USART_StopBits = USART_StopBits_1;
 105              		.loc 1 27 3 is_stmt 1 view .LVU26
 106              		.loc 1 27 38 is_stmt 0 view .LVU27
 107 0062 ADF80640 		strh	r4, [sp, #6]	@ movhi
  28:./Hardware/TTL_USB.c ****   USART_InitStructure.USART_WordLength = USART_WordLength_8b;
 108              		.loc 1 28 3 is_stmt 1 view .LVU28
 109              		.loc 1 28 40 is_stmt 0 view .LVU29
 110 0066 ADF80440 		strh	r4, [sp, #4]	@ movhi
  29:./Hardware/TTL_USB.c ****   USART_Init(USART6, &USART_InitStructure);
 111              		.loc 1 29 3 is_stmt 1 view .LVU30
 112 006a 064C     		ldr	r4, .L3+4
 113 006c 6946     		mov	r1, sp
 114 006e 2046     		mov	r0, r4
 115 0070 FFF7FEFF 		bl	USART_Init
 116              	.LVL5:
  30:./Hardware/TTL_USB.c ****   
  31:./Hardware/TTL_USB.c ****   
  32:./Hardware/TTL_USB.c ****   
  33:./Hardware/TTL_USB.c ****   USART_Cmd(USART6, ENABLE);
 117              		.loc 1 33 3 view .LVU31
 118 0074 0121     		movs	r1, #1
 119 0076 2046     		mov	r0, r4
 120 0078 FFF7FEFF 		bl	USART_Cmd
 121              	.LVL6:
  34:./Hardware/TTL_USB.c ****   
  35:./Hardware/TTL_USB.c **** }
 122              		.loc 1 35 1 is_stmt 0 view .LVU32
 123 007c 07B0     		add	sp, sp, #28
 124              	.LCFI2:
 125              		.cfi_def_cfa_offset 12
 126              		@ sp needed
 127 007e 30BD     		pop	{r4, r5, pc}
 128              	.L4:
 129              		.align	2
 130              	.L3:
 131 0080 00000240 		.word	1073872896
 132 0084 00140140 		.word	1073812480
 133              		.cfi_endproc
 134              	.LFE126:
 136              		.section	.text.TTL_USB_SendByte,"ax",%progbits
 137              		.align	1
 138              		.global	TTL_USB_SendByte
ARM GAS  /tmp/ccQ1vo1y.s 			page 4


 139              		.syntax unified
 140              		.thumb
 141              		.thumb_func
 143              	TTL_USB_SendByte:
 144              	.LVL7:
 145              	.LFB127:
  36:./Hardware/TTL_USB.c **** 
  37:./Hardware/TTL_USB.c **** void TTL_USB_SendByte(uint8_t Byte)
  38:./Hardware/TTL_USB.c **** {
 146              		.loc 1 38 1 is_stmt 1 view -0
 147              		.cfi_startproc
 148              		@ args = 0, pretend = 0, frame = 0
 149              		@ frame_needed = 0, uses_anonymous_args = 0
 150              		.loc 1 38 1 is_stmt 0 view .LVU34
 151 0000 08B5     		push	{r3, lr}
 152              	.LCFI3:
 153              		.cfi_def_cfa_offset 8
 154              		.cfi_offset 3, -8
 155              		.cfi_offset 14, -4
 156 0002 0146     		mov	r1, r0
  39:./Hardware/TTL_USB.c **** 	USART_SendData(USART6, Byte);
 157              		.loc 1 39 2 is_stmt 1 view .LVU35
 158 0004 0448     		ldr	r0, .L8
 159              	.LVL8:
 160              		.loc 1 39 2 is_stmt 0 view .LVU36
 161 0006 FFF7FEFF 		bl	USART_SendData
 162              	.LVL9:
  40:./Hardware/TTL_USB.c **** 	while (USART_GetFlagStatus(USART6, USART_FLAG_TXE) == RESET);
 163              		.loc 1 40 2 is_stmt 1 view .LVU37
 164              	.L6:
 165              		.loc 1 40 53 discriminator 1 view .LVU38
 166              		.loc 1 40 9 is_stmt 0 discriminator 1 view .LVU39
 167 000a 8021     		movs	r1, #128
 168 000c 0248     		ldr	r0, .L8
 169 000e FFF7FEFF 		bl	USART_GetFlagStatus
 170              	.LVL10:
 171              		.loc 1 40 53 discriminator 1 view .LVU40
 172 0012 0028     		cmp	r0, #0
 173 0014 F9D0     		beq	.L6
  41:./Hardware/TTL_USB.c **** }
 174              		.loc 1 41 1 view .LVU41
 175 0016 08BD     		pop	{r3, pc}
 176              	.L9:
 177              		.align	2
 178              	.L8:
 179 0018 00140140 		.word	1073812480
 180              		.cfi_endproc
 181              	.LFE127:
 183              		.section	.text.TTL_USB_SendArray,"ax",%progbits
 184              		.align	1
 185              		.global	TTL_USB_SendArray
 186              		.syntax unified
 187              		.thumb
 188              		.thumb_func
 190              	TTL_USB_SendArray:
 191              	.LVL11:
 192              	.LFB128:
ARM GAS  /tmp/ccQ1vo1y.s 			page 5


  42:./Hardware/TTL_USB.c **** 
  43:./Hardware/TTL_USB.c **** void TTL_USB_SendArray(uint8_t *Array, uint16_t Length)
  44:./Hardware/TTL_USB.c **** {
 193              		.loc 1 44 1 is_stmt 1 view -0
 194              		.cfi_startproc
 195              		@ args = 0, pretend = 0, frame = 0
 196              		@ frame_needed = 0, uses_anonymous_args = 0
 197              		.loc 1 44 1 is_stmt 0 view .LVU43
 198 0000 70B5     		push	{r4, r5, r6, lr}
 199              	.LCFI4:
 200              		.cfi_def_cfa_offset 16
 201              		.cfi_offset 4, -16
 202              		.cfi_offset 5, -12
 203              		.cfi_offset 6, -8
 204              		.cfi_offset 14, -4
 205 0002 0646     		mov	r6, r0
 206 0004 0D46     		mov	r5, r1
  45:./Hardware/TTL_USB.c **** 	uint16_t i;
 207              		.loc 1 45 2 is_stmt 1 view .LVU44
  46:./Hardware/TTL_USB.c **** 	for (i = 0; i < Length; i ++)
 208              		.loc 1 46 2 view .LVU45
 209              	.LVL12:
 210              		.loc 1 46 9 is_stmt 0 view .LVU46
 211 0006 0024     		movs	r4, #0
 212              		.loc 1 46 2 view .LVU47
 213 0008 04E0     		b	.L11
 214              	.LVL13:
 215              	.L12:
  47:./Hardware/TTL_USB.c **** 	{
  48:./Hardware/TTL_USB.c **** 		TTL_USB_SendByte(Array[i]);
 216              		.loc 1 48 3 is_stmt 1 discriminator 3 view .LVU48
 217 000a 305D     		ldrb	r0, [r6, r4]	@ zero_extendqisi2
 218 000c FFF7FEFF 		bl	TTL_USB_SendByte
 219              	.LVL14:
  46:./Hardware/TTL_USB.c **** 	for (i = 0; i < Length; i ++)
 220              		.loc 1 46 28 discriminator 3 view .LVU49
 221 0010 0134     		adds	r4, r4, #1
 222              	.LVL15:
  46:./Hardware/TTL_USB.c **** 	for (i = 0; i < Length; i ++)
 223              		.loc 1 46 28 is_stmt 0 discriminator 3 view .LVU50
 224 0012 A4B2     		uxth	r4, r4
 225              	.LVL16:
 226              	.L11:
  46:./Hardware/TTL_USB.c **** 	for (i = 0; i < Length; i ++)
 227              		.loc 1 46 16 is_stmt 1 discriminator 1 view .LVU51
 228 0014 AC42     		cmp	r4, r5
 229 0016 F8D3     		bcc	.L12
  49:./Hardware/TTL_USB.c **** 	}
  50:./Hardware/TTL_USB.c **** }
 230              		.loc 1 50 1 is_stmt 0 view .LVU52
 231 0018 70BD     		pop	{r4, r5, r6, pc}
 232              		.loc 1 50 1 view .LVU53
 233              		.cfi_endproc
 234              	.LFE128:
 236              		.section	.text.TTL_USB_SendString,"ax",%progbits
 237              		.align	1
 238              		.global	TTL_USB_SendString
ARM GAS  /tmp/ccQ1vo1y.s 			page 6


 239              		.syntax unified
 240              		.thumb
 241              		.thumb_func
 243              	TTL_USB_SendString:
 244              	.LVL17:
 245              	.LFB129:
  51:./Hardware/TTL_USB.c **** 
  52:./Hardware/TTL_USB.c **** void TTL_USB_SendString(char *String)
  53:./Hardware/TTL_USB.c **** {
 246              		.loc 1 53 1 is_stmt 1 view -0
 247              		.cfi_startproc
 248              		@ args = 0, pretend = 0, frame = 0
 249              		@ frame_needed = 0, uses_anonymous_args = 0
 250              		.loc 1 53 1 is_stmt 0 view .LVU55
 251 0000 38B5     		push	{r3, r4, r5, lr}
 252              	.LCFI5:
 253              		.cfi_def_cfa_offset 16
 254              		.cfi_offset 3, -16
 255              		.cfi_offset 4, -12
 256              		.cfi_offset 5, -8
 257              		.cfi_offset 14, -4
 258 0002 0546     		mov	r5, r0
  54:./Hardware/TTL_USB.c **** 	uint8_t i;
 259              		.loc 1 54 2 is_stmt 1 view .LVU56
  55:./Hardware/TTL_USB.c **** 	for (i = 0; String[i] != '\0'; i ++)
 260              		.loc 1 55 2 view .LVU57
 261              	.LVL18:
 262              		.loc 1 55 9 is_stmt 0 view .LVU58
 263 0004 0024     		movs	r4, #0
 264              		.loc 1 55 2 view .LVU59
 265 0006 03E0     		b	.L15
 266              	.LVL19:
 267              	.L16:
  56:./Hardware/TTL_USB.c **** 	{
  57:./Hardware/TTL_USB.c **** 		TTL_USB_SendByte(String[i]);
 268              		.loc 1 57 3 is_stmt 1 discriminator 3 view .LVU60
 269 0008 FFF7FEFF 		bl	TTL_USB_SendByte
 270              	.LVL20:
  55:./Hardware/TTL_USB.c **** 	for (i = 0; String[i] != '\0'; i ++)
 271              		.loc 1 55 35 discriminator 3 view .LVU61
 272 000c 0134     		adds	r4, r4, #1
 273              	.LVL21:
  55:./Hardware/TTL_USB.c **** 	for (i = 0; String[i] != '\0'; i ++)
 274              		.loc 1 55 35 is_stmt 0 discriminator 3 view .LVU62
 275 000e E4B2     		uxtb	r4, r4
 276              	.LVL22:
 277              	.L15:
  55:./Hardware/TTL_USB.c **** 	for (i = 0; String[i] != '\0'; i ++)
 278              		.loc 1 55 24 is_stmt 1 discriminator 1 view .LVU63
  55:./Hardware/TTL_USB.c **** 	for (i = 0; String[i] != '\0'; i ++)
 279              		.loc 1 55 20 is_stmt 0 discriminator 1 view .LVU64
 280 0010 285D     		ldrb	r0, [r5, r4]	@ zero_extendqisi2
  55:./Hardware/TTL_USB.c **** 	for (i = 0; String[i] != '\0'; i ++)
 281              		.loc 1 55 24 discriminator 1 view .LVU65
 282 0012 0028     		cmp	r0, #0
 283 0014 F8D1     		bne	.L16
  58:./Hardware/TTL_USB.c **** 	}
ARM GAS  /tmp/ccQ1vo1y.s 			page 7


  59:./Hardware/TTL_USB.c **** }
 284              		.loc 1 59 1 view .LVU66
 285 0016 38BD     		pop	{r3, r4, r5, pc}
 286              		.loc 1 59 1 view .LVU67
 287              		.cfi_endproc
 288              	.LFE129:
 290              		.text
 291              	.Letext0:
 292              		.file 2 "/usr/lib/gcc/arm-none-eabi/12.2.1/include/stdint.h"
 293              		.file 3 "./CORE/stm32f4xx.h"
 294              		.file 4 "./Library/stm32f4xx_gpio.h"
 295              		.file 5 "./Library/stm32f4xx_usart.h"
 296              		.file 6 "./Library/stm32f4xx_rcc.h"
ARM GAS  /tmp/ccQ1vo1y.s 			page 8

